(dp1
S'SSPN'
p2
I1
sS'SSPL'
p3
I2
sS'PLNA'
p4
I1
sS'MWME'
p5
I1
sS'SQLQ'
p6
I1
sS'VTHP'
p7
I1
sS'SSPE'
p8
I2
sS'LIFW'
p9
I1
sS'TTIT'
p10
I2
sS'LIFS'
p11
I2
sS'FTML'
p12
I1
sS'SSPW'
p13
I1
sS'SSPT'
p14
I1
sS'EPEP'
p15
I1
sS'LIFY'
p16
I1
sS'KQHS'
p17
I1
sS'LASS'
p18
I1
sS'MSSN'
p19
I1
sS'PTNK'
p20
I2
sS'FYLD'
p21
I1
sS'PTNN'
p22
I1
sS'TTRT'
p23
I1
sS'TINF'
p24
I1
sS'PTNP'
p25
I6
sS'LASH'
p26
I1
sS'MNYY'
p27
I3
sS'LIFM'
p28
I1
sS'TVLS'
p29
I1
sS'LIFL'
p30
I3
sS'CKQE'
p31
I1
sS'TRTL'
p32
I1
sS'TVLA'
p33
I1
sS'NYYQ'
p34
I1
sS'NYYS'
p35
I2
sS'PMPT'
p36
I1
sS'ASSI'
p37
I1
sS'KLLL'
p38
I1
sS'KLLN'
p39
I3
sS'QKME'
p40
I1
sS'KLLT'
p41
I3
sS'LIFT'
p42
I1
sS'KLLP'
p43
I1
sS'KLLS'
p44
I8
sS'PMMW'
p45
I1
sS'MATL'
p46
I1
sS'IVWT'
p47
I1
sS'LTKT'
p48
I2
sS'HNTC'
p49
I1
sS'LNKT'
p50
I1
sS'TPLL'
p51
I1
sS'LTKD'
p52
I1
sS'RMDI'
p53
I3
sS'HNTP'
p54
I2
sS'TPLK'
p55
I1
sS'LTKN'
p56
I1
sS'IVWI'
p57
I1
sS'QQAP'
p58
I1
sS'IPWE'
p59
I1
sS'QQAT'
p60
I1
sS'PIAP'
p61
I1
sS'TFPL'
p62
I1
sS'KVMN'
p63
I1
sS'MPLP'
p64
I1
sS'IPWV'
p65
I1
sS'VNFS'
p66
I1
sS'MIYH'
p67
I1
sS'AVVI'
p68
I3
sS'MYPM'
p69
I3
sS'PWIL'
p70
I1
sS'PWIM'
p71
I1
sS'WEPK'
p72
I4
sS'PKFT'
p73
I2
sS'TMNP'
p74
I1
sS'LPKK'
p75
I1
sS'QLNT'
p76
I9
sS'QLNP'
p77
I38
sS'EPWT'
p78
I1
sS'NKPP'
p79
I1
sS'QLNL'
p80
I1
sS'EPWN'
p81
I5
sS'EPWL'
p82
I1
sS'RLSL'
p83
I1
sS'QLNF'
p84
I1
sS'PPNS'
p85
I1
sS'LPSK'
p86
I1
sS'RLLF'
p87
I3
sS'PISK'
p88
I2
sS'QHNP'
p89
I2
sS'LASW'
p90
I1
sS'TTRS'
p91
I2
sS'MFYQ'
p92
I1
sS'PISP'
p93
I1
sS'ISVS'
p94
I1
sS'ATKP'
p95
I1
sS'PISS'
p96
I1
sS'SYPT'
p97
I1
sS'STPC'
p98
I1
sS'SPPF'
p99
I1
sS'SYPS'
p100
I2
sS'SKHT'
p101
I2
sS'STPM'
p102
I1
sS'SKHS'
p103
I5
sS'PQMS'
p104
I1
sS'SKHN'
p105
I6
sS'STPP'
p106
I1
sS'STPT'
p107
I1
sS'STPW'
p108
I2
sS'SKHI'
p109
I1
sS'SYPM'
p110
I1
sS'PWEQ'
p111
I1
sS'WFFI'
p112
I5
sS'PSSK'
p113
I3
sS'LTLN'
p114
I1
sS'WFFL'
p115
I1
sS'CFSY'
p116
I1
sS'LFYQ'
p117
I1
sS'SKMI'
p118
I1
sS'PNDS'
p119
I1
sS'PNDP'
p120
I1
sS'LFYI'
p121
I2
sS'NDPT'
p122
I1
sS'AKIA'
p123
I2
sS'PSSP'
p124
I2
sS'WFFT'
p125
I1
sS'IGWL'
p126
I2
sS'WFTV'
p127
I1
sS'WFTT'
p128
I6
sS'WFTY'
p129
I1
sS'IAGQ'
p130
I2
sS'KTAQ'
p131
I1
sS'KMLN'
p132
I5
sS'NPSP'
p133
I5
sS'WFTF'
p134
I1
sS'KMLK'
p135
I4
sS'WFTI'
p136
I4
sS'WTVF'
p137
I1
sS'NCAP'
p138
I1
sS'AKGF'
p139
I1
sS'PPSL'
p140
I1
sS'NTAW'
p141
I1
sS'NTAV'
p142
I2
sS'FPIM'
p143
I1
sS'LNYT'
p144
I1
sS'YIKK'
p145
I1
sS'WKMK'
p146
I1
sS'EAKW'
p147
I1
sS'FMPQ'
p148
I3
sS'EAKT'
p149
I1
sS'LQKM'
p150
I1
sS'LNYF'
p151
I3
sS'EVEV'
p152
I1
sS'FPIS'
p153
I2
sS'IYTI'
p154
I1
sS'LQKF'
p155
I1
sS'PQQS'
p156
I3
sS'ILAI'
p157
I1
sS'PSEH'
p158
I1
sS'IMII'
p159
I1
sS'LIYT'
p160
I1
sS'SWLT'
p161
I7
sS'SIFI'
p162
I1
sS'MVLL'
p163
I1
sS'LIYF'
p164
I1
sS'SWVI'
p165
I2
sS'FSYT'
p166
I1
sS'PQQM'
p167
I7
sS'LNPK'
p168
I1
sS'TKMT'
p169
I2
sS'PWEH'
p170
I2
sS'WHMP'
p171
I9
sS'PWEI'
p172
I1
sS'TKML'
p173
I3
sS'LPST'
p174
I1
sS'TEIW'
p175
I1
sS'KNYN'
p176
I3
sS'TKMK'
p177
I1
sS'TKMA'
p178
I1
sS'AGQS'
p179
I1
sS'STNY'
p180
I1
sS'NKLN'
p181
I2
sS'KEYS'
p182
I1
sS'AVFL'
p183
I2
sS'STNS'
p184
I3
sS'ANTS'
p185
I1
sS'STNP'
p186
I1
sS'EVKT'
p187
I1
sS'EVKS'
p188
I1
sS'IWYW'
p189
I1
sS'AGQH'
p190
I2
sS'WYMP'
p191
I1
sS'NPWN'
p192
I1
sS'NPWL'
p193
I2
sS'NNPT'
p194
I2
sS'HLYM'
p195
I1
sS'NPWI'
p196
I1
sS'TKSA'
p197
I2
sS'NPWF'
p198
I8
sS'TKSL'
p199
I1
sS'NPWD'
p200
I1
sS'NNPA'
p201
I1
sS'NNPE'
p202
I1
sS'PPSK'
p203
I1
sS'SKFN'
p204
I1
sS'NPWT'
p205
I1
sS'TKSY'
p206
I1
sS'RKEP'
p207
I1
sS'KPSE'
p208
I1
sS'KNKT'
p209
I1
sS'KPSL'
p210
I2
sS'TWTW'
p211
I2
sS'KPSN'
p212
I1
sS'FYTP'
p213
I1
sS'ELKL'
p214
I1
sS'ELKS'
p215
I1
sS'ELKP'
p216
I1
sS'VIMS'
p217
I2
sS'ELKW'
p218
I4
sS'ELKT'
p219
I1
sS'TLIQ'
p220
I1
sS'KYNF'
p221
I1
sS'KFSS'
p222
I1
sS'VLSI'
p223
I1
sS'KLKK'
p224
I1
sS'KLKM'
p225
I1
sS'HKYT'
p226
I1
sS'KSEL'
p227
I1
sS'TMML'
p228
I1
sS'WSMP'
p229
I2
sS'VLST'
p230
I1
sS'KFSK'
p231
I1
sS'PMLK'
p232
I1
sS'DAKE'
p233
I1
sS'NPEL'
p234
I8
sS'SKTH'
p235
I1
sS'NPET'
p236
I1
sS'ATEK'
p237
I1
sS'SKTQ'
p238
I1
sS'NPEP'
p239
I7
sS'FLPL'
p240
I1
sS'HKWT'
p241
I2
sS'NKNK'
p242
I1
sS'LYPS'
p243
I2
sS'PQGM'
p244
I1
sS'ILIF'
p245
I3
sS'ILII'
p246
I1
sS'TNEP'
p247
I4
sS'LDIN'
p248
I1
sS'PSHK'
p249
I1
sS'RLQL'
p250
I1
sS'SWDW'
p251
I3
sS'LYPL'
p252
I1
sS'GFSD'
p253
I1
sS'LIWK'
p254
I1
sS'KSSK'
p255
I1
sS'HPEV'
p256
I1
sS'EKKW'
p257
I5
sS'KSHI'
p258
I1
sS'TPSM'
p259
I1
sS'KSSF'
p260
I1
sS'LSNK'
p261
I1
sS'TPSN'
p262
I1
sS'TTST'
p263
I1
sS'TPSS'
p264
I2
sS'TPST'
p265
I1
sS'VLAS'
p266
I1
sS'TPSV'
p267
I1
sS'KSSS'
p268
I1
sS'LMSL'
p269
I1
sS'KSSP'
p270
I1
sS'MWLL'
p271
I1
sS'IYPS'
p272
I1
sS'LPLT'
p273
I1
sS'LPLP'
p274
I1
sS'LPLQ'
p275
I7
sS'LPLR'
p276
I1
sS'LPLS'
p277
I9
sS'QNMC'
p278
I1
sS'HSKW'
p279
I1
sS'ISWF'
p280
I1
sS'EMKW'
p281
I2
sS'LFLI'
p282
I6
sS'LPLL'
p283
I11
sS'GEKL'
p284
I1
sS'LPLH'
p285
I1
sS'QTHN'
p286
I1
sS'AKSA'
p287
I1
sS'IVLN'
p288
I1
sS'SSQL'
p289
I1
sS'TNSM'
p290
I2
sS'TNSL'
p291
I1
sS'KVPS'
p292
I1
sS'VFNI'
p293
I1
sS'FHFN'
p294
I1
sS'IQIT'
p295
I1
sS'TNSP'
p296
I1
sS'TNSW'
p297
I1
sS'SSQT'
p298
I2
sS'TIMS'
p299
I2
sS'ITTL'
p300
I1
sS'LYSN'
p301
I1
sS'MLTS'
p302
I1
sS'VTIL'
p303
I1
sS'MLTP'
p304
I1
sS'MLTV'
p305
I2
sS'MLTT'
p306
I3
sS'TIMF'
p307
I2
sS'HSYY'
p308
I1
sS'MLTL'
p309
I1
sS'PHNN'
p310
I2
sS'MSLM'
p311
I1
sS'ITTT'
p312
I1
sS'HSYP'
p313
I3
sS'MSLK'
p314
I1
sS'FTVI'
p315
I1
sS'QSNM'
p316
I1
sS'FLVL'
p317
I1
sS'FMFT'
p318
I1
sS'MYQM'
p319
I1
sS'KKLY'
p320
I1
sS'YPAS'
p321
I1
sS'WFWP'
p322
I1
sS'MFNL'
p323
I1
sS'KMMN'
p324
I1
sS'WFWM'
p325
I1
sS'VKSI'
p326
I1
sS'FVFL'
p327
I1
sS'VKSK'
p328
I1
sS'NMYY'
p329
I1
sS'APIN'
p330
I2
sS'TADF'
p331
I1
sS'YYSN'
p332
I1
sS'QPRS'
p333
I1
sS'FPVS'
p334
I1
sS'QMER'
p335
I1
sS'SFTS'
p336
I3
sS'HHNP'
p337
I1
sS'SFTP'
p338
I2
sS'YYSY'
p339
I1
sS'SFTL'
p340
I2
sS'SFTH'
p341
I1
sS'FMSW'
p342
I1
sS'WFVF'
p343
I1
sS'YYST'
p344
I1
sS'MLFQ'
p345
I1
sS'PINK'
p346
I1
sS'IVVT'
p347
I1
sS'LTLT'
p348
I1
sS'WAIM'
p349
I1
sS'MASP'
p350
I1
sS'WAIF'
p351
I1
sS'TPMP'
p352
I1
sS'FFSY'
p353
I1
sS'LTLA'
p354
I2
sS'TPML'
p355
I5
sS'TPMK'
p356
I1
sS'LTLF'
p357
I22
sS'SHIS'
p358
I2
sS'SHIP'
p359
I1
sS'LTLK'
p360
I1
sS'LTLL'
p361
I2
sS'FFSW'
p362
I1
sS'MLFN'
p363
I1
sS'PWHS'
p364
I1
sS'LNKK'
p365
I1
sS'TFHT'
p366
I1
sS'PHPW'
p367
I3
sS'IINH'
p368
I1
sS'PKTM'
p369
I3
sS'PKTL'
p370
I1
sS'IINF'
p371
I2
sS'PKTE'
p372
I1
sS'HPWF'
p373
I3
sS'PPAS'
p374
I2
sS'PPAR'
p375
I1
sS'TFHL'
p376
I1
sS'WEQK'
p377
I1
sS'PWHM'
p378
I9
sS'PKTT'
p379
I1
sS'KPNP'
p380
I1
sS'NKSS'
p381
I1
sS'LTPM'
p382
I1
sS'NFYY'
p383
I1
sS'LTPT'
p384
I3
sS'LTPW'
p385
I4
sS'APST'
p386
I1
sS'YLRG'
p387
I1
sS'KPNK'
p388
I2
sS'NTTW'
p389
I1
sS'NTTT'
p390
I3
sS'NFYH'
p391
I4
sS'NKSH'
p392
I1
sS'NTTP'
p393
I1
sS'TSQK'
p394
I1
sS'NPTN'
p395
I1
sS'PLHM'
p396
I1
sS'NPTM'
p397
I1
sS'SMWL'
p398
I1
sS'PWTM'
p399
I18
sS'NPAN'
p400
I1
sS'LWTM'
p401
I1
sS'LTKH'
p402
I1
sS'PWTW'
p403
I13
sS'PWTQ'
p404
I1
sS'NPTP'
p405
I3
sS'HKDM'
p406
I1
sS'MILV'
p407
I1
sS'MILT'
p408
I7
sS'VWTA'
p409
I1
sS'MILS'
p410
I7
sS'SPWF'
p411
I3
sS'LLVI'
p412
I1
sS'IMTN'
p413
I1
sS'LDTT'
p414
I2
sS'IMTL'
p415
I3
sS'IMTM'
p416
I1
sS'FIKF'
p417
I1
sS'SPWN'
p418
I1
sS'FSTL'
p419
I1
sS'SPWP'
p420
I2
sS'IMTW'
p421
I1
sS'SPWT'
p422
I2
sS'IMTS'
p423
I1
sS'MILA'
p424
I3
sS'SKIA'
p425
I1
sS'FIKV'
p426
I1
sS'LLVS'
p427
I1
sS'MILI'
p428
I1
sS'QTTE'
p429
I1
sS'FSTP'
p430
I1
sS'PNEP'
p431
I5
sS'NMSK'
p432
I1
sS'PNEL'
p433
I1
sS'KTNN'
p434
I2
sS'PINT'
p435
I1
sS'WFYI'
p436
I2
sS'KHTK'
p437
I1
sS'IQPE'
p438
I1
sS'KHTL'
p439
I2
sS'HIFS'
p440
I1
sS'HIFT'
p441
I1
sS'KHTY'
p442
I1
sS'SKPN'
p443
I1
sS'IFTN'
p444
I1
sS'NPAP'
p445
I11
sS'KHTP'
p446
I1
sS'YHLP'
p447
I4
sS'LIVW'
p448
I1
sS'PQFM'
p449
I1
sS'FNEP'
p450
I1
sS'VVTT'
p451
I1
sS'LKFI'
p452
I1
sS'LKFH'
p453
I1
sS'INIV'
p454
I2
sS'LIVF'
p455
I1
sS'VMLT'
p456
I1
sS'VVTI'
p457
I1
sS'LIVL'
p458
I2
sS'LIVI'
p459
I2
sS'PNKV'
p460
I2
sS'LFTP'
p461
I1
sS'LKTL'
p462
I6
sS'LKTK'
p463
I2
sS'PNKQ'
p464
I1
sS'KFHK'
p465
I1
sS'VFSW'
p466
I10
sS'PQPM'
p467
I1
sS'NDCM'
p468
I1
sS'FNKL'
p469
I2
sS'PQPK'
p470
I1
sS'WDKK'
p471
I1
sS'APIG'
p472
I2
sS'PNKN'
p473
I1
sS'LKTT'
p474
I1
sS'LKTS'
p475
I3
sS'PNKI'
p476
I1
sS'NYIT'
p477
I1
sS'FLTI'
p478
I7
sS'TKLL'
p479
I1
sS'FMIF'
p480
I1
sS'INFF'
p481
I2
sS'NFKW'
p482
I1
sS'TNPW'
p483
I2
sS'PSKI'
p484
I1
sS'KPKL'
p485
I1
sS'TNPP'
p486
I7
sS'CSLH'
p487
I2
sS'WMPQ'
p488
I13
sS'TNPE'
p489
I2
sS'LMIF'
p490
I3
sS'ISFH'
p491
I1
sS'HSQP'
p492
I1
sS'SSNN'
p493
I1
sS'LMII'
p494
I1
sS'IFTW'
p495
I1
sS'LMIL'
p496
I2
sS'LMIM'
p497
I1
sS'FYIT'
p498
I2
sS'TILT'
p499
I1
sS'TILV'
p500
I1
sS'KVSK'
p501
I3
sS'TILS'
p502
I11
sS'MSMF'
p503
I1
sS'TILI'
p504
I1
sS'IWKW'
p505
I1
sS'PTHP'
p506
I1
sS'RNPW'
p507
I1
sS'PTHT'
p508
I1
sS'ITWT'
p509
I1
sS'VILC'
p510
I1
sS'YFIK'
p511
I1
sS'IAPS'
p512
I1
sS'VILS'
p513
I1
sS'VILQ'
p514
I1
sS'VILP'
p515
I2
sS'DPTQ'
p516
I1
sS'YFIY'
p517
I1
sS'MNIK'
p518
I1
sS'PMKT'
p519
I1
sS'PMKW'
p520
I1
sS'LLTL'
p521
I9
sS'PLLK'
p522
I1
sS'SKIE'
p523
I1
sS'MVFF'
p524
I1
sS'INWL'
p525
I2
sS'INWM'
p526
I1
sS'QWSM'
p527
I1
sS'KAFN'
p528
I1
sS'NPTA'
p529
I1
sS'SAPW'
p530
I3
sS'PMKM'
p531
I3
sS'LTMS'
p532
I1
sS'FFLV'
p533
I2
sS'ILPP'
p534
I1
sS'QQSM'
p535
I3
sS'MLIT'
p536
I1
sS'TPNP'
p537
I2
sS'FFLY'
p538
I1
sS'MLIN'
p539
I1
sS'FFLG'
p540
I1
sS'TPNL'
p541
I1
sS'MLIK'
p542
I1
sS'LTMI'
p543
I4
sS'LTML'
p544
I1
sS'ILPK'
p545
I1
sS'PKWT'
p546
I6
sS'WLVF'
p547
I5
sS'LNIF'
p548
I1
sS'LNIK'
p549
I2
sS'KYSY'
p550
I1
sS'WLVL'
p551
I2
sS'PWKM'
p552
I1
sS'PWKK'
p553
I3
sS'TFIM'
p554
I1
sS'TFIL'
p555
I1
sS'MTMM'
p556
I1
sS'SPHS'
p557
I1
sS'GMTT'
p558
I1
sS'TTTH'
p559
I1
sS'TMLP'
p560
I1
sS'TTTK'
p561
I3
sS'TTTL'
p562
I1
sS'TMLT'
p563
I1
sS'TTTN'
p564
I4
sS'QLHT'
p565
I1
sS'LSIP'
p566
I1
sS'VLFQ'
p567
I2
sS'TTTR'
p568
I3
sS'TTTT'
p569
I2
sS'WQWS'
p570
I1
sS'TTTW'
p571
I3
sS'EYSW'
p572
I1
sS'QNLT'
p573
I1
sS'LPMT'
p574
I1
sS'SLPL'
p575
I11
sS'LPMP'
p576
I1
sS'KVMT'
p577
I1
sS'LPSN'
p578
I1
sS'SQPQ'
p579
I1
sS'TYSM'
p580
I1
sS'EPQP'
p581
I1
sS'QTKL'
p582
I1
sS'QKPK'
p583
I1
sS'LHPP'
p584
I2
sS'SLPQ'
p585
I11
sS'SLPP'
p586
I10
sS'SLPS'
p587
I1
sS'KVMG'
p588
I1
sS'KVMA'
p589
I1
sS'WKWM'
p590
I7
sS'PWET'
p591
I12
sS'MIMS'
p592
I2
sS'LQIE'
p593
I1
sS'PWEP'
p594
I4
sS'MIMT'
p595
I4
sS'SMFL'
p596
I10
sS'PWES'
p597
I7
sS'LLWA'
p598
I1
sS'PWEE'
p599
I2
sS'PWEA'
p600
I1
sS'PWEL'
p601
I2
sS'PWEM'
p602
I2
sS'PWEN'
p603
I3
sS'TMPQ'
p604
I18
sS'MIML'
p605
I1
sS'PWEK'
p606
I5
sS'KTMS'
p607
I1
sS'VSKH'
p608
I3
sS'TAQS'
p609
I1
sS'IIFQ'
p610
I8
sS'VSKE'
p611
I1
sS'WKKK'
p612
I3
sS'HPMI'
p613
I1
sS'WKKI'
p614
I1
sS'TWTK'
p615
I2
sS'LQTH'
p616
I1
sS'KTMA'
p617
I1
sS'NTHY'
p618
I1
sS'TWTL'
p619
I1
sS'TAQN'
p620
I1
sS'KTMK'
p621
I1
sS'TQHS'
p622
I1
sS'HLYT'
p623
I1
sS'MPNE'
p624
I1
sS'FTWA'
p625
I2
sS'MPNK'
p626
I1
sS'TPKQ'
p627
I1
sS'KPMP'
p628
I1
sS'PIGW'
p629
I2
sS'FTWW'
p630
I2
sS'MFMS'
p631
I1
sS'MLSW'
p632
I1
sS'KIAN'
p633
I1
sS'IIFS'
p634
I2
sS'NMLT'
p635
I1
sS'KIAG'
p636
I2
sS'FYIM'
p637
I2
sS'LNWT'
p638
I1
sS'YTPN'
p639
I1
sS'YTPM'
p640
I1
sS'YTPL'
p641
I1
sS'YTPS'
p642
I1
sS'YYPE'
p643
I2
sS'LNWK'
p644
I4
sS'ALPI'
p645
I1
sS'NSLN'
p646
I1
sS'KIAS'
p647
I1
sS'LNWA'
p648
I1
sS'EHSW'
p649
I1
sS'ILYS'
p650
I1
sS'TWFT'
p651
I10
sS'SWTV'
p652
I1
sS'SWTW'
p653
I3
sS'TPPT'
p654
I1
sS'NEPS'
p655
I1
sS'TWFI'
p656
I13
sS'PNHN'
p657
I1
sS'TWFL'
p658
I1
sS'LKWT'
p659
I4
sS'PLLL'
p660
I8
sS'PLLM'
p661
I3
sS'TTPM'
p662
I1
sS'WTSL'
p663
I1
sS'SKHY'
p664
I2
sS'PLLA'
p665
I1
sS'ALLI'
p666
I2
sS'ALLW'
p667
I1
sS'NFTF'
p668
I2
sS'AWTK'
p669
I1
sS'NYHL'
p670
I4
sS'TYSL'
p671
I1
sS'KMEM'
p672
I1
sS'PLLS'
p673
I1
sS'KISF'
p674
I1
sS'AEKH'
p675
I2
sS'KISM'
p676
I1
sS'KISL'
p677
I1
sS'KISN'
p678
I3
sS'KISK'
p679
I15
sS'NYFI'
p680
I1
sS'KIST'
p681
I2
sS'KPMK'
p682
I3
sS'KISS'
p683
I2
sS'NYFC'
p684
I2
sS'STPN'
p685
I1
sS'AEKP'
p686
I1
sS'ISKF'
p687
I1
sS'IKSH'
p688
I1
sS'SMPH'
p689
I1
sS'SMPK'
p690
I1
sS'STLK'
p691
I1
sS'SMPQ'
p692
I13
sS'STLW'
p693
I1
sS'SMPW'
p694
I1
sS'HTYH'
p695
I1
sS'RSVS'
p696
I1
sS'LWWS'
p697
I1
sS'YNAP'
p698
I1
sS'SYPA'
p699
I1
sS'TLKT'
p700
I3
sS'TLKQ'
p701
I2
sS'TLKS'
p702
I1
sS'LKHH'
p703
I1
sS'NFFI'
p704
I2
sS'NFFL'
p705
I1
sS'NFFS'
p706
I1
sS'KTTK'
p707
I4
sS'FPNE'
p708
I3
sS'YSTI'
p709
I1
sS'MHTT'
p710
I1
sS'TLKI'
p711
I4
sS'TLKH'
p712
I1
sS'KHYF'
p713
I2
sS'NHNY'
p714
I1
sS'NKIK'
p715
I1
sS'QILK'
p716
I1
sS'KSCV'
p717
I3
sS'RGLQ'
p718
I1
sS'NNNP'
p719
I1
sS'AKTT'
p720
I1
sS'ASVL'
p721
I1
sS'SAQQ'
p722
I1
sS'KTTP'
p723
I2
sS'KHKT'
p724
I5
sS'DTST'
p725
I38
sS'NEPT'
p726
I9
sS'ISTN'
p727
I1
sS'FWMP'
p728
I1
sS'IMLM'
p729
I4
sS'KHKA'
p730
I1
sS'CAPK'
p731
I1
sS'DTSM'
p732
I1
sS'VCFP'
p733
I1
sS'HTKT'
p734
I3
sS'LFCI'
p735
I2
sS'FSMM'
p736
I1
sS'ILKK'
p737
I1
sS'INHF'
p738
I1
sS'INHI'
p739
I1
sS'FLVI'
p740
I1
sS'IMLI'
p741
I1
sS'LKAL'
p742
I1
sS'TLFT'
p743
I1
sS'MTTL'
p744
I2
sS'SSAK'
p745
I1
sS'FLVS'
p746
I1
sS'FLVT'
p747
I1
sS'FLVW'
p748
I1
sS'NQEL'
p749
I1
sS'FSMT'
p750
I1
sS'AMPQ'
p751
I1
sS'ILKS'
p752
I1
sS'FNFL'
p753
I1
sS'FPPN'
p754
I1
sS'PPQS'
p755
I4
sS'KSQT'
p756
I1
sS'LSHK'
p757
I1
sS'LSHI'
p758
I2
sS'VLGH'
p759
I4
sS'PPQY'
p760
I2
sS'LSHL'
p761
I1
sS'PPQF'
p762
I1
sS'FSDR'
p763
I1
sS'PRMP'
p764
I1
sS'PKDL'
p765
I1
sS'KSQI'
p766
I1
sS'PPQM'
p767
I3
sS'QLKF'
p768
I2
sS'FTFY'
p769
I1
sS'PIPW'
p770
I1
sS'KYLY'
p771
I3
sS'QLKL'
p772
I7
sS'FTFS'
p773
I1
sS'IITP'
p774
I2
sS'QLKI'
p775
I24
sS'QLKV'
p776
I4
sS'KVLN'
p777
I1
sS'QLKT'
p778
I2
sS'NALP'
p779
I1
sS'KVLK'
p780
I2
sS'KVLG'
p781
I4
sS'LPNK'
p782
I2
sS'YWPW'
p783
I1
sS'NSAG'
p784
I1
sS'KVLA'
p785
I1
sS'KQKT'
p786
I1
sS'QELF'
p787
I1
sS'FNPE'
p788
I1
sS'FHDL'
p789
I1
sS'PTIK'
p790
I1
sS'ITVT'
p791
I1
sS'PTII'
p792
I3
sS'PTIM'
p793
I1
sS'PTIL'
p794
I1
sS'AIIP'
p795
I1
sS'VTMN'
p796
I1
sS'TIKT'
p797
I1
sS'FYHN'
p798
I5
sS'YFFS'
p799
I1
sS'DDSS'
p800
I1
sS'TVYL'
p801
I1
sS'TIKG'
p802
I1
sS'FTTV'
p803
I2
sS'APKS'
p804
I1
sS'FTTT'
p805
I2
sS'MFLA'
p806
I3
sS'HLHM'
p807
I2
sS'SHKM'
p808
I1
sS'ATFV'
p809
I1
sS'MFLT'
p810
I6
sS'IPNL'
p811
I1
sS'LALL'
p812
I2
sS'QPTP'
p813
I1
sS'QPTW'
p814
I1
sS'TTNW'
p815
I1
sS'LNTS'
p816
I2
sS'LNPI'
p817
I1
sS'LSST'
p818
I1
sS'LNTT'
p819
I6
sS'YYPT'
p820
I1
sS'LNTH'
p821
I1
sS'LNTN'
p822
I2
sS'IYSL'
p823
I6
sS'LNTA'
p824
I2
sS'FPTN'
p825
I2
sS'TFQL'
p826
I1
sS'LVNN'
p827
I1
sS'ASHL'
p828
I1
sS'LTNP'
p829
I1
sS'LTNN'
p830
I1
sS'ERRV'
p831
I1
sS'KTAP'
p832
I1
sS'LTNI'
p833
I1
sS'LNPA'
p834
I11
sS'TIYI'
p835
I1
sS'GWTS'
p836
I1
sS'WWRL'
p837
I1
sS'IILL'
p838
I4
sS'KYTY'
p839
I1
sS'LNFF'
p840
I2
sS'LLFS'
p841
I2
sS'PMVI'
p842
I2
sS'QSMP'
p843
I10
sS'WESK'
p844
I7
sS'NSTP'
p845
I1
sS'LNFT'
p846
I2
sS'IILQ'
p847
I1
sS'PKVM'
p848
I1
sS'PKVL'
p849
I6
sS'SHSF'
p850
I1
sS'SVKS'
p851
I1
sS'IYAW'
p852
I1
sS'KPLS'
p853
I1
sS'TWWI'
p854
I2
sS'KITT'
p855
I1
sS'NDSS'
p856
I1
sS'KETL'
p857
I1
sS'IKTK'
p858
I1
sS'SKEY'
p859
I1
sS'TSWL'
p860
I1
sS'KETK'
p861
I1
sS'LEPA'
p862
I1
sS'LWVC'
p863
I1
sS'PWVF'
p864
I1
sS'STKM'
p865
I1
sS'IKTF'
p866
I1
sS'EFAW'
p867
I1
sS'SKEL'
p868
I3
sS'MMWF'
p869
I1
sS'IKTW'
p870
I1
sS'WEEK'
p871
I2
sS'IFNN'
p872
I1
sS'IFNM'
p873
I1
sS'FIMT'
p874
I2
sS'IFNI'
p875
I1
sS'SYSP'
p876
I2
sS'FWPW'
p877
I1
sS'FIMF'
p878
I5
sS'KLIW'
p879
I1
sS'FIMI'
p880
I4
sS'FIML'
p881
I5
sS'LDTI'
p882
I1
sS'PSTQ'
p883
I1
sS'TAPW'
p884
I1
sS'PSTT'
p885
I1
sS'TLDD'
p886
I1
sS'PSTY'
p887
I1
sS'MMIM'
p888
I1
sS'MMIL'
p889
I1
sS'WRPK'
p890
I1
sS'LQKP'
p891
I1
sS'KTLN'
p892
I2
sS'PSTE'
p893
I1
sS'SSFS'
p894
I1
sS'PSTN'
p895
I1
sS'EFTW'
p896
I1
sS'PSTL'
p897
I1
sS'DTTP'
p898
I1
sS'YHNP'
p899
I5
sS'HTTP'
p900
I3
sS'MIFL'
p901
I4
sS'TKNP'
p902
I1
sS'ESIE'
p903
I1
sS'HKHK'
p904
I2
sS'FSLI'
p905
I8
sS'PEPK'
p906
I7
sS'THLW'
p907
I1
sS'INGH'
p908
I1
sS'FSLL'
p909
I1
sS'DLKT'
p910
I1
sS'MTWF'
p911
I1
sS'INGF'
p912
I1
sS'PLEP'
p913
I1
sS'LITQ'
p914
I6
sS'DPAP'
p915
I1
sS'FSLF'
p916
I1
sS'LITL'
p917
I1
sS'THLF'
p918
I1
sS'LITI'
p919
I1
sS'LITK'
p920
I1
sS'NWLM'
p921
I1
sS'FSLS'
p922
I1
sS'SLTL'
p923
I1
sS'NWLI'
p924
I2
sS'FSLT'
p925
I1
sS'PEPW'
p926
I7
sS'WFMI'
p927
I5
sS'LKVS'
p928
I4
sS'SIIH'
p929
I1
sS'SNPS'
p930
I1
sS'QATK'
p931
I1
sS'SNPW'
p932
I1
sS'IWTA'
p933
I1
sS'FLAL'
p934
I3
sS'FLAI'
p935
I1
sS'SNPE'
p936
I4
sS'IKVP'
p937
I1
sS'PLMM'
p938
I1
sS'NTAN'
p939
I1
sS'NEPA'
p940
I1
sS'TLLQ'
p941
I1
sS'PLMP'
p942
I6
sS'EPAP'
p943
I1
sS'EKTN'
p944
I1
sS'SSLT'
p945
I2
sS'EKTK'
p946
I3
sS'SWIF'
p947
I1
sS'KMIN'
p948
I1
sS'KQLD'
p949
I1
sS'SWIT'
p950
I1
sS'EPAL'
p951
I1
sS'AYIK'
p952
I1
sS'KQLN'
p953
I1
sS'VTLM'
p954
I1
sS'VPTK'
p955
I1
sS'YFEL'
p956
I1
sS'WLNL'
p957
I1
sS'PHAK'
p958
I1
sS'ILLK'
p959
I1
sS'STEK'
p960
I6
sS'TMAT'
p961
I1
sS'ITQL'
p962
I8
sS'VINH'
p963
I1
sS'KPPI'
p964
I1
sS'KNDT'
p965
I1
sS'SSSQ'
p966
I1
sS'FSML'
p967
I2
sS'VVIV'
p968
I3
sS'WYTT'
p969
I1
sS'TLLA'
p970
I1
sS'EQSK'
p971
I1
sS'LLAV'
p972
I4
sS'ELLS'
p973
I1
sS'TLLI'
p974
I3
sS'TLLL'
p975
I1
sS'ELLT'
p976
I1
sS'FYYN'
p977
I1
sS'TTDS'
p978
I1
sS'LSYV'
p979
I1
sS'PMIY'
p980
I1
sS'NPNL'
p981
I1
sS'FLVG'
p982
I1
sS'MTTK'
p983
I1
sS'FSMF'
p984
I2
sS'HTFP'
p985
I4
sS'NPNP'
p986
I10
sS'HTFT'
p987
I3
sS'VLVI'
p988
I1
sS'ASWL'
p989
I1
sS'TLPM'
p990
I1
sS'MLKP'
p991
I1
sS'MLKQ'
p992
I3
sS'MLKT'
p993
I1
sS'MLKH'
p994
I1
sS'TLPW'
p995
I2
sS'FFNF'
p996
I1
sS'IVSM'
p997
I4
sS'ETKW'
p998
I12
sS'WLTI'
p999
I1
sS'AQQA'
p1000
I1
sS'IIMQ'
p1001
I1
sS'WLTL'
p1002
I2
sS'IIMS'
p1003
I1
sS'DSSE'
p1004
I1
sS'WLTF'
p1005
I8
sS'WLTY'
p1006
I1
sS'WETK'
p1007
I12
sS'IIMA'
p1008
I1
sS'WLTT'
p1009
I3
sS'DSSP'
p1010
I1
sS'LSMN'
p1011
I1
sS'MLYL'
p1012
I1
sS'TTVL'
p1013
I2
sS'LSKK'
p1014
I3
sS'LSKH'
p1015
I2
sS'LELI'
p1016
I1
sS'KLFL'
p1017
I1
sS'KLFK'
p1018
I1
sS'RTVY'
p1019
I1
sS'LSKY'
p1020
I1
sS'TTVW'
p1021
I4
sS'WLFI'
p1022
I2
sS'TNCA'
p1023
I1
sS'LSKQ'
p1024
I1
sS'SLNW'
p1025
I1
sS'NQTM'
p1026
I1
sS'NQTL'
p1027
I1
sS'TFYN'
p1028
I1
sS'KNYP'
p1029
I3
sS'SLNI'
p1030
I2
sS'LEST'
p1031
I1
sS'LLIV'
p1032
I3
sS'PWGP'
p1033
I1
sS'LLIS'
p1034
I1
sS'LLIQ'
p1035
I6
sS'SPTN'
p1036
I1
sS'SYTP'
p1037
I2
sS'KWWR'
p1038
I1
sS'IFMF'
p1039
I1
sS'TMVF'
p1040
I1
sS'LLIF'
p1041
I1
sS'FILF'
p1042
I10
sS'DLHK'
p1043
I1
sS'LLIN'
p1044
I1
sS'LLIM'
p1045
I3
sS'LLIL'
p1046
I2
sS'IFMV'
p1047
I1
sS'FILM'
p1048
I4
sS'VLGF'
p1049
I1
sS'KTKY'
p1050
I1
sS'QTQN'
p1051
I1
sS'KTKP'
p1052
I3
sS'WIMV'
p1053
I1
sS'PSWT'
p1054
I1
sS'KTKS'
p1055
I1
sS'TSFI'
p1056
I1
sS'KTKH'
p1057
I1
sS'KTKI'
p1058
I1
sS'KTKK'
p1059
I1
sS'TSFP'
p1060
I1
sS'TSFS'
p1061
I1
sS'AKML'
p1062
I1
sS'TSTN'
p1063
I1
sS'MFSV'
p1064
I1
sS'NELL'
p1065
I1
sS'WPMV'
p1066
I2
sS'LFLL'
p1067
I2
sS'MPHK'
p1068
I1
sS'IMPT'
p1069
I2
sS'KKKW'
p1070
I3
sS'MPHL'
p1071
I1
sS'KQPT'
p1072
I2
sS'QSQD'
p1073
I1
sS'QQMP'
p1074
I7
sS'TSTW'
p1075
I39
sS'MFSM'
p1076
I1
sS'TSTT'
p1077
I4
sS'KSAE'
p1078
I1
sS'NHSY'
p1079
I1
sS'FMLT'
p1080
I1
sS'VLKA'
p1081
I1
sS'KICS'
p1082
I2
sS'WISL'
p1083
I1
sS'WTMP'
p1084
I19
sS'HNNP'
p1085
I2
sS'FMLF'
p1086
I1
sS'PPQD'
p1087
I1
sS'PNSA'
p1088
I1
sS'WISV'
p1089
I1
sS'FMLL'
p1090
I1
sS'LTAK'
p1091
I1
sS'CPWE'
p1092
I1
sS'WFLI'
p1093
I2
sS'ISTK'
p1094
I1
sS'WFLM'
p1095
I1
sS'YHPN'
p1096
I1
sS'PNNP'
p1097
I1
sS'PFLY'
p1098
I1
sS'DINK'
p1099
I1
sS'LFST'
p1100
I1
sS'PFLV'
p1101
I1
sS'PEAK'
p1102
I1
sS'FLFF'
p1103
I1
sS'GLLI'
p1104
I1
sS'FLFI'
p1105
I1
sS'KTYL'
p1106
I5
sS'VLKH'
p1107
I1
sS'LKQL'
p1108
I1
sS'FCFF'
p1109
I1
sS'LKQN'
p1110
I4
sS'WFLT'
p1111
I1
sS'YMKT'
p1112
I1
sS'WITS'
p1113
I1
sS'WTQH'
p1114
I1
sS'QPKI'
p1115
I4
sS'EEKW'
p1116
I2
sS'NSNY'
p1117
I2
sS'QPKL'
p1118
I13
sS'STNW'
p1119
I1
sS'TYQM'
p1120
I1
sS'QPKT'
p1121
I1
sS'MTTP'
p1122
I1
sS'ATIT'
p1123
I1
sS'PLNP'
p1124
I1
sS'TLVI'
p1125
I2
sS'PLNW'
p1126
I1
sS'SLTP'
p1127
I1
sS'VEVK'
p1128
I1
sS'QPEL'
p1129
I1
sS'NKPW'
p1130
I3
sS'LTSF'
p1131
I1
sS'DPKT'
p1132
I1
sS'NKPL'
p1133
I1
sS'LTST'
p1134
I1
sS'FPCP'
p1135
I1
sS'TPQS'
p1136
I2
sS'LTSS'
p1137
I1
sS'FSMK'
p1138
I1
sS'LHKK'
p1139
I1
sS'IMIF'
p1140
I2
sS'PWQM'
p1141
I1
sS'IMIM'
p1142
I2
sS'IMIL'
p1143
I1
sS'ISIP'
p1144
I1
sS'LVTQ'
p1145
I1
sS'ANPP'
p1146
I1
sS'MMTI'
p1147
I1
sS'IMIS'
p1148
I1
sS'NPSH'
p1149
I1
sS'NSAP'
p1150
I2
sS'KYIY'
p1151
I1
sS'QLKM'
p1152
I7
sS'MMLS'
p1153
I2
sS'KSWT'
p1154
I1
sS'KPWE'
p1155
I5
sS'KPWF'
p1156
I1
sS'KPWG'
p1157
I1
sS'LDMS'
p1158
I2
sS'MERM'
p1159
I3
sS'LTTL'
p1160
I3
sS'TLMI'
p1161
I4
sS'YDFY'
p1162
I1
sS'FHTT'
p1163
I1
sS'TLML'
p1164
I1
sS'FTFH'
p1165
I1
sS'HIYY'
p1166
I1
sS'PMHP'
p1167
I1
sS'NWAM'
p1168
I1
sS'TVIL'
p1169
I1
sS'NHLT'
p1170
I1
sS'TVIP'
p1171
I4
sS'TTEK'
p1172
I1
sS'YHPP'
p1173
I2
sS'NHLF'
p1174
I1
sS'HKKP'
p1175
I1
sS'TKIC'
p1176
I2
sS'SKPS'
p1177
I1
sS'KLYY'
p1178
I1
sS'TKII'
p1179
I1
sS'KHIY'
p1180
I1
sS'TKIL'
p1181
I2
sS'TKIN'
p1182
I1
sS'PWYM'
p1183
I1
sS'SKPD'
p1184
I1
sS'FIPP'
p1185
I1
sS'KLYF'
p1186
I1
sS'DMSP'
p1187
I2
sS'TTTP'
p1188
I1
sS'MKMP'
p1189
I1
sS'HQHM'
p1190
I1
sS'FLTL'
p1191
I6
sS'FLTM'
p1192
I1
sS'NWKW'
p1193
I5
sS'MVFS'
p1194
I1
sS'PSKK'
p1195
I1
sS'NNPW'
p1196
I3
sS'FIFS'
p1197
I1
sS'SNMS'
p1198
I1
sS'PQKL'
p1199
I1
sS'FSSF'
p1200
I1
sS'PSKT'
p1201
I1
sS'MVFL'
p1202
I2
sS'FLTV'
p1203
I4
sS'MMLF'
p1204
I1
sS'MIMM'
p1205
I1
sS'NPWE'
p1206
I10
sS'QKPS'
p1207
I1
sS'TTWL'
p1208
I3
sS'SAEK'
p1209
I3
sS'PPST'
p1210
I1
sS'TIIL'
p1211
I1
sS'TIIM'
p1212
I2
sS'TTWE'
p1213
I2
sS'PPSP'
p1214
I4
sS'PPSS'
p1215
I4
sS'TTWF'
p1216
I1
sS'PPSM'
p1217
I1
sS'TWYT'
p1218
I1
sS'TIIT'
p1219
I3
sS'PPSN'
p1220
I6
sS'TIIS'
p1221
I3
sS'TIIP'
p1222
I4
sS'KWMP'
p1223
I8
sS'TTWP'
p1224
I1
sS'HYFP'
p1225
I2
sS'TTWT'
p1226
I1
sS'DTIY'
p1227
I1
sS'QLEL'
p1228
I1
sS'TFVM'
p1229
I1
sS'TSHP'
p1230
I1
sS'ISKY'
p1231
I4
sS'TKSW'
p1232
I1
sS'KDMK'
p1233
I1
sS'QLEF'
p1234
I2
sS'LPHS'
p1235
I7
sS'NKKN'
p1236
I1
sS'PKFS'
p1237
I1
sS'ISKH'
p1238
I10
sS'ISKE'
p1239
I2
sS'LKVL'
p1240
I1
sS'SLMI'
p1241
I2
sS'QLEP'
p1242
I1
sS'SLML'
p1243
I2
sS'ASPE'
p1244
I1
sS'TTLS'
p1245
I1
sS'SSMY'
p1246
I3
sS'LKMA'
p1247
I1
sS'LKML'
p1248
I5
sS'LKMM'
p1249
I1
sS'KSAK'
p1250
I2
sS'INTN'
p1251
I1
sS'LKMI'
p1252
I1
sS'LMNI'
p1253
I1
sS'SSMI'
p1254
I2
sS'FSAT'
p1255
I1
sS'DFYH'
p1256
I1
sS'SSMA'
p1257
I1
sS'SWNW'
p1258
I1
sS'ITPS'
p1259
I1
sS'PTKT'
p1260
I2
sS'PVSA'
p1261
I2
sS'PTKV'
p1262
I1
sS'PVSK'
p1263
I1
sS'TVWP'
p1264
I4
sS'MSHK'
p1265
I1
sS'PTKI'
p1266
I3
sS'PTKM'
p1267
I3
sS'ITPM'
p1268
I4
sS'KQQA'
p1269
I1
sS'PGPW'
p1270
I4
sS'QTFP'
p1271
I2
sS'MALS'
p1272
I1
sS'SFPC'
p1273
I1
sS'KQQT'
p1274
I1
sS'APML'
p1275
I1
sS'MPKS'
p1276
I1
sS'ITLF'
p1277
I7
sS'YITQ'
p1278
I2
sS'YITV'
p1279
I1
sS'KMIK'
p1280
I1
sS'ITLM'
p1281
I1
sS'WTLT'
p1282
I1
sS'ITLV'
p1283
I2
sS'HSAP'
p1284
I1
sS'TTLF'
p1285
I1
sS'FSYK'
p1286
I1
sS'FFYT'
p1287
I1
sS'ENKW'
p1288
I3
sS'LVLL'
p1289
I1
sS'CIFQ'
p1290
I1
sS'SQSL'
p1291
I2
sS'PDPW'
p1292
I1
sS'LVLF'
p1293
I1
sS'LVLG'
p1294
I1
sS'SQST'
p1295
I4
sS'PASP'
p1296
I3
sS'HNYL'
p1297
I1
sS'FLMQ'
p1298
I1
sS'PMTK'
p1299
I2
sS'TPIN'
p1300
I1
sS'KTQS'
p1301
I1
sS'SPEL'
p1302
I2
sS'HQTP'
p1303
I1
sS'VLKQ'
p1304
I1
sS'NPPA'
p1305
I1
sS'PMTQ'
p1306
I1
sS'LAPS'
p1307
I1
sS'LTTH'
p1308
I1
sS'LTTI'
p1309
I2
sS'FVLF'
p1310
I2
sS'LTTK'
p1311
I2
sS'QVDA'
p1312
I1
sS'LTTM'
p1313
I1
sS'KFTK'
p1314
I2
sS'KGFS'
p1315
I1
sS'NKWT'
p1316
I3
sS'LTTF'
p1317
I1
sS'LKLL'
p1318
I3
sS'SWMI'
p1319
I1
sS'SHQQ'
p1320
I1
sS'LTTP'
p1321
I2
sS'LTTQ'
p1322
I1
sS'LTTT'
p1323
I1
sS'LTTW'
p1324
I2
sS'RSSP'
p1325
I1
sS'PSSM'
p1326
I3
sS'EKPK'
p1327
I1
sS'FTSA'
p1328
I1
sS'PWPM'
p1329
I2
sS'SMAT'
p1330
I1
sS'NPPS'
p1331
I8
sS'QSKM'
p1332
I1
sS'LHTF'
p1333
I1
sS'KSLT'
p1334
I2
sS'NPPI'
p1335
I1
sS'KFTS'
p1336
I1
sS'PWPW'
p1337
I1
sS'STIP'
p1338
I1
sS'SDRT'
p1339
I1
sS'YPMP'
p1340
I3
sS'IFLT'
p1341
I4
sS'PWFY'
p1342
I2
sS'IFLP'
p1343
I1
sS'YLLI'
p1344
I1
sS'SPKS'
p1345
I2
sS'IPLK'
p1346
I1
sS'PWFT'
p1347
I3
sS'SFPN'
p1348
I1
sS'PWFS'
p1349
I6
sS'IYQL'
p1350
I1
sS'PWFM'
p1351
I5
sS'PWFL'
p1352
I1
sS'IYQS'
p1353
I1
sS'PWFN'
p1354
I1
sS'IFLA'
p1355
I1
sS'YPMH'
p1356
I1
sS'IFLL'
p1357
I1
sS'PWFF'
p1358
I6
sS'PWFA'
p1359
I8
sS'IFLH'
p1360
I3
sS'YPMN'
p1361
I1
sS'SMAL'
p1362
I1
sS'THST'
p1363
I1
sS'MKTS'
p1364
I2
sS'HLTP'
p1365
I2
sS'KWTK'
p1366
I51
sS'TSAN'
p1367
I1
sS'MKTD'
p1368
I1
sS'QLYN'
p1369
I1
sS'PSVK'
p1370
I1
sS'SFPP'
p1371
I1
sS'KKVI'
p1372
I1
sS'QTPS'
p1373
I1
sS'PWFI'
p1374
I2
sS'QTPW'
p1375
I2
sS'QTPT'
p1376
I1
sS'AWWL'
p1377
I1
sS'CWRP'
p1378
I1
sS'TKHN'
p1379
I1
sS'ESKW'
p1380
I7
sS'WNTT'
p1381
I1
sS'TKHS'
p1382
I1
sS'SPKL'
p1383
I2
sS'KHHN'
p1384
I1
sS'FIST'
p1385
I1
sS'TKHT'
p1386
I1
sS'WNTA'
p1387
I1
sS'SKQL'
p1388
I1
sS'MTIT'
p1389
I1
sS'PLLW'
p1390
I1
sS'QKQK'
p1391
I1
sS'THNT'
p1392
I1
sS'PENP'
p1393
I2
sS'YNPE'
p1394
I1
sS'KDPS'
p1395
I1
sS'LFNQ'
p1396
I1
sS'VWPT'
p1397
I6
sS'HLHP'
p1398
I2
sS'LFNN'
p1399
I2
sS'SNLL'
p1400
I1
sS'TNPL'
p1401
I1
sS'MNHL'
p1402
I1
sS'MTIM'
p1403
I1
sS'MTIN'
p1404
I1
sS'ILTL'
p1405
I8
sS'QKQQ'
p1406
I2
sS'MTIK'
p1407
I1
sS'FLGW'
p1408
I1
sS'AKPW'
p1409
I2
sS'SIKY'
p1410
I1
sS'LQMP'
p1411
I4
sS'PMLL'
p1412
I5
sS'FAIL'
p1413
I7
sS'AKPE'
p1414
I2
sS'LKPI'
p1415
I2
sS'HQQF'
p1416
I1
sS'FLGL'
p1417
I1
sS'NKET'
p1418
I1
sS'VVFN'
p1419
I1
sS'GHTS'
p1420
I1
sS'LFPI'
p1421
I2
sS'LFPV'
p1422
I1
sS'PQTP'
p1423
I1
sS'TYPM'
p1424
I1
sS'TYPL'
p1425
I1
sS'INTS'
p1426
I1
sS'EHKW'
p1427
I2
sS'LKLF'
p1428
I1
sS'HDLH'
p1429
I1
sS'FNST'
p1430
I1
sS'PCPW'
p1431
I1
sS'KQNT'
p1432
I6
sS'ILFF'
p1433
I2
sS'INSM'
p1434
I1
sS'LKLT'
p1435
I2
sS'LKLS'
p1436
I3
sS'ILFQ'
p1437
I9
sS'ILFS'
p1438
I2
sS'GPKW'
p1439
I1
sS'NSPT'
p1440
I1
sS'YSYT'
p1441
I1
sS'NSPS'
p1442
I1
sS'YSYP'
p1443
I2
sS'ITSV'
p1444
I1
sS'ITSW'
p1445
I1
sS'LMML'
p1446
I1
sS'YFCF'
p1447
I2
sS'LMMI'
p1448
I1
sS'TVTH'
p1449
I1
sS'ITSM'
p1450
I4
sS'QSPK'
p1451
I1
sS'TYLP'
p1452
I5
sS'GFVI'
p1453
I1
sS'CVFP'
p1454
I3
sS'VIPP'
p1455
I4
sS'LLWL'
p1456
I1
sS'YSWP'
p1457
I1
sS'TLNT'
p1458
I1
sS'TNNC'
p1459
I1
sS'NTCW'
p1460
I1
sS'TLNM'
p1461
I1
sS'TLNK'
p1462
I1
sS'IMMI'
p1463
I1
sS'PANK'
p1464
I1
sS'EEVE'
p1465
I1
sS'VIPL'
p1466
I1
sS'TNNP'
p1467
I3
sS'TVFL'
p1468
I1
sS'KNFC'
p1469
I1
sS'KLVP'
p1470
I1
sS'VLTT'
p1471
I3
sS'QPQQ'
p1472
I1
sS'NPLS'
p1473
I1
sS'VLTL'
p1474
I1
sS'SATF'
p1475
I1
sS'ARKE'
p1476
I1
sS'PQST'
p1477
I1
sS'IYSP'
p1478
I14
sS'FELI'
p1479
I1
sS'SQTF'
p1480
I2
sS'SHLP'
p1481
I1
sS'KVIK'
p1482
I1
sS'TIVS'
p1483
I2
sS'LFIK'
p1484
I1
sS'SQTN'
p1485
I1
sS'SHLH'
p1486
I2
sS'SHLK'
p1487
I1
sS'NSFP'
p1488
I1
sS'PQSP'
p1489
I1
sS'TNLP'
p1490
I1
sS'TIVA'
p1491
I1
sS'IASL'
p1492
I1
sS'TPMA'
p1493
I1
sS'MLMF'
p1494
I1
sS'FLLA'
p1495
I1
sS'ALSL'
p1496
I1
sS'MLMS'
p1497
I3
sS'MLMT'
p1498
I2
sS'PPFL'
p1499
I1
sS'KPTN'
p1500
I1
sS'YYNP'
p1501
I1
sS'PMSW'
p1502
I1
sS'TTHT'
p1503
I1
sS'ESWN'
p1504
I1
sS'TTHS'
p1505
I1
sS'PPTP'
p1506
I2
sS'ESWD'
p1507
I3
sS'CPTT'
p1508
I1
sS'IRLL'
p1509
I3
sS'YAWM'
p1510
I1
sS'PPTK'
p1511
I1
sS'PTTH'
p1512
I1
sS'TKHL'
p1513
I1
sS'TTHI'
p1514
I1
sS'NNKT'
p1515
I1
sS'IQPN'
p1516
I1
sS'PKIM'
p1517
I1
sS'QLDM'
p1518
I2
sS'IEKS'
p1519
I1
sS'IQPK'
p1520
I13
sS'QLDI'
p1521
I1
sS'PKIK'
p1522
I1
sS'LPIS'
p1523
I1
sS'QLDF'
p1524
I1
sS'LMSW'
p1525
I3
sS'PKIA'
p1526
I1
sS'SLLS'
p1527
I2
sS'ISLH'
p1528
I1
sS'ISLI'
p1529
I1
sS'PWFP'
p1530
I1
sS'SLLI'
p1531
I2
sS'ISLM'
p1532
I2
sS'PESI'
p1533
I1
sS'IEKN'
p1534
I1
sS'QLDT'
p1535
I42
sS'ISLF'
p1536
I2
sS'QLDP'
p1537
I1
sS'DSLQ'
p1538
I1
sS'LNSF'
p1539
I1
sS'SFSI'
p1540
I1
sS'LNSH'
p1541
I2
sS'LNSN'
p1542
I2
sS'PWAW'
p1543
I2
sS'FINI'
p1544
I2
sS'LLKN'
p1545
I2
sS'LLKI'
p1546
I1
sS'PWAM'
p1547
I1
sS'YPLE'
p1548
I1
sS'WEHK'
p1549
I2
sS'SFST'
p1550
I1
sS'YPLN'
p1551
I2
sS'WFFN'
p1552
I1
sS'QNTI'
p1553
I1
sS'TQTT'
p1554
I1
sS'KKWT'
p1555
I9
sS'LFIT'
p1556
I2
sS'VAMI'
p1557
I1
sS'KKWN'
p1558
I1
sS'NLST'
p1559
I1
sS'MIAP'
p1560
I1
sS'QNTV'
p1561
I1
sS'QNTP'
p1562
I6
sS'SYVY'
p1563
I1
sS'TSVV'
p1564
I2
sS'MISI'
p1565
I1
sS'DKLF'
p1566
I1
sS'TKDP'
p1567
I1
sS'KQRN'
p1568
I1
sS'QSSS'
p1569
I1
sS'PTTT'
p1570
I1
sS'APLN'
p1571
I1
sS'APLL'
p1572
I1
sS'MISS'
p1573
I1
sS'MFQL'
p1574
I3
sS'TEKA'
p1575
I2
sS'NITW'
p1576
I1
sS'EKNS'
p1577
I1
sS'QKQH'
p1578
I1
sS'WVCF'
p1579
I1
sS'FPST'
p1580
I1
sS'LAIF'
p1581
I1
sS'HLKT'
p1582
I4
sS'HLKV'
p1583
I1
sS'KKIY'
p1584
I1
sS'AQST'
p1585
I1
sS'HNLP'
p1586
I1
sS'LAII'
p1587
I1
sS'FQSK'
p1588
I1
sS'FQSN'
p1589
I1
sS'STKQ'
p1590
I1
sS'LKST'
p1591
I1
sS'KTWP'
p1592
I1
sS'LKSS'
p1593
I2
sS'LKSM'
p1594
I1
sS'LAWF'
p1595
I1
sS'SILF'
p1596
I1
sS'WFNI'
p1597
I1
sS'LYLT'
p1598
I1
sS'WTWN'
p1599
I1
sS'PNLN'
p1600
I1
sS'NYLR'
p1601
I1
sS'KIYL'
p1602
I23
sS'LFQL'
p1603
I9
sS'LFQS'
p1604
I2
sS'KIYS'
p1605
I20
sS'PNLS'
p1606
I1
sS'PNLQ'
p1607
I1
sS'QPMP'
p1608
I1
sS'LYLI'
p1609
I1
sS'NKDL'
p1610
I1
sS'SHPM'
p1611
I1
sS'FVMF'
p1612
I1
sS'NNYL'
p1613
I1
sS'NIFN'
p1614
I1
sS'IYLP'
p1615
I23
sS'IIPP'
p1616
I1
sS'VLAH'
p1617
I1
sS'WTAD'
p1618
I1
sS'VEPS'
p1619
I1
sS'WTAI'
p1620
I1
sS'QTMI'
p1621
I1
sS'SMLT'
p1622
I2
sS'IFYL'
p1623
I1
sS'IKWT'
p1624
I1
sS'NLNW'
p1625
I1
sS'IIWL'
p1626
I3
sS'AWFF'
p1627
I1
sS'HPEA'
p1628
I1
sS'YLYP'
p1629
I3
sS'IIWT'
p1630
I1
sS'KWKK'
p1631
I1
sS'SMLL'
p1632
I5
sS'SMLM'
p1633
I2
sS'PWSM'
p1634
I1
sS'SMLI'
p1635
I2
sS'TKYN'
p1636
I1
sS'SEEV'
p1637
I1
sS'TPSW'
p1638
I1
sS'LIQI'
p1639
I1
sS'LLFP'
p1640
I3
sS'LIQP'
p1641
I6
sS'YQTQ'
p1642
I1
sS'HSLH'
p1643
I1
sS'KVKT'
p1644
I1
sS'VISL'
p1645
I1
sS'FTKT'
p1646
I1
sS'WNIT'
p1647
I1
sS'ALFM'
p1648
I1
sS'IILY'
p1649
I1
sS'RSNP'
p1650
I1
sS'DPWN'
p1651
I1
sS'NPMT'
p1652
I2
sS'QEPE'
p1653
I1
sS'LFLV'
p1654
I1
sS'IFWG'
p1655
I1
sS'FWIS'
p1656
I1
sS'HKMP'
p1657
I1
sS'LPLM'
p1658
I6
sS'VSIL'
p1659
I1
sS'TWKW'
p1660
I1
sS'YPPS'
p1661
I3
sS'NKNM'
p1662
I1
sS'DTWN'
p1663
I1
sS'YNKP'
p1664
I3
sS'IFMT'
p1665
I1
sS'TKKS'
p1666
I1
sS'FAIM'
p1667
I1
sS'ISWL'
p1668
I2
sS'WNWF'
p1669
I1
sS'NWMW'
p1670
I1
sS'VSSA'
p1671
I1
sS'WNWL'
p1672
I1
sS'SLQI'
p1673
I1
sS'ILPN'
p1674
I2
sS'PSMY'
p1675
I1
sS'TFVT'
p1676
I1
sS'TSMT'
p1677
I1
sS'VSSQ'
p1678
I1
sS'WNWP'
p1679
I12
sS'AMTI'
p1680
I1
sS'PSMP'
p1681
I1
sS'MTHL'
p1682
I2
sS'PQIF'
p1683
I1
sS'TTIV'
p1684
I1
sS'LSTT'
p1685
I1
sS'LSTS'
p1686
I1
sS'FYLF'
p1687
I1
sS'LSTP'
p1688
I2
sS'LSTE'
p1689
I1
sS'MQPK'
p1690
I1
sS'TPYK'
p1691
I1
sS'TTIL'
p1692
I6
sS'NAPW'
p1693
I1
sS'TFTN'
p1694
I3
sS'NKQT'
p1695
I1
sS'VLNY'
p1696
I1
sS'EKAK'
p1697
I2
sS'NGLL'
p1698
I1
sS'SLKT'
p1699
I1
sS'LYNA'
p1700
I1
sS'SLKH'
p1701
I1
sS'ISMI'
p1702
I1
sS'ISMH'
p1703
I1
sS'TKWK'
p1704
I1
sS'PKHT'
p1705
I2
sS'TFTT'
p1706
I2
sS'IIIL'
p1707
I1
sS'SWLV'
p1708
I6
sS'EKWT'
p1709
I2
sS'CSIS'
p1710
I1
sS'THYH'
p1711
I1
sS'ILAL'
p1712
I2
sS'SIPN'
p1713
I1
sS'SSKP'
p1714
I1
sS'SSKH'
p1715
I1
sS'SIPP'
p1716
I1
sS'KAKP'
p1717
I2
sS'SSKM'
p1718
I1
sS'SSKL'
p1719
I2
sS'LYMN'
p1720
I1
sS'ILAT'
p1721
I2
sS'SWLI'
p1722
I6
sS'VPSK'
p1723
I1
sS'RRVK'
p1724
I1
sS'NSWT'
p1725
I1
sS'PLTL'
p1726
I1
sS'VLNT'
p1727
I1
sS'LMLL'
p1728
I2
sS'PLTK'
p1729
I1
sS'LMLT'
p1730
I1
sS'LMLY'
p1731
I1
sS'TLAL'
p1732
I2
sS'VTSH'
p1733
I1
sS'TSQS'
p1734
I6
sS'AFVI'
p1735
I1
sS'QSTQ'
p1736
I2
sS'QLQK'
p1737
I1
sS'LPTP'
p1738
I1
sS'TMEK'
p1739
I1
sS'QSTW'
p1740
I1
sS'LPTL'
p1741
I1
sS'LPTN'
p1742
I1
sS'NKVM'
p1743
I1
sS'QSTN'
p1744
I1
sS'KQST'
p1745
I1
sS'DLYT'
p1746
I1
sS'QSTE'
p1747
I4
sS'ITNN'
p1748
I1
sS'KMKM'
p1749
I1
sS'LAHT'
p1750
I2
sS'KMKN'
p1751
I4
sS'ILSV'
p1752
I1
sS'FMIL'
p1753
I3
sS'FMIM'
p1754
I1
sS'IVNF'
p1755
I1
sS'TANT'
p1756
I1
sS'KMKT'
p1757
I1
sS'KMKW'
p1758
I1
sS'PVLK'
p1759
I1
sS'YSLH'
p1760
I4
sS'YSLL'
p1761
I3
sS'TLSK'
p1762
I1
sS'FFIV'
p1763
I1
sS'ILVN'
p1764
I1
sS'FFII'
p1765
I1
sS'IAPM'
p1766
I1
sS'FFIM'
p1767
I5
sS'ETLK'
p1768
I1
sS'FFIF'
p1769
I1
sS'MHLY'
p1770
I1
sS'MLLA'
p1771
I2
sS'LSFI'
p1772
I1
sS'TPKL'
p1773
I1
sS'WLIT'
p1774
I1
sS'IPPQ'
p1775
I1
sS'ADFT'
p1776
I1
sS'MLLI'
p1777
I1
sS'WLIY'
p1778
I1
sS'IIHR'
p1779
I1
sS'TPKD'
p1780
I1
sS'MLLS'
p1781
I2
sS'MLLQ'
p1782
I1
sS'WLIF'
p1783
I3
sS'MLLT'
p1784
I9
sS'VMNH'
p1785
I1
sS'LSFT'
p1786
I8
sS'WLII'
p1787
I2
sS'TPKT'
p1788
I1
sS'WLIL'
p1789
I3
sS'WLIM'
p1790
I2
sS'NTNY'
p1791
I2
sS'LVVF'
p1792
I1
sS'LTVS'
p1793
I2
sS'KTHK'
p1794
I1
sS'NTNS'
p1795
I1
sS'FPNM'
p1796
I1
sS'FPNN'
p1797
I1
sS'YTYP'
p1798
I2
sS'ILFI'
p1799
I1
sS'GLSP'
p1800
I1
sS'LLLQ'
p1801
I1
sS'LTVI'
p1802
I4
sS'STWT'
p1803
I2
sS'TAWT'
p1804
I1
sS'IMLL'
p1805
I2
sS'KYLK'
p1806
I1
sS'KEPT'
p1807
I1
sS'NWLW'
p1808
I1
sS'STWS'
p1809
I4
sS'LEFA'
p1810
I1
sS'LFTL'
p1811
I1
sS'STWY'
p1812
I1
sS'IITL'
p1813
I2
sS'IMLA'
p1814
I1
sS'QMMP'
p1815
I2
sS'STWF'
p1816
I21
sS'STWL'
p1817
I13
sS'SMMN'
p1818
I1
sS'IMLT'
p1819
I1
sS'LEFT'
p1820
I1
sS'LNPN'
p1821
I10
sS'YLNW'
p1822
I1
sS'PCPT'
p1823
I1
sS'NTSI'
p1824
I1
sS'LNPH'
p1825
I3
sS'STYY'
p1826
I1
sS'LLLP'
p1827
I8
sS'LNPG'
p1828
I4
sS'LNPE'
p1829
I1
sS'LEPQ'
p1830
I1
sS'STYQ'
p1831
I1
sS'LLLI'
p1832
I3
sS'LLLK'
p1833
I1
sS'WEIK'
p1834
I1
sS'LLLN'
p1835
I1
sS'TPEP'
p1836
I1
sS'IIFL'
p1837
I1
sS'LNPW'
p1838
I1
sS'LNPT'
p1839
I2
sS'SPIN'
p1840
I1
sS'LNPS'
p1841
I5
sS'LLLF'
p1842
I1
sS'WGER'
p1843
I1
sS'AILV'
p1844
I7
sS'MYYH'
p1845
I1
sS'IKFN'
p1846
I2
sS'QQFM'
p1847
I1
sS'TQST'
p1848
I1
sS'MIFM'
p1849
I1
sS'RPKW'
p1850
I1
sS'MGHT'
p1851
I1
sS'MIFS'
p1852
I2
sS'IKFS'
p1853
I1
sS'MKVK'
p1854
I1
sS'AILL'
p1855
I1
sS'KKSC'
p1856
I3
sS'ANKI'
p1857
I1
sS'YPSN'
p1858
I3
sS'KHNT'
p1859
I2
sS'WMPF'
p1860
I1
sS'YPSS'
p1861
I2
sS'STEQ'
p1862
I1
sS'HTPL'
p1863
I1
sS'KHNL'
p1864
I1
sS'HMPQ'
p1865
I15
sS'KHNF'
p1866
I6
sS'MTKS'
p1867
I3
sS'PSLI'
p1868
I1
sS'SWAV'
p1869
I1
sS'PSLL'
p1870
I1
sS'PELT'
p1871
I6
sS'LFLP'
p1872
I1
sS'KFNY'
p1873
I1
sS'PELM'
p1874
I1
sS'PELL'
p1875
I1
sS'FSPN'
p1876
I1
sS'PELK'
p1877
I3
sS'LFLM'
p1878
I2
sS'MTKH'
p1879
I1
sS'ILVF'
p1880
I9
sS'FPWK'
p1881
I3
sS'KFNK'
p1882
I2
sS'PSLT'
p1883
I1
sS'QAPW'
p1884
I1
sS'VIFM'
p1885
I1
sS'INFY'
p1886
I1
sS'SIMV'
p1887
I1
sS'QKLI'
p1888
I1
sS'TSML'
p1889
I2
sS'TSMN'
p1890
I1
sS'FYFF'
p1891
I1
sS'TSMH'
p1892
I1
sS'TSMI'
p1893
I1
sS'DWPW'
p1894
I3
sS'TSMW'
p1895
I1
sS'TSMP'
p1896
I1
sS'WFAI'
p1897
I8
sS'AKRL'
p1898
I1
sS'SIMI'
p1899
I1
sS'SIML'
p1900
I1
sS'NIKF'
p1901
I2
sS'ALKS'
p1902
I1
sS'HNFY'
p1903
I5
sS'NKKT'
p1904
I1
sS'WVIF'
p1905
I2
sS'QMSP'
p1906
I1
sS'PNMP'
p1907
I1
sS'NIKP'
p1908
I2
sS'DRTV'
p1909
I1
sS'HSYS'
p1910
I2
sS'FCKP'
p1911
I1
sS'MAKR'
p1912
I1
sS'PLIL'
p1913
I1
sS'NWFW'
p1914
I1
sS'KSLK'
p1915
I1
sS'KSLI'
p1916
I1
sS'KALE'
p1917
I1
sS'SWMV'
p1918
I1
sS'FLYF'
p1919
I1
sS'LINS'
p1920
I1
sS'DFTW'
p1921
I1
sS'LINK'
p1922
I1
sS'DFTL'
p1923
I1
sS'LING'
p1924
I1
sS'INQT'
p1925
I1
sS'NWFL'
p1926
I1
sS'FLYQ'
p1927
I1
sS'LKNS'
p1928
I2
sS'WMVL'
p1929
I1
sS'WMVF'
p1930
I1
sS'PWDK'
p1931
I1
sS'IFIY'
p1932
I1
sS'MNQT'
p1933
I1
sS'SSHS'
p1934
I1
sS'SSHQ'
p1935
I1
sS'SQDK'
p1936
I1
sS'KVYL'
p1937
I1
sS'IFIT'
p1938
I1
sS'KPTP'
p1939
I4
sS'LYYM'
p1940
I1
sS'KPTT'
p1941
I2
sS'SYYS'
p1942
I1
sS'PQHM'
p1943
I2
sS'MAYI'
p1944
I1
sS'QYMP'
p1945
I2
sS'SNNK'
p1946
I1
sS'PALK'
p1947
I1
sS'LDPA'
p1948
I1
sS'LIPW'
p1949
I1
sS'WRLS'
p1950
I1
sS'IMSS'
p1951
I1
sS'NFCK'
p1952
I1
sS'SNNY'
p1953
I1
sS'LDPK'
p1954
I1
sS'PTTL'
p1955
I1
sS'PTTM'
p1956
I1
sS'PTTN'
p1957
I1
sS'PHSQ'
p1958
I1
sS'PTTI'
p1959
I1
sS'PHSS'
p1960
I2
sS'YPNH'
p1961
I1
sS'HFNP'
p1962
I1
sS'KLTT'
p1963
I1
sS'SCVF'
p1964
I3
sS'KLTS'
p1965
I1
sS'KLTM'
p1966
I1
sS'YMPQ'
p1967
I4
sS'KLTK'
p1968
I2
sS'KELS'
p1969
I3
sS'NNKI'
p1970
I2
sS'PHSL'
p1971
I5
sS'PTTQ'
p1972
I2
sS'FPQT'
p1973
I1
sS'HSPW'
p1974
I1
sS'TLTI'
p1975
I1
sS'YSMI'
p1976
I1
sS'TLTK'
p1977
I1
sS'TLTN'
p1978
I2
sS'LPKI'
p1979
I2
sS'WILP'
p1980
I1
sS'LSVM'
p1981
I1
sS'MLAS'
p1982
I1
sS'ISNH'
p1983
I2
sS'LPKT'
p1984
I1
sS'TLTP'
p1985
I1
sS'PAPW'
p1986
I13
sS'LLQP'
p1987
I1
sS'PAPP'
p1988
I1
sS'ISNY'
p1989
I1
sS'TPTT'
p1990
I2
sS'TPTW'
p1991
I1
sS'TPTP'
p1992
I2
sS'TITL'
p1993
I3
sS'IIIW'
p1994
I3
sS'VNNK'
p1995
I1
sS'LHQH'
p1996
I1
sS'TITP'
p1997
I1
sS'TITS'
p1998
I3
sS'TPTL'
p1999
I1
sS'SMHL'
p2000
I1
sS'TPTN'
p2001
I3
sS'TPTH'
p2002
I1
sS'TPTI'
p2003
I1
sS'TPTK'
p2004
I2
sS'TITT'
p2005
I1
sS'KTLK'
p2006
I5
sS'TIFI'
p2007
I1
sS'WQMP'
p2008
I1
sS'GQSS'
p2009
I1
sS'WAVF'
p2010
I2
sS'KKTK'
p2011
I1
sS'MSKY'
p2012
I1
sS'LSWL'
p2013
I2
sS'AMIL'
p2014
I1
sS'LMQP'
p2015
I1
sS'KSIK'
p2016
I1
sS'ELMT'
p2017
I1
sS'IKHL'
p2018
I1
sS'LMQL'
p2019
I6
sS'MKWT'
p2020
I3
sS'NWTW'
p2021
I1
sS'PKKV'
p2022
I1
sS'ILSF'
p2023
I1
sS'SVTL'
p2024
I1
sS'YLIT'
p2025
I1
sS'CPTP'
p2026
I1
sS'IPQS'
p2027
I1
sS'HPPT'
p2028
I2
sS'APPS'
p2029
I1
sS'LLMQ'
p2030
I2
sS'LLMP'
p2031
I3
sS'LNQE'
p2032
I1
sS'NSHL'
p2033
I2
sS'RVKK'
p2034
I1
sS'WPWQ'
p2035
I1
sS'TNNT'
p2036
I1
sS'LLMI'
p2037
I1
sS'PYKA'
p2038
I1
sS'IFII'
p2039
I1
sS'DTTT'
p2040
I1
sS'LLMA'
p2041
I1
sS'HPPA'
p2042
I2
sS'MPFL'
p2043
I1
sS'KLTN'
p2044
I1
sS'WPWY'
p2045
I1
sS'WPWT'
p2046
I20
sS'AIMT'
p2047
I1
sS'AIMV'
p2048
I1
sS'WPWP'
p2049
I1
sS'MDII'
p2050
I3
sS'WPWS'
p2051
I1
sS'WPWL'
p2052
I2
sS'WPWM'
p2053
I4
sS'VSML'
p2054
I1
sS'IKGR'
p2055
I1
sS'WPWH'
p2056
I9
sS'VSMI'
p2057
I4
sS'NMPS'
p2058
I1
sS'NMPQ'
p2059
I1
sS'MKWF'
p2060
I1
sS'WPWA'
p2061
I1
sS'VSMA'
p2062
I1
sS'TSPW'
p2063
I1
sS'MFWI'
p2064
I1
sS'ISPN'
p2065
I3
sS'NMFN'
p2066
I1
sS'QLPW'
p2067
I1
sS'YQPP'
p2068
I1
sS'HPNP'
p2069
I1
sS'KQTP'
p2070
I1
sS'YQPQ'
p2071
I1
sS'MPTK'
p2072
I1
sS'EKLY'
p2073
I1
sS'MPTI'
p2074
I2
sS'ITII'
p2075
I3
sS'ITIL'
p2076
I5
sS'ITIM'
p2077
I2
sS'NIVS'
p2078
I2
sS'YTNP'
p2079
I1
sS'FFTM'
p2080
I1
sS'LTEI'
p2081
I1
sS'FTYS'
p2082
I1
sS'VKTP'
p2083
I1
sS'KMTN'
p2084
I1
sS'ITIT'
p2085
I3
sS'VKTT'
p2086
I1
sS'ITIV'
p2087
I2
sS'KMTK'
p2088
I2
sS'MMPL'
p2089
I1
sS'MMPM'
p2090
I1
sS'YHSN'
p2091
I1
sS'FVTM'
p2092
I1
sS'TSLL'
p2093
I1
sS'FNNE'
p2094
I1
sS'TSLP'
p2095
I1
sS'FFSM'
p2096
I1
sS'SNKT'
p2097
I6
sS'PTSQ'
p2098
I4
sS'PNNS'
p2099
I1
sS'LTLV'
p2100
I1
sS'PQYM'
p2101
I2
sS'TKNY'
p2102
I3
sS'TWLI'
p2103
I4
sS'QMPQ'
p2104
I18
sS'TTFL'
p2105
I1
sS'TWLM'
p2106
I2
sS'TWLL'
p2107
I2
sS'SNKP'
p2108
I2
sS'TWLT'
p2109
I11
sS'TSTK'
p2110
I1
sS'SMHT'
p2111
I1
sS'MAHT'
p2112
I2
sS'HLWA'
p2113
I1
sS'KIIR'
p2114
I3
sS'PTWT'
p2115
I1
sS'NDTW'
p2116
I1
sS'LVWL'
p2117
I1
sS'MTWL'
p2118
I2
sS'ITFH'
p2119
I1
sS'LTWF'
p2120
I1
sS'KIIN'
p2121
I1
sS'SHVT'
p2122
I1
sS'KYMK'
p2123
I1
sS'SMNW'
p2124
I1
sS'SMNT'
p2125
I1
sS'NLLT'
p2126
I1
sS'SMNY'
p2127
I1
sS'NKTQ'
p2128
I1
sS'NKTP'
p2129
I1
sS'NKTS'
p2130
I2
sS'NKTT'
p2131
I5
sS'RMPQ'
p2132
I2
sS'ITFQ'
p2133
I1
sS'TESW'
p2134
I4
sS'VFLI'
p2135
I1
sS'WMER'
p2136
I1
sS'FNLN'
p2137
I1
sS'LFML'
p2138
I2
sS'NYPP'
p2139
I3
sS'NFLL'
p2140
I1
sS'ISLL'
p2141
I1
sS'NYPL'
p2142
I1
sS'DPSN'
p2143
I1
sS'KHSY'
p2144
I5
sS'NPKL'
p2145
I2
sS'KHST'
p2146
I1
sS'QIFP'
p2147
I1
sS'TSPN'
p2148
I1
sS'NLPS'
p2149
I1
sS'HKQN'
p2150
I1
sS'KLSK'
p2151
I3
sS'DCMP'
p2152
I1
sS'NLPW'
p2153
I1
sS'TQTL'
p2154
I1
sS'NPKP'
p2155
I2
sS'KHSA'
p2156
I1
sS'LHAK'
p2157
I1
sS'FITI'
p2158
I10
sS'MQLK'
p2159
I7
sS'PARK'
p2160
I1
sS'NYNK'
p2161
I3
sS'FITF'
p2162
I2
sS'KPEP'
p2163
I5
sS'FITS'
p2164
I1
sS'FWGE'
p2165
I1
sS'PQDK'
p2166
I1
sS'QKTP'
p2167
I1
sS'ILQP'
p2168
I2
sS'PNPW'
p2169
I12
sS'FSWV'
p2170
I2
sS'PNPK'
p2171
I3
sS'FSWL'
p2172
I8
sS'FSWM'
p2173
I2
sS'KFIK'
p2174
I1
sS'PKTA'
p2175
I1
sS'FLHL'
p2176
I3
sS'PNPE'
p2177
I1
sS'TRSN'
p2178
I1
sS'TVSA'
p2179
I1
sS'WAWP'
p2180
I2
sS'ELSK'
p2181
I3
sS'KNML'
p2182
I1
sS'TTKT'
p2183
I3
sS'TTKV'
p2184
I1
sS'TTKP'
p2185
I3
sS'TTKM'
p2186
I3
sS'MNPV'
p2187
I1
sS'TVSW'
p2188
I2
sS'TTKH'
p2189
I1
sS'HSNP'
p2190
I1
sS'WAWL'
p2191
I1
sS'TRSS'
p2192
I1
sS'FYNT'
p2193
I1
sS'KLAH'
p2194
I1
sS'IMAH'
p2195
I1
sS'TKWT'
p2196
I11
sS'NHFM'
p2197
I1
sS'PPWN'
p2198
I1
sS'HISP'
p2199
I2
sS'QKHS'
p2200
I1
sS'WLWT'
p2201
I1
sS'FAWW'
p2202
I1
sS'KNST'
p2203
I1
sS'LKII'
p2204
I3
sS'LKIK'
p2205
I1
sS'LKIL'
p2206
I2
sS'ILCS'
p2207
I1
sS'LKIN'
p2208
I1
sS'LIMP'
p2209
I2
sS'LIMI'
p2210
I2
sS'VFFL'
p2211
I1
sS'KAMT'
p2212
I1
sS'INPP'
p2213
I1
sS'QKFT'
p2214
I1
sS'LKIS'
p2215
I23
sS'LIMF'
p2216
I1
sS'KSMK'
p2217
I1
sS'VLFI'
p2218
I1
sS'WMWM'
p2219
I1
sS'QTNS'
p2220
I1
sS'PTAQ'
p2221
I1
sS'VTQL'
p2222
I1
sS'SSIT'
p2223
I1
sS'TMKM'
p2224
I1
sS'TMKN'
p2225
I1
sS'MPWT'
p2226
I1
sS'SLWV'
p2227
I1
sS'TSSP'
p2228
I1
sS'KPKT'
p2229
I1
sS'MWFS'
p2230
I1
sS'MPWE'
p2231
I1
sS'ATLF'
p2232
I1
sS'TMKV'
p2233
I1
sS'QLSP'
p2234
I2
sS'VILV'
p2235
I1
sS'IFCI'
p2236
I1
sS'LVFS'
p2237
I9
sS'KPKQ'
p2238
I2
sS'FNNW'
p2239
I1
sS'YTII'
p2240
I1
sS'LVFL'
p2241
I5
sS'IFSW'
p2242
I1
sS'HSSP'
p2243
I1
sS'HSST'
p2244
I1
sS'FHLK'
p2245
I1
sS'SLII'
p2246
I7
sS'SLIV'
p2247
I1
sS'SLIW'
p2248
I1
sS'SLIT'
p2249
I1
sS'SEHS'
p2250
I1
sS'LMPQ'
p2251
I15
sS'SLIP'
p2252
I1
sS'HSSH'
p2253
I1
sS'FTHT'
p2254
I1
sS'TDSL'
p2255
I1
sS'PMPQ'
p2256
I5
sS'LISW'
p2257
I2
sS'SAKI'
p2258
I2
sS'YYMP'
p2259
I1
sS'PMPW'
p2260
I1
sS'SAKG'
p2261
I1
sS'TISL'
p2262
I1
sS'MLNF'
p2263
I2
sS'PPIN'
p2264
I1
sS'TIST'
p2265
I1
sS'MLNS'
p2266
I2
sS'MLNT'
p2267
I1
sS'PPIA'
p2268
I1
sS'NFYF'
p2269
I1
sS'GLQK'
p2270
I2
sS'KTFI'
p2271
I1
sS'HLPP'
p2272
I4
sS'NTTV'
p2273
I4
sS'QFMP'
p2274
I2
sS'HLPT'
p2275
I1
sS'FPLM'
p2276
I1
sS'FPLA'
p2277
I1
sS'LQPK'
p2278
I3
sS'IIRL'
p2279
I3
sS'LLPT'
p2280
I1
sS'HVTW'
p2281
I1
sS'LLPP'
p2282
I1
sS'LLPQ'
p2283
I2
sS'LGHI'
p2284
I1
sS'LLPL'
p2285
I5
sS'LGHT'
p2286
I3
sS'LWLN'
p2287
I1
sS'LLPK'
p2288
I2
sS'LLPF'
p2289
I1
sS'IFFL'
p2290
I1
sS'SKYI'
p2291
I1
sS'LGFL'
p2292
I1
sS'GQHN'
p2293
I2
sS'SFLP'
p2294
I1
sS'GWLS'
p2295
I2
sS'LTFL'
p2296
I2
sS'VWLV'
p2297
I1
sS'LTFI'
p2298
I2
sS'LTFV'
p2299
I1
sS'IVLT'
p2300
I3
sS'LTFT'
p2301
I2
sS'IVLV'
p2302
I1
sS'HPQK'
p2303
I1
sS'LTFS'
p2304
I6
sS'IVLS'
p2305
I1
sS'KWFL'
p2306
I1
sS'SSSL'
p2307
I1
sS'IPPK'
p2308
I6
sS'LLNF'
p2309
I1
sS'SSSS'
p2310
I1
sS'IPNN'
p2311
I1
sS'TDNP'
p2312
I1
sS'APSP'
p2313
I1
sS'PING'
p2314
I1
sS'FTLL'
p2315
I2
sS'WEKK'
p2316
I5
sS'MTLF'
p2317
I4
sS'ESTS'
p2318
I1
sS'LLNT'
p2319
I1
sS'LLNS'
p2320
I3
sS'PINP'
p2321
I1
sS'PINW'
p2322
I2
sS'IKHQ'
p2323
I1
sS'LLNY'
p2324
I1
sS'TKTT'
p2325
I2
sS'TKTS'
p2326
I1
sS'TKTQ'
p2327
I4
sS'TKTP'
p2328
I3
sS'NFSL'
p2329
I1
sS'TKTY'
p2330
I5
sS'KPDP'
p2331
I1
sS'YLTT'
p2332
I1
sS'SMYQ'
p2333
I1
sS'SMYP'
p2334
I3
sS'TKTK'
p2335
I1
sS'KNPN'
p2336
I1
sS'PSNP'
p2337
I3
sS'FLIY'
p2338
I1
sS'HKND'
p2339
I1
sS'FLIT'
p2340
I5
sS'FLIV'
p2341
I1
sS'ILPW'
p2342
I1
sS'MTMV'
p2343
I1
sS'FSVT'
p2344
I1
sS'IWLL'
p2345
I3
sS'SIAF'
p2346
I1
sS'KHLT'
p2347
I1
sS'VDAK'
p2348
I1
sS'KHLY'
p2349
I1
sS'PSNK'
p2350
I10
sS'FLIF'
p2351
I2
sS'PSNL'
p2352
I1
sS'PKIL'
p2353
I3
sS'GRKW'
p2354
I1
sS'IITS'
p2355
I1
sS'KSTE'
p2356
I1
sS'SYKP'
p2357
I1
sS'KWNW'
p2358
I1
sS'FQTK'
p2359
I1
sS'DIII'
p2360
I3
sS'YYQP'
p2361
I1
sS'KDLK'
p2362
I1
sS'NKIS'
p2363
I1
sS'FCIF'
p2364
I1
sS'PLKT'
p2365
I1
sS'NKIT'
p2366
I1
sS'ALES'
p2367
I1
sS'PLKI'
p2368
I1
sS'KTTT'
p2369
I3
sS'KTTW'
p2370
I2
sS'FCIY'
p2371
I2
sS'NKIN'
p2372
I1
sS'QPND'
p2373
I1
sS'KTTS'
p2374
I1
sS'NKIM'
p2375
I1
sS'LKHK'
p2376
I1
sS'SISL'
p2377
I1
sS'SLLV'
p2378
I2
sS'LKHN'
p2379
I2
sS'THTT'
p2380
I1
sS'LSLS'
p2381
I1
sS'KAND'
p2382
I1
sS'FIKH'
p2383
I1
sS'THTN'
p2384
I1
sS'THTK'
p2385
I1
sS'NHIQ'
p2386
I1
sS'TAIL'
p2387
I1
sS'YNTP'
p2388
I1
sS'SSFL'
p2389
I1
sS'TYHP'
p2390
I1
sS'LILF'
p2391
I2
sS'KYDF'
p2392
I1
sS'LMAL'
p2393
I1
sS'SLLL'
p2394
I2
sS'LILL'
p2395
I2
sS'LILN'
p2396
I1
sS'LILI'
p2397
I2
sS'TTQL'
p2398
I1
sS'NSTN'
p2399
I1
sS'VIFI'
p2400
I1
sS'KDLY'
p2401
I1
sS'RLTP'
p2402
I1
sS'LDDS'
p2403
I1
sS'SSFP'
p2404
I1
sS'VIFL'
p2405
I1
sS'VIFN'
p2406
I2
sS'VVLT'
p2407
I1
sS'FNMM'
p2408
I1
sS'NYSY'
p2409
I1
sS'MVIL'
p2410
I1
sS'MVIM'
p2411
I2
sS'SPWL'
p2412
I2
sS'TWAI'
p2413
I1
sS'WIIN'
p2414
I2
sS'QKQP'
p2415
I1
sS'TWAV'
p2416
I1
sS'PQNT'
p2417
I1
sS'YQSK'
p2418
I1
sS'LRMP'
p2419
I1
sS'SNHY'
p2420
I2
sS'CFFY'
p2421
I1
sS'KSYL'
p2422
I1
sS'MILF'
p2423
I1
sS'YSNP'
p2424
I1
sS'AMLP'
p2425
I1
sS'NPHP'
p2426
I3
sS'NVTN'
p2427
I1
sS'HTLP'
p2428
I1
sS'NNEP'
p2429
I1
sS'HTLL'
p2430
I1
sS'HKPN'
p2431
I1
sS'NLQT'
p2432
I1
sS'PKIS'
p2433
I1
sS'TLVV'
p2434
I1
sS'AIFL'
p2435
I1
sS'INFP'
p2436
I1
sS'SLHL'
p2437
I2
sS'ERMD'
p2438
I3
sS'SLHN'
p2439
I1
sS'SLHQ'
p2440
I1
sS'SLHS'
p2441
I6
sS'FTIF'
p2442
I1
sS'SVLI'
p2443
I1
sS'LVIL'
p2444
I2
sS'LVIN'
p2445
I1
sS'FTIL'
p2446
I2
sS'ASPK'
p2447
I2
sS'FTII'
p2448
I1
sS'MFLV'
p2449
I1
sS'LVIF'
p2450
I2
sS'TPVS'
p2451
I2
sS'VLLT'
p2452
I1
sS'HRLQ'
p2453
I1
sS'MSWA'
p2454
I1
sS'MSWL'
p2455
I3
sS'LGWT'
p2456
I1
sS'MSWI'
p2457
I1
sS'HIQP'
p2458
I1
sS'SMER'
p2459
I1
sS'MSWT'
p2460
I1
sS'LNAL'
p2461
I1
sS'VLLA'
p2462
I1
sS'LAWW'
p2463
I1
sS'FYQT'
p2464
I1
sS'NKTA'
p2465
I1
sS'APWE'
p2466
I4
sS'FYQP'
p2467
I1
sS'MNWF'
p2468
I1
sS'TTLP'
p2469
I1
sS'MNWK'
p2470
I1
sS'TTLT'
p2471
I1
sS'MEMT'
p2472
I1
sS'TTLK'
p2473
I2
sS'TTLM'
p2474
I3
sS'TTLD'
p2475
I1
sS'CIYQ'
p2476
I2
sS'IMML'
p2477
I1
sS'QKIK'
p2478
I1
sS'SSTW'
p2479
I1
sS'FLIL'
p2480
I1
sS'SSTN'
p2481
I1
sS'PMAS'
p2482
I1
sS'PKLL'
p2483
I12
sS'TFSL'
p2484
I7
sS'SVVT'
p2485
I1
sS'LKKW'
p2486
I1
sS'SPNP'
p2487
I4
sS'SPNV'
p2488
I1
sS'YLKL'
p2489
I1
sS'KSKP'
p2490
I2
sS'SVVL'
p2491
I1
sS'SPNE'
p2492
I2
sS'SPND'
p2493
I1
sS'MTWK'
p2494
I1
sS'QGMT'
p2495
I1
sS'VLIV'
p2496
I1
sS'PKQN'
p2497
I1
sS'WELK'
p2498
I4
sS'IKYM'
p2499
I1
sS'FSKT'
p2500
I1
sS'PKQP'
p2501
I1
sS'PKQS'
p2502
I1
sS'PIMM'
p2503
I1
sS'PWMP'
p2504
I5
sS'KQVT'
p2505
I1
sS'ILFY'
p2506
I1
sS'ILMQ'
p2507
I4
sS'DNPW'
p2508
I1
sS'IANH'
p2509
I1
sS'LPWE'
p2510
I3
sS'KKET'
p2511
I1
sS'TAKS'
p2512
I1
sS'HNPW'
p2513
I3
sS'ITKP'
p2514
I1
sS'LPWM'
p2515
I1
sS'LPWI'
p2516
I1
sS'QRNP'
p2517
I1
sS'LPWT'
p2518
I1
sS'HNPE'
p2519
I5
sS'LVGL'
p2520
I1
sS'TAKM'
p2521
I1
sS'FKPT'
p2522
I1
sS'VSAQ'
p2523
I1
sS'MMNQ'
p2524
I1
sS'TQNT'
p2525
I1
sS'MMNY'
p2526
I2
sS'MIKH'
p2527
I1
sS'SYLP'
p2528
I1
sS'TQNM'
p2529
I1
sS'VSAE'
p2530
I2
sS'SKLS'
p2531
I1
sS'SKLT'
p2532
I2
sS'SNYS'
p2533
I1
sS'TWNM'
p2534
I1
sS'NILN'
p2535
I2
sS'NILL'
p2536
I1
sS'NTST'
p2537
I2
sS'KTSL'
p2538
I1
sS'KTSM'
p2539
I1
sS'KTSP'
p2540
I1
sS'KTSQ'
p2541
I3
sS'NTSM'
p2542
I1
sS'KTST'
p2543
I2
sS'SGGE'
p2544
I1
sS'SNYH'
p2545
I2
sS'IVFS'
p2546
I1
sS'FTKP'
p2547
I1
sS'TWNW'
p2548
I1
sS'HNFH'
p2549
I1
sS'KKSG'
p2550
I1
sS'IVFQ'
p2551
I5
sS'WFPI'
p2552
I1
sS'FVIL'
p2553
I1
sS'KIKT'
p2554
I1
sS'LFSS'
p2555
I1
sS'LTYS'
p2556
I1
sS'FVIF'
p2557
I1
sS'KIKS'
p2558
I1
sS'KIKL'
p2559
I1
sS'KKSQ'
p2560
I1
sS'LYTN'
p2561
I1
sS'KIKK'
p2562
I1
sS'HNFP'
p2563
I1
sS'KTES'
p2564
I4
sS'IMSW'
p2565
I1
sS'SFYL'
p2566
I1
sS'IYHK'
p2567
I1
sS'IISM'
p2568
I1
sS'IISL'
p2569
I2
sS'STTT'
p2570
I4
sS'FPMN'
p2571
I1
sS'LLQS'
p2572
I1
sS'STTP'
p2573
I1
sS'SPQG'
p2574
I1
sS'KLHA'
p2575
I1
sS'LLQL'
p2576
I1
sS'STTI'
p2577
I1
sS'STTK'
p2578
I1
sS'IISS'
p2579
I2
sS'TEQS'
p2580
I1
sS'IMSM'
p2581
I6
sS'IISW'
p2582
I1
sS'SNKN'
p2583
I1
sS'CMPQ'
p2584
I1
sS'PQMM'
p2585
I2
sS'FNNN'
p2586
I1
sS'SNKI'
p2587
I1
sS'NFNS'
p2588
I1
sS'ILSL'
p2589
I1
sS'ILSM'
p2590
I15
sS'YQPR'
p2591
I1
sS'ILSH'
p2592
I4
sS'PQMA'
p2593
I6
sS'THKQ'
p2594
I1
sS'ILST'
p2595
I1
sS'LFKP'
p2596
I1
sS'PNVT'
p2597
I1
sS'ILSS'
p2598
I1
sS'SNKY'
p2599
I1
sS'TNKK'
p2600
I1
sS'LYFM'
p2601
I1
sS'TNKN'
p2602
I1
sS'PQMP'
p2603
I4
sS'ILSY'
p2604
I1
sS'NPIP'
p2605
I1
sS'TKAN'
p2606
I1
sS'KHQT'
p2607
I1
sS'YFPT'
p2608
I2
sS'PTWL'
p2609
I1
sS'TYYY'
p2610
I1
sS'IMAM'
p2611
I1
sS'IFSI'
p2612
I2
sS'LFSW'
p2613
I2
sS'YPTH'
p2614
I1
sS'IFSL'
p2615
I2
sS'IFSM'
p2616
I2
sS'FIVW'
p2617
I1
sS'FIVV'
p2618
I1
sS'YKAM'
p2619
I1
sS'IYFI'
p2620
I1
sS'AHTK'
p2621
I1
sS'WHSK'
p2622
I1
sS'FIVF'
p2623
I5
sS'IFSP'
p2624
I1
sS'AWLM'
p2625
I1
sS'ANHS'
p2626
I1
sS'YPTP'
p2627
I1
sS'KPKP'
p2628
I1
sS'AHTF'
p2629
I3
sS'KNSA'
p2630
I2
sS'VSWL'
p2631
I2
sS'NCPT'
p2632
I1
sS'SMKM'
p2633
I1
sS'HKAF'
p2634
I1
sS'NNTA'
p2635
I1
sS'HTSP'
p2636
I1
sS'VMGH'
p2637
I1
sS'ASLM'
p2638
I1
sS'PTAK'
p2639
I1
sS'LSPP'
p2640
I1
sS'TTMK'
p2641
I1
sS'LSPI'
p2642
I1
sS'MNVP'
p2643
I1
sS'NNSP'
p2644
I1
sS'LSPM'
p2645
I2
sS'TTME'
p2646
I1
sS'NWQW'
p2647
I2
sS'PKLV'
p2648
I1
sS'WWLL'
p2649
I1
sS'PKLT'
p2650
I2
sS'ASPL'
p2651
I1
sS'KQEP'
p2652
I1
sS'NGHF'
p2653
I1
sS'TFPN'
p2654
I4
sS'WSIT'
p2655
I4
sS'PKLA'
p2656
I1
sS'HYHP'
p2657
I1
sS'PFTP'
p2658
I1
sS'YIYP'
p2659
I1
sS'PKLK'
p2660
I1
sS'PKLH'
p2661
I1
sS'PKLM'
p2662
I1
sS'KLSM'
p2663
I1
sS'SITI'
p2664
I4
sS'TMIA'
p2665
I1
sS'SITL'
p2666
I3
sS'LKKS'
p2667
I1
sS'SITN'
p2668
I1
sS'ILMT'
p2669
I1
sS'EKSS'
p2670
I1
sS'HFML'
p2671
I2
sS'WNMP'
p2672
I1
sS'EKSK'
p2673
I2
sS'KSKE'
p2674
I1
sS'EIKW'
p2675
I1
sS'TFPA'
p2676
I1
sS'TNYI'
p2677
I1
sS'TNYH'
p2678
I2
sS'PLPK'
p2679
I1
sS'PLPM'
p2680
I1
sS'MPQI'
p2681
I1
sS'VTWQ'
p2682
I1
sS'WMIF'
p2683
I1
sS'HSLP'
p2684
I10
sS'LIKT'
p2685
I1
sS'QWLM'
p2686
I2
sS'LYTP'
p2687
I1
sS'PLPW'
p2688
I1
sS'QQTP'
p2689
I1
sS'PPKF'
p2690
I2
sS'TMIL'
p2691
I4
sS'DKKV'
p2692
I1
sS'DKKW'
p2693
I1
sS'WLML'
p2694
I1
sS'WLMM'
p2695
I1
sS'PPKI'
p2696
I1
sS'MITP'
p2697
I2
sS'NGFV'
p2698
I1
sS'MITL'
p2699
I1
sS'PPKV'
p2700
I7
sS'MPQL'
p2701
I100
sS'MPQM'
p2702
I9
sS'WLMP'
p2703
I6
sS'GHIF'
p2704
I1
sS'TMIS'
p2705
I1
sS'TMIT'
p2706
I2
sS'QHMP'
p2707
I3
sS'QTLK'
p2708
I1
sS'QTLI'
p2709
I1
sS'ISSM'
p2710
I3
sS'ISSL'
p2711
I1
sS'LPPK'
p2712
I2
sS'LPPL'
p2713
I1
sS'ISSH'
p2714
I1
sS'LPPQ'
p2715
I10
sS'LPPR'
p2716
I1
sS'LPPS'
p2717
I6
sS'ISSQ'
p2718
I1
sS'WVFL'
p2719
I1
sS'MFTW'
p2720
I1
sS'LPPW'
p2721
I1
sS'KVTS'
p2722
I1
sS'TLWW'
p2723
I1
sS'YQLK'
p2724
I1
sS'IELK'
p2725
I1
sS'KIEK'
p2726
I1
sS'FTNE'
p2727
I4
sS'IGHF'
p2728
I1
sS'WLTM'
p2729
I4
sS'SQIL'
p2730
I1
sS'LPFT'
p2731
I1
sS'WWSN'
p2732
I1
sS'VFSI'
p2733
I1
sS'MLPT'
p2734
I1
sS'MLPS'
p2735
I1
sS'LAVI'
p2736
I1
sS'TPWT'
p2737
I7
sS'SPKT'
p2738
I1
sS'MSPM'
p2739
I1
sS'TPWN'
p2740
I3
sS'TPWH'
p2741
I1
sS'TPWK'
p2742
I1
sS'MSPW'
p2743
I2
sS'TPWE'
p2744
I17
sS'LAVV'
p2745
I3
sS'TPWF'
p2746
I3
sS'TPWA'
p2747
I2
sS'KMAK'
p2748
I1
sS'WFSI'
p2749
I4
sS'WFSL'
p2750
I1
sS'ETTL'
p2751
I1
sS'WPTM'
p2752
I3
sS'KILS'
p2753
I6
sS'WPTI'
p2754
I3
sS'NMCK'
p2755
I1
sS'WPTT'
p2756
I1
sS'KMAY'
p2757
I1
sS'KILK'
p2758
I1
sS'YILM'
p2759
I1
sS'KTDN'
p2760
I1
sS'KKPS'
p2761
I2
sS'IIPT'
p2762
I4
sS'QMAP'
p2763
I6
sS'NKYL'
p2764
I1
sS'YLDP'
p2765
I1
sS'YLPL'
p2766
I20
sS'SMIT'
p2767
I1
sS'SMII'
p2768
I5
sS'LKTQ'
p2769
I2
sS'YPEN'
p2770
I2
sS'SMIL'
p2771
I8
sS'YKPN'
p2772
I1
sS'YVYP'
p2773
I1
sS'YYYH'
p2774
I1
sS'QPQN'
p2775
I1
sS'WAMM'
p2776
I1
sS'LALF'
p2777
I8
sS'MFSA'
p2778
I1
sS'WLSL'
p2779
I2
sS'LNLA'
p2780
I1
sS'LNLF'
p2781
I1
sS'WAMP'
p2782
I1
sS'YLPH'
p2783
I7
sS'MKPT'
p2784
I1
sS'PWLM'
p2785
I2
sS'PWLL'
p2786
I2
sS'SPKP'
p2787
I3
sS'SPMN'
p2788
I1
sS'PWLF'
p2789
I2
sS'PKPM'
p2790
I4
sS'TFLI'
p2791
I1
sS'TFLL'
p2792
I2
sS'PKPW'
p2793
I1
sS'TKPH'
p2794
I1
sS'SPMS'
p2795
I1
sS'PWLT'
p2796
I1
sS'AWMV'
p2797
I1
sS'TKVY'
p2798
I1
sS'IMFM'
p2799
I1
sS'PTPP'
p2800
I2
sS'SVML'
p2801
I1
sS'NLAW'
p2802
I1
sS'FIYL'
p2803
I1
sS'TKVL'
p2804
I1
sS'LHLH'
p2805
I2
sS'PNPT'
p2806
I2
sS'LHLK'
p2807
I3
sS'IMFQ'
p2808
I3
sS'IMFS'
p2809
I3
sS'FIYA'
p2810
I1
sS'NHYY'
p2811
I2
sS'KPHN'
p2812
I2
sS'FSWI'
p2813
I1
sS'IFPM'
p2814
I1
sS'QKWT'
p2815
I1
sS'SKMT'
p2816
I1
sS'AFNE'
p2817
I1
sS'NQLN'
p2818
I1
sS'TMPH'
p2819
I1
sS'AWWI'
p2820
I1
sS'TSIT'
p2821
I1
sS'FKWM'
p2822
I1
sS'TWQW'
p2823
I1
sS'WIFF'
p2824
I1
sS'VMTH'
p2825
I1
sS'NTPS'
p2826
I2
sS'NTPW'
p2827
I8
sS'THIF'
p2828
I1
sS'TAVW'
p2829
I2
sS'FSWF'
p2830
I1
sS'NFPQ'
p2831
I1
sS'VMTW'
p2832
I1
sS'NFPS'
p2833
I1
sS'TNWQ'
p2834
I2
sS'KSHV'
p2835
I1
sS'ILLT'
p2836
I1
sS'KNMF'
p2837
I1
sS'QIEK'
p2838
I1
sS'ILLP'
p2839
I2
sS'ILLN'
p2840
I1
sS'ILLM'
p2841
I1
sS'ILLL'
p2842
I1
sS'PEVK'
p2843
I1
sS'ILLI'
p2844
I1
sS'MTQK'
p2845
I1
sS'ILLF'
p2846
I2
sS'HYYP'
p2847
I2
sS'MCKQ'
p2848
I1
sS'LDFT'
p2849
I1
sS'PLQM'
p2850
I5
sS'LFFL'
p2851
I1
sS'YFMP'
p2852
I1
sS'LFFI'
p2853
I1
sS'FNYP'
p2854
I1
sS'LFFS'
p2855
I1
sS'PLQS'
p2856
I2
sS'PPRM'
p2857
I1
sS'LFQT'
p2858
I1
sS'PQLL'
p2859
I1
sS'PQLN'
p2860
I47
sS'GPWF'
p2861
I4
sS'LDTS'
p2862
I39
sS'PQLE'
p2863
I4
sS'PQLD'
p2864
I46
sS'WTWP'
p2865
I18
sS'TNHL'
p2866
I1
sS'PQLS'
p2867
I2
sS'GFLG'
p2868
I1
sS'EQKW'
p2869
I1
sS'PTPQ'
p2870
I2
sS'KEHK'
p2871
I1
sS'PTPT'
p2872
I2
sS'PTPV'
p2873
I2
sS'PTPW'
p2874
I9
sS'PTPY'
p2875
I1
sS'VIVL'
p2876
I3
sS'NYLF'
p2877
I1
sS'ENPM'
p2878
I2
sS'PTPE'
p2879
I1
sS'HTNL'
p2880
I1
sS'HAKP'
p2881
I2
sS'PTPK'
p2882
I1
sS'MNGL'
p2883
I1
sS'MNPP'
p2884
I1
sS'EPKF'
p2885
I1
sS'SKKS'
p2886
I3
sS'SLFM'
p2887
I1
sS'SLFL'
p2888
I1
sS'SLFI'
p2889
I5
sS'FPAP'
p2890
I1
sS'HSTP'
p2891
I2
sS'SLFC'
p2892
I1
sS'EPKH'
p2893
I2
sS'EPKW'
p2894
I4
sS'EPKT'
p2895
I1
sS'MKNY'
p2896
I3
sS'EPKS'
p2897
I3
sS'TNTT'
p2898
I2
sS'YQMP'
p2899
I2
sS'PHKH'
p2900
I1
sS'SANP'
p2901
I1
sS'PTLL'
p2902
I1
sS'TTPW'
p2903
I7
sS'LSMP'
p2904
I1
sS'YYHS'
p2905
I1
sS'YYHP'
p2906
I1
sS'TTPS'
p2907
I1
sS'LSML'
p2908
I4
sS'STQN'
p2909
I1
sS'TTPN'
p2910
I1
sS'TPPK'
p2911
I2
sS'LSMI'
p2912
I4
sS'TTPK'
p2913
I2
sS'TIPQ'
p2914
I1
sS'LSME'
p2915
I1
sS'LSMF'
p2916
I7
sS'PTLY'
p2917
I1
sS'MLSL'
p2918
I1
sS'VYLP'
p2919
I1
sS'KNNK'
p2920
I1
sS'KLNW'
p2921
I2
sS'WEAK'
p2922
I1
sS'TLFL'
p2923
I5
sS'TLFI'
p2924
I25
sS'TLFV'
p2925
I2
sS'VTTT'
p2926
I1
sS'NTIS'
p2927
I1
sS'KLNI'
p2928
I1
sS'MEKT'
p2929
I1
sS'NKVT'
p2930
I1
sS'VYLN'
p2931
I1
sS'TLFY'
p2932
I2
sS'LSSF'
p2933
I1
sS'HIPN'
p2934
I1
sS'AMMT'
p2935
I1
sS'NWPW'
p2936
I12
sS'STQT'
p2937
I1
sS'WSNN'
p2938
I1
sS'VTNH'
p2939
I1
sS'TTNT'
p2940
I2
sS'EPSP'
p2941
I2
sS'TTNP'
p2942
I2
sS'IVIL'
p2943
I1
sS'LTIL'
p2944
I5
sS'LNMY'
p2945
I1
sS'IYLL'
p2946
I1
sS'LTII'
p2947
I5
sS'VYPN'
p2948
I1
sS'SFIS'
p2949
I1
sS'TILP'
p2950
I2
sS'SFIM'
p2951
I1
sS'ICSL'
p2952
I2
sS'LTIT'
p2953
I1
sS'LTIS'
p2954
I1
sS'IVIS'
p2955
I1
sS'LLAL'
p2956
I3
sS'WENK'
p2957
I3
sS'GHFQ'
p2958
I1
sS'PKSE'
p2959
I1
sS'TCWR'
p2960
I1
sS'WFSM'
p2961
I2
sS'MFIV'
p2962
I1
sS'SPLL'
p2963
I2
sS'PKSL'
p2964
I2
sS'PKSM'
p2965
I2
sS'SPLS'
p2966
I14
sS'PKSQ'
p2967
I1
sS'VWIS'
p2968
I1
sS'PKST'
p2969
I1
sS'LLAW'
p2970
I1
sS'IKKL'
p2971
I1
sS'GHFM'
p2972
I1
sS'LLAS'
p2973
I1
sS'IKKK'
p2974
I1
sS'KVSS'
p2975
I1
sS'WLLA'
p2976
I3
sS'EKHK'
p2977
I3
sS'QLLP'
p2978
I1
sS'WLLI'
p2979
I1
sS'WLLM'
p2980
I1
sS'WGPK'
p2981
I1
sS'KKKN'
p2982
I1
sS'WLLN'
p2983
I1
sS'PPLP'
p2984
I1
sS'KSTP'
p2985
I1
sS'PPLT'
p2986
I1
sS'WLLT'
p2987
I3
sS'SLTF'
p2988
I1
sS'MATE'
p2989
I1
sS'HSFY'
p2990
I1
sS'TILA'
p2991
I2
sS'LPQH'
p2992
I2
sS'ATIL'
p2993
I1
sS'LPQM'
p2994
I1
sS'SLTT'
p2995
I3
sS'LPQQ'
p2996
I9
sS'LPQP'
p2997
I1
sS'ISTT'
p2998
I1
sS'MSMI'
p2999
I4
sS'KMPN'
p3000
I2
sS'ITPT'
p3001
I1
sS'ISTY'
p3002
I1
sS'LCSI'
p3003
I1
sS'TSHK'
p3004
I1
sS'MIIL'
p3005
I1
sS'LLSF'
p3006
I8
sS'LWAI'
p3007
I1
sS'KSMT'
p3008
I2
sS'LLSM'
p3009
I2
sS'LLSL'
p3010
I3
sS'GHTF'
p3011
I3
sS'LHSL'
p3012
I6
sS'LQSM'
p3013
I3
sS'LLSW'
p3014
I1
sS'MKMK'
p3015
I5
sS'SPTP'
p3016
I2
sS'MIIT'
p3017
I2
sS'LWAW'
p3018
I1
sS'MIIQ'
p3019
I1
sS'MIIS'
p3020
I3
sS'TWPW'
p3021
I19
sS'KTQL'
p3022
I2
sS'TWPT'
p3023
I1
sS'KTQK'
p3024
I5
sS'NINW'
p3025
I1
sS'TQKQ'
p3026
I5
sS'TQLH'
p3027
I1
sS'TQLK'
p3028
I9
sS'LLFT'
p3029
I1
sS'MALL'
p3030
I1
sS'TQLP'
p3031
I1
sS'NINK'
p3032
I1
sS'TQLY'
p3033
I1
sS'AKWT'
p3034
I1
sS'LVSM'
p3035
I2
sS'KIMS'
p3036
I1
sS'QSKL'
p3037
I1
sS'FTSM'
p3038
I1
sS'QSKI'
p3039
I1
sS'MKSL'
p3040
I1
sS'EHKN'
p3041
I1
sS'FTSV'
p3042
I1
sS'FTST'
p3043
I1
sS'YTTI'
p3044
I1
sS'HLSP'
p3045
I1
sS'KIMA'
p3046
I1
sS'AKEH'
p3047
I1
sS'IYIL'
p3048
I1
sS'IIQP'
p3049
I8
sS'WTKN'
p3050
I3
sS'PSPT'
p3051
I1
sS'WTKI'
p3052
I44
sS'YIML'
p3053
I2
sS'FMVI'
p3054
I1
sS'IMQL'
p3055
I1
sS'KKVM'
p3056
I1
sS'PSPQ'
p3057
I1
sS'LQME'
p3058
I1
sS'WTKT'
p3059
I5
sS'WTKV'
p3060
I1
sS'QVEP'
p3061
I1
sS'FHKY'
p3062
I1
sS'WTKS'
p3063
I1
sS'LFII'
p3064
I11
sS'MTNC'
p3065
I1
sS'LFIM'
p3066
I7
sS'LFIL'
p3067
I13
sS'VFPW'
p3068
I3
sS'VMAH'
p3069
I1
sS'FLLL'
p3070
I2
sS'FLLM'
p3071
I2
sS'FLLI'
p3072
I2
sS'MTNP'
p3073
I1
sS'TNIK'
p3074
I1
sS'PQSM'
p3075
I4
sS'SWPW'
p3076
I1
sS'LFIV'
p3077
I6
sS'GERR'
p3078
I1
sS'NLTT'
p3079
I1
sS'PTQV'
p3080
I1
sS'NFHF'
p3081
I1
sS'SPES'
p3082
I1
sS'TEKH'
p3083
I1
sS'SPSN'
p3084
I1
sS'ANDC'
p3085
I1
sS'NPGP'
p3086
I4
sS'TEKT'
p3087
I3
sS'TQVD'
p3088
I1
sS'TQKH'
p3089
I1
sS'TEKS'
p3090
I2
sS'NYTY'
p3091
I1
sS'FSSK'
p3092
I1
sS'KPIN'
p3093
I1
sS'SMIM'
p3094
I3
sS'ALFC'
p3095
I1
sS'SMTT'
p3096
I2
sS'ALFL'
p3097
I3
sS'ALFI'
p3098
I3
sS'NKNN'
p3099
I1
sS'TKQV'
p3100
I1
sS'LHMP'
p3101
I3
sS'SMTM'
p3102
I1
sS'NLFL'
p3103
I1
sS'SMTI'
p3104
I1
sS'SAGQ'
p3105
I1
sS'KPIS'
p3106
I1
sS'IFQL'
p3107
I9
sS'VGLS'
p3108
I1
sS'EMTW'
p3109
I1
sS'AQNL'
p3110
I1
sS'STSF'
p3111
I2
sS'QITP'
p3112
I1
sS'EIWY'
p3113
I1
sS'YSPL'
p3114
I13
sS'YSPN'
p3115
I2
sS'ELIG'
p3116
I1
sS'YSPH'
p3117
I1
sS'MHPE'
p3118
I1
sS'KNIN'
p3119
I2
sS'ELIN'
p3120
I1
sS'PRSV'
p3121
I1
sS'WASV'
p3122
I1
sS'CKPW'
p3123
I1
sS'KLMN'
p3124
I1
sS'ELIS'
p3125
I1
sS'MNTP'
p3126
I1
sS'WWIV'
p3127
I1
sS'WWII'
p3128
I2
sS'QKLN'
p3129
I1
sS'PMNG'
p3130
I1
sS'WYWP'
p3131
I1
sS'KSGG'
p3132
I1
sS'HFQV'
p3133
I1
sS'PMNW'
p3134
I1
sS'LIWA'
p3135
I1
sS'PMNP'
p3136
I1
sS'VMFI'
p3137
I1
sS'FSIT'
p3138
I2
sS'YHKP'
p3139
I1
sS'FSII'
p3140
I1
sS'FSIM'
p3141
I3
sS'FSIA'
p3142
I1
sS'FSIF'
p3143
I1
sS'THPE'
p3144
I1
sS'LMFS'
p3145
I1
sS'LIIL'
p3146
I1
sS'LMFW'
p3147
I1
sS'SWFF'
p3148
I1
sS'LIII'
p3149
I1
sS'LIIF'
p3150
I1
sS'TILL'
p3151
I2
sS'VIKP'
p3152
I1
sS'MAPI'
p3153
I4
sS'MAPL'
p3154
I2
sS'SSEE'
p3155
I1
sS'SWFV'
p3156
I1
sS'SWFW'
p3157
I1
sS'PLRM'
p3158
I1
sS'LIIQ'
p3159
I7
sS'KTTL'
p3160
I1
sS'EPTT'
p3161
I2
sS'EPTS'
p3162
I4
sS'EPTP'
p3163
I3
sS'MFSL'
p3164
I1
sS'NNCP'
p3165
I1
sS'MSML'
p3166
I1
sS'GGEK'
p3167
I1
sS'EPTA'
p3168
I1
sS'FNQL'
p3169
I1
sS'NMMN'
p3170
I1
sS'NSMP'
p3171
I1
sS'THPQ'
p3172
I1
sS'RTLP'
p3173
I1
sS'SLSL'
p3174
I1
sS'MPST'
p3175
I1
sS'SLSS'
p3176
I1
sS'AVIP'
p3177
I1
sS'NSMN'
p3178
I1
sS'NSML'
p3179
I1
sS'LMTH'
p3180
I1
sS'VFLF'
p3181
I2
sS'LMTL'
p3182
I1
sS'YMNV'
p3183
I1
sS'ETKA'
p3184
I1
sS'VFLL'
p3185
I1
sS'IHRL'
p3186
I1
sS'FTLT'
p3187
I2
sS'LIGH'
p3188
I1
sS'PKPE'
p3189
I1
sS'VTKP'
p3190
I1
sS'VFLT'
p3191
I7
sS'SQKL'
p3192
I1
sS'VFLV'
p3193
I1
sS'TLYL'
p3194
I1
sS'LMTT'
p3195
I1
sS'LMTW'
p3196
I1
sS'HSWF'
p3197
I1
sS'LSLW'
p3198
I1
sS'TTQT'
p3199
I1
sS'PTMK'
p3200
I1
sS'FFLF'
p3201
I1
sS'PTMI'
p3202
I3
sS'LSLP'
p3203
I22
sS'WEMK'
p3204
I2
sS'LSLL'
p3205
I1
sS'TTQK'
p3206
I1
sS'LSLH'
p3207
I2
sS'LSLF'
p3208
I5
sS'PHLS'
p3209
I1
sS'LATI'
p3210
I2
sS'APWN'
p3211
I2
sS'LVPT'
p3212
I1
sS'SPMM'
p3213
I1
sS'PQSQ'
p3214
I1
sS'APWF'
p3215
I13
sS'IAFV'
p3216
I1
sS'FTPI'
p3217
I1
sS'QSLN'
p3218
I2
sS'AIFC'
p3219
I1
sS'FTPT'
p3220
I3
sS'KKNM'
p3221
I1
sS'WIVN'
p3222
I1
sS'KKNI'
p3223
I1
sS'KINF'
p3224
I1
sS'QPPL'
p3225
I1
sS'FQVE'
p3226
I1
sS'KINK'
p3227
I1
sS'YLFS'
p3228
I1
sS'KINT'
p3229
I1
sS'RKWW'
p3230
I1
sS'YLFI'
p3231
I1
sS'IMVM'
p3232
I1
sS'LQLK'
p3233
I2
sS'LGLQ'
p3234
I1
sS'WFIN'
p3235
I2
sS'IMVF'
p3236
I2
sS'TPCP'
p3237
I1
sS'SHKH'
p3238
I1
sS'TFIP'
p3239
I1
sS'SHKD'
p3240
I1
sS'IYYP'
p3241
I1
sS'SVSS'
p3242
I1
sS'TKIY'
p3243
I42
sS'WFII'
p3244
I1
sS'IPTK'
p3245
I4
sS'SVSI'
p3246
I1
sS'SHKT'
p3247
I1
sS'HLFN'
p3248
I2
sS'FMTI'
p3249
I1
sS'SFHD'
p3250
I1
sS'PWNT'
p3251
I2
sS'PWNW'
p3252
I11
sS'IVAM'
p3253
I1
sS'FTTI'
p3254
I4
sS'LYFE'
p3255
I1
sS'FMLK'
p3256
I1
sS'AVWP'
p3257
I2
sS'MPMK'
p3258
I1
sS'IKLK'
p3259
I1
sS'PWNI'
p3260
I1
sS'ELTS'
p3261
I1
sS'QDKL'
p3262
I1
sS'ELTP'
p3263
I2
sS'QDKK'
p3264
I1
sS'ELTT'
p3265
I1
sS'AWPW'
p3266
I2
sS'LKQR'
p3267
I1
sS'TKPT'
p3268
I4
sS'TKPK'
p3269
I3
sS'ELTA'
p3270
I1
sS'NTVS'
p3271
I1
sS'KPHA'
p3272
I1
sS'TILF'
p3273
I1
sS'YLPP'
p3274
I3
sS'LHNF'
p3275
I1
sS'TKPE'
p3276
I2
sS'ELTL'
p3277
I1
sS'NPVL'
p3278
I1
sS'SKYL'
p3279
I3
sS'VKKE'
p3280
I1
sS'IKPH'
p3281
I2
sS'SKYD'
p3282
I1
sS'IKPT'
p3283
I1
sS'FCFS'
p3284
I1
sS'SIEL'
p3285
I1
sS'NNWL'
p3286
I1
sS'SKYS'
p3287
I1
sS'VFQL'
p3288
I5
sS'FIIL'
p3289
I2
sS'FIIM'
p3290
I1
sS'SKKP'
p3291
I1
sS'LLTE'
p3292
I1
sS'LLTF'
p3293
I4
sS'TMSL'
p3294
I1
sS'LLTI'
p3295
I3
sS'FIIF'
p3296
I10
sS'LLTK'
p3297
I1
sS'TMSH'
p3298
I1
sS'STQK'
p3299
I1
sS'SMKS'
p3300
I1
sS'MKNI'
p3301
I1
sS'LLTW'
p3302
I1
sS'MINQ'
p3303
I1
sS'FIIW'
p3304
I1
sS'MKNF'
p3305
I1
sS'TKVM'
p3306
I1
sS'KTPK'
p3307
I1
sS'PSPK'
p3308
I5
sS'IMFY'
p3309
I1
sS'WDWP'
p3310
I3
sS'TQKI'
p3311
I1
sS'KRLT'
p3312
I1
sS'TQKP'
p3313
I1
sS'QHSS'
p3314
I1
sS'QHSP'
p3315
I1
sS'MAML'
p3316
I1
sS'PSPW'
p3317
I5
sS'YNFK'
p3318
I1
sS'KTPS'
p3319
I1
sS'TWSI'
p3320
I4
sS'KTPT'
p3321
I2
sS'KTPW'
p3322
I2
sS'CFPL'
p3323
I1
sS'FQLK'
p3324
I27
sS'LFSM'
p3325
I1
sS'HKTE'
p3326
I3
sS'INKS'
p3327
I2
sS'INKT'
p3328
I1
sS'HKTN'
p3329
I1
sS'MTSH'
p3330
I1
sS'SKWT'
p3331
I8
sS'HKTT'
p3332
I2
sS'TTTD'
p3333
I1
sS'INKD'
p3334
I1
sS'INKE'
p3335
I1
sS'SNFN'
p3336
I1
sS'PLST'
p3337
I2
sS'LYQP'
p3338
I1
sS'LRGL'
p3339
I1
sS'FLFL'
p3340
I1
sS'PETT'
p3341
I1
sS'FIVL'
p3342
I1
sS'NLNK'
p3343
I1
sS'ILNQ'
p3344
I1
sS'WQWL'
p3345
I2
sS'ILNY'
p3346
I2
sS'PLSL'
p3347
I22
sS'PLSN'
p3348
I1
sS'TWEL'
p3349
I2
sS'FLMF'
p3350
I1
sS'WFIM'
p3351
I2
sS'MVMT'
p3352
I1
sS'PLAP'
p3353
I1
sS'DMKP'
p3354
I1
sS'FLPP'
p3355
I2
sS'QVTK'
p3356
I1
sS'WFIT'
p3357
I10
sS'IWAS'
p3358
I1
sS'FLMS'
p3359
I1
sS'LFVL'
p3360
I2
sS'FNIL'
p3361
I3
sS'ELFI'
p3362
I1
sS'YSNF'
p3363
I1
sS'VPLI'
p3364
I1
sS'NVPL'
p3365
I1
sS'SELI'
p3366
I1
sS'KGRK'
p3367
I1
s.