(dp1
S'KDDG'
p2
I6
sS'ISDS'
p3
I4
sS'SLDR'
p4
I2
sS'SQLQ'
p5
I4
sS'TNRF'
p6
I2
sS'TNRG'
p7
I4
sS'SQLK'
p8
I1
sS'QEIP'
p9
I1
sS'GTIL'
p10
I2
sS'GKRD'
p11
I1
sS'ATYK'
p12
I1
sS'EPEP'
p13
I1
sS'EDIA'
p14
I1
sS'LASQ'
p15
I4
sS'PRNT'
p16
I4
sS'FDQT'
p17
I4
sS'EPEK'
p18
I6
sS'EPEE'
p19
I1
sS'SRYL'
p20
I1
sS'MGGH'
p21
I1
sS'PRNF'
p22
I3
sS'PTNY'
p23
I1
sS'VRTT'
p24
I6
sS'LASM'
p25
I7
sS'RAGW'
p26
I1
sS'KNHI'
p27
I5
sS'MSAP'
p28
I2
sS'PADE'
p29
I1
sS'AGLA'
p30
I4
sS'ERES'
p31
I1
sS'NYYN'
p32
I7
sS'GKLK'
p33
I4
sS'TVLC'
p34
I11
sS'TRTL'
p35
I1
sS'GKLR'
p36
I1
sS'SQLV'
p37
I1
sS'CTLM'
p38
I5
sS'RWEV'
p39
I2
sS'KFPA'
p40
I1
sS'ASSF'
p41
I1
sS'NEAL'
p42
I1
sS'CGPD'
p43
I4
sS'QQLR'
p44
I1
sS'VLRV'
p45
I1
sS'ASSV'
p46
I1
sS'EDVG'
p47
I1
sS'ASSR'
p48
I1
sS'EAEI'
p49
I1
sS'EAEL'
p50
I5
sS'GEVS'
p51
I1
sS'EAEA'
p52
I2
sS'GSQG'
p53
I4
sS'EAEG'
p54
I1
sS'SQPQ'
p55
I1
sS'RVQC'
p56
I1
sS'LAAV'
p57
I1
sS'YYDN'
p58
I1
sS'IIAE'
p59
I1
sS'QQQP'
p60
I1
sS'PDVG'
p61
I4
sS'QQQS'
p62
I1
sS'YEGK'
p63
I1
sS'QQAE'
p64
I2
sS'QQAG'
p65
I1
sS'HPVY'
p66
I1
sS'LEYP'
p67
I2
sS'DLRN'
p68
I4
sS'DQGI'
p69
I4
sS'QGID'
p70
I4
sS'TPRN'
p71
I4
sS'HPDY'
p72
I2
sS'KDKK'
p73
I1
sS'GNYR'
p74
I1
sS'YCQE'
p75
I1
sS'DSEP'
p76
I1
sS'APDQ'
p77
I1
sS'QTIV'
p78
I1
sS'NSLY'
p79
I13
sS'VKNR'
p80
I5
sS'EYDH'
p81
I1
sS'RRIG'
p82
I9
sS'IEQK'
p83
I6
sS'VKNK'
p84
I13
sS'MSSA'
p85
I7
sS'NTNT'
p86
I1
sS'TDQP'
p87
I8
sS'KYCD'
p88
I1
sS'KYCA'
p89
I4
sS'GHRN'
p90
I1
sS'KYCL'
p91
I7
sS'IFAL'
p92
I1
sS'RERN'
p93
I1
sS'DKPF'
p94
I4
sS'SKHP'
p95
I2
sS'RAVR'
p96
I1
sS'SPPT'
p97
I1
sS'KYCP'
p98
I5
sS'KYCS'
p99
I1
sS'AFKQ'
p100
I10
sS'FGLG'
p101
I5
sS'SDYQ'
p102
I4
sS'VSET'
p103
I1
sS'DIDV'
p104
I1
sS'AKIA'
p105
I1
sS'VSEQ'
p106
I1
sS'TASR'
p107
I1
sS'KIQA'
p108
I4
sS'WPQL'
p109
I4
sS'ATEN'
p110
I1
sS'YMSL'
p111
I1
sS'YMSS'
p112
I4
sS'ETYG'
p113
I3
sS'MSSS'
p114
I1
sS'GLTG'
p115
I5
sS'YLAY'
p116
I1
sS'EAKD'
p117
I1
sS'NTAS'
p118
I1
sS'VARD'
p119
I4
sS'THGV'
p120
I1
sS'IPIQ'
p121
I1
sS'MSST'
p122
I5
sS'IPIK'
p123
I1
sS'PDID'
p124
I1
sS'PEEK'
p125
I1
sS'PSEC'
p126
I1
sS'LRVQ'
p127
I1
sS'PEEA'
p128
I2
sS'LRVW'
p129
I2
sS'THGE'
p130
I2
sS'KRQI'
p131
I8
sS'PEEV'
p132
I1
sS'RDFT'
p133
I2
sS'PVKK'
p134
I4
sS'QRGM'
p135
I10
sS'PVKI'
p136
I1
sS'TKMT'
p137
I1
sS'TKMV'
p138
I2
sS'QYDA'
p139
I3
sS'RQVY'
p140
I12
sS'PVKV'
p141
I4
sS'QYDP'
p142
I1
sS'QDDY'
p143
I2
sS'AGQS'
p144
I5
sS'AEED'
p145
I4
sS'AGQT'
p146
I1
sS'NKLA'
p147
I10
sS'EVKN'
p148
I18
sS'NVGV'
p149
I7
sS'PADL'
p150
I1
sS'AGQC'
p151
I5
sS'NVGL'
p152
I2
sS'LEDR'
p153
I1
sS'AGQG'
p154
I1
sS'NKLQ'
p155
I18
sS'EEAE'
p156
I2
sS'AGQN'
p157
I1
sS'EEAG'
p158
I4
sS'IMEN'
p159
I1
sS'YGLP'
p160
I8
sS'YGLS'
p161
I27
sS'VCRE'
p162
I2
sS'QIRE'
p163
I1
sS'AQLR'
p164
I2
sS'YGLG'
p165
I4
sS'YGLA'
p166
I1
sS'NFDD'
p167
I5
sS'KHPE'
p168
I1
sS'GIIP'
p169
I2
sS'GDCP'
p170
I3
sS'KHPD'
p171
I1
sS'AGML'
p172
I3
sS'DVKG'
p173
I2
sS'TLIA'
p174
I2
sS'ENKL'
p175
I6
sS'MNKL'
p176
I5
sS'GKMS'
p177
I1
sS'AGMT'
p178
I26
sS'AGMS'
p179
I2
sS'AAAG'
p180
I2
sS'PEEE'
p181
I1
sS'KNKL'
p182
I9
sS'TVMA'
p183
I1
sS'EGQA'
p184
I4
sS'KNKI'
p185
I4
sS'KLKA'
p186
I4
sS'ASTM'
p187
I3
sS'PRQI'
p188
I15
sS'KSET'
p189
I1
sS'PRQS'
p190
I1
sS'KSEN'
p191
I2
sS'PRQV'
p192
I8
sS'QSAS'
p193
I1
sS'KSEG'
p194
I1
sS'NRKS'
p195
I2
sS'VLSP'
p196
I1
sS'ASSM'
p197
I1
sS'RHIY'
p198
I5
sS'NPEM'
p199
I1
sS'KFAS'
p200
I11
sS'KFAT'
p201
I1
sS'QCGT'
p202
I1
sS'TYKK'
p203
I1
sS'GRRE'
p204
I1
sS'GRRI'
p205
I9
sS'DGSK'
p206
I3
sS'NPEY'
p207
I1
sS'LKGG'
p208
I1
sS'DTQQ'
p209
I1
sS'LYPP'
p210
I6
sS'LFEN'
p211
I13
sS'RPNT'
p212
I1
sS'CQEE'
p213
I1
sS'SNAN'
p214
I1
sS'RLQS'
p215
I5
sS'LFEA'
p216
I6
sS'PPSG'
p217
I1
sS'ILIQ'
p218
I4
sS'PESS'
p219
I1
sS'LYPE'
p220
I6
sS'LYPD'
p221
I3
sS'RLQA'
p222
I2
sS'EGKD'
p223
I10
sS'PQGS'
p224
I1
sS'PQGT'
p225
I2
sS'LFES'
p226
I5
sS'GFSE'
p227
I6
sS'KSSI'
p228
I1
sS'LSNF'
p229
I5
sS'TTSA'
p230
I1
sS'GQTI'
p231
I1
sS'GMSR'
p232
I5
sS'EKKY'
p233
I5
sS'HPEY'
p234
I3
sS'EISL'
p235
I1
sS'GMSY'
p236
I1
sS'CPQG'
p237
I5
sS'GMSA'
p238
I2
sS'EKKD'
p239
I2
sS'DSDY'
p240
I4
sS'GASQ'
p241
I36
sS'WIIV'
p242
I1
sS'DEGK'
p243
I4
sS'GMSI'
p244
I2
sS'EPVE'
p245
I1
sS'AVGM'
p246
I1
sS'SLQM'
p247
I33
sS'NQSG'
p248
I5
sS'APGT'
p249
I17
sS'EPVI'
p250
I4
sS'APGL'
p251
I1
sS'EPVQ'
p252
I1
sS'IGFG'
p253
I2
sS'SLQY'
p254
I1
sS'ISWQ'
p255
I2
sS'GEKI'
p256
I1
sS'RLMS'
p257
I1
sS'RIWE'
p258
I2
sS'ISES'
p259
I6
sS'QENA'
p260
I1
sS'NQAP'
p261
I1
sS'QENE'
p262
I1
sS'SQMS'
p263
I1
sS'TNSA'
p264
I1
sS'KYDE'
p265
I4
sS'FMKK'
p266
I5
sS'CKLI'
p267
I8
sS'CKLM'
p268
I1
sS'DDQG'
p269
I2
sS'SQMG'
p270
I2
sS'PAYG'
p271
I12
sS'KVPE'
p272
I4
sS'QFTG'
p273
I1
sS'GDQG'
p274
I1
sS'TGKN'
p275
I1
sS'PHNY'
p276
I5
sS'MSLE'
p277
I1
sS'RKIL'
p278
I1
sS'SAAG'
p279
I1
sS'ISML'
p280
I1
sS'SAAD'
p281
I1
sS'CRED'
p282
I1
sS'LRAG'
p283
I1
sS'ITTQ'
p284
I4
sS'CREG'
p285
I2
sS'PGTR'
p286
I9
sS'IGPN'
p287
I1
sS'IGPD'
p288
I4
sS'HFNK'
p289
I4
sS'KKLE'
p290
I1
sS'IGPP'
p291
I1
sS'VKSE'
p292
I2
sS'PGTK'
p293
I8
sS'QPRW'
p294
I2
sS'YTQG'
p295
I5
sS'QMEQ'
p296
I15
sS'LNVS'
p297
I7
sS'KGLK'
p298
I5
sS'NTFL'
p299
I1
sS'QPRK'
p300
I1
sS'GKNM'
p301
I4
sS'LTLQ'
p302
I4
sS'RKGV'
p303
I1
sS'GSVK'
p304
I11
sS'IVVQ'
p305
I1
sS'GSVA'
p306
I6
sS'KMSN'
p307
I1
sS'GQFK'
p308
I1
sS'FDDA'
p309
I5
sS'GSVP'
p310
I5
sS'GSVQ'
p311
I2
sS'GQEP'
p312
I6
sS'GMEH'
p313
I7
sS'QQNR'
p314
I6
sS'CPGP'
p315
I1
sS'GMER'
p316
I1
sS'LNHS'
p317
I1
sS'GGQF'
p318
I1
sS'LGAV'
p319
I1
sS'RDIY'
p320
I4
sS'GLKD'
p321
I18
sS'RQGQ'
p322
I6
sS'NTTF'
p323
I1
sS'NTTD'
p324
I4
sS'DRLM'
p325
I2
sS'NITK'
p326
I1
sS'SVIG'
p327
I4
sS'DRLV'
p328
I1
sS'KRNP'
p329
I1
sS'AGRK'
p330
I1
sS'NTTY'
p331
I1
sS'STMA'
p332
I3
sS'NTTS'
p333
I1
sS'QISQ'
p334
I10
sS'SDVD'
p335
I1
sS'RSWI'
p336
I3
sS'SRQS'
p337
I1
sS'PEHF'
p338
I1
sS'YGMS'
p339
I5
sS'YGMP'
p340
I10
sS'TKRQ'
p341
I8
sS'YGMN'
p342
I5
sS'YGMK'
p343
I4
sS'NPTT'
p344
I1
sS'IKHY'
p345
I2
sS'SYQV'
p346
I1
sS'SVDP'
p347
I1
sS'KYDD'
p348
I1
sS'DLEN'
p349
I6
sS'KYDH'
p350
I9
sS'LENI'
p351
I13
sS'FIKA'
p352
I16
sS'LENL'
p353
I5
sS'KYDP'
p354
I7
sS'KYDQ'
p355
I2
sS'KYDS'
p356
I2
sS'DQTT'
p357
I5
sS'DLEQ'
p358
I4
sS'QGTG'
p359
I4
sS'SKIE'
p360
I5
sS'RAQE'
p361
I1
sS'TKIP'
p362
I1
sS'GLYP'
p363
I1
sS'EHFY'
p364
I1
sS'QTTL'
p365
I4
sS'QTTI'
p366
I5
sS'YGSN'
p367
I1
sS'YGSS'
p368
I1
sS'CDTN'
p369
I1
sS'KIRL'
p370
I1
sS'KIRM'
p371
I1
sS'TARR'
p372
I2
sS'IRMS'
p373
I1
sS'FQNW'
p374
I3
sS'ENTN'
p375
I9
sS'AAPT'
p376
I4
sS'AAPR'
p377
I1
sS'FQNG'
p378
I1
sS'QIAQ'
p379
I1
sS'NHSF'
p380
I1
sS'NFSD'
p381
I3
sS'AMSN'
p382
I1
sS'FLQA'
p383
I4
sS'LREW'
p384
I7
sS'CDNS'
p385
I5
sS'GPAA'
p386
I2
sS'LREG'
p387
I10
sS'GPAY'
p388
I12
sS'YDEE'
p389
I4
sS'AMSS'
p390
I5
sS'SIGA'
p391
I1
sS'CSQR'
p392
I1
sS'TQGA'
p393
I5
sS'DRRT'
p394
I1
sS'GPSY'
p395
I21
sS'MAAV'
p396
I10
sS'SNVP'
p397
I1
sS'PSDL'
p398
I1
sS'SIGP'
p399
I6
sS'SGNL'
p400
I1
sS'SGNM'
p401
I4
sS'PQPG'
p402
I4
sS'EHPP'
p403
I6
sS'PEDI'
p404
I1
sS'FNKG'
p405
I9
sS'QCVI'
p406
I5
sS'ANAT'
p407
I1
sS'KGPA'
p408
I1
sS'KGPF'
p409
I1
sS'SENL'
p410
I2
sS'KGPS'
p411
I13
sS'AYCQ'
p412
I1
sS'RSEN'
p413
I1
sS'EELE'
p414
I5
sS'TKLG'
p415
I5
sS'EELK'
p416
I1
sS'SENV'
p417
I1
sS'VPNF'
p418
I1
sS'EPGK'
p419
I1
sS'EPGL'
p420
I7
sS'YCAA'
p421
I4
sS'ENPP'
p422
I4
sS'IQFT'
p423
I1
sS'IEAL'
p424
I1
sS'EEPA'
p425
I1
sS'IEAI'
p426
I1
sS'MVFK'
p427
I5
sS'GDPN'
p428
I9
sS'VPVA'
p429
I1
sS'PTHN'
p430
I3
sS'YSEK'
p431
I5
sS'RNPE'
p432
I1
sS'GIDY'
p433
I4
sS'GSAS'
p434
I1
sS'LAQL'
p435
I2
sS'VTNT'
p436
I1
sS'LAQK'
p437
I9
sS'VRVA'
p438
I1
sS'MGIG'
p439
I1
sS'TILD'
p440
I1
sS'GSAA'
p441
I1
sS'TILC'
p442
I2
sS'VILC'
p443
I2
sS'QYSD'
p444
I1
sS'VILM'
p445
I1
sS'VILS'
p446
I4
sS'EGRN'
p447
I9
sS'VSPH'
p448
I1
sS'VLPH'
p449
I1
sS'NRLL'
p450
I4
sS'EWIV'
p451
I4
sS'NGSQ'
p452
I4
sS'SAPG'
p453
I1
sS'NRLQ'
p454
I1
sS'SAPP'
p455
I1
sS'NGSE'
p456
I4
sS'ETIL'
p457
I1
sS'ETII'
p458
I1
sS'LVAL'
p459
I5
sS'GIVL'
p460
I1
sS'GIVR'
p461
I2
sS'RKFE'
p462
I4
sS'FDEG'
p463
I4
sS'QQSA'
p464
I1
sS'GQGE'
p465
I1
sS'ADLE'
p466
I9
sS'ECSI'
p467
I1
sS'DSQK'
p468
I6
sS'DSQL'
p469
I2
sS'KYSE'
p470
I5
sS'DSQS'
p471
I1
sS'GQGQ'
p472
I2
sS'HPHN'
p473
I5
sS'DQEN'
p474
I1
sS'RDDG'
p475
I4
sS'HDRR'
p476
I1
sS'GMTV'
p477
I8
sS'EIPE'
p478
I2
sS'NENA'
p479
I1
sS'CPPY'
p480
I1
sS'EIPL'
p481
I2
sS'GMTA'
p482
I32
sS'PPPG'
p483
I6
sS'VNVG'
p484
I7
sS'GMTG'
p485
I24
sS'REQE'
p486
I6
sS'KEEE'
p487
I1
sS'GELP'
p488
I2
sS'PPSM'
p489
I4
sS'TDSQ'
p490
I2
sS'QTER'
p491
I2
sS'PIQF'
p492
I1
sS'HSTI'
p493
I4
sS'PVIH'
p494
I4
sS'EYSG'
p495
I1
sS'KKAQ'
p496
I5
sS'QNLG'
p497
I1
sS'YCSQ'
p498
I1
sS'VTKN'
p499
I5
sS'PIQQ'
p500
I1
sS'TDSK'
p501
I1
sS'YNSQ'
p502
I1
sS'VQKV'
p503
I2
sS'DLFQ'
p504
I1
sS'DNFM'
p505
I1
sS'TMPF'
p506
I1
sS'DQSE'
p507
I2
sS'YNSA'
p508
I7
sS'DLFE'
p509
I28
sS'MIMD'
p510
I1
sS'LWEG'
p511
I10
sS'IKAM'
p512
I5
sS'DNFX'
p513
I1
sS'SDGI'
p514
I1
sS'IKAI'
p515
I11
sS'FPEH'
p516
I1
sS'MPRQ'
p517
I10
sS'WKKE'
p518
I1
sS'GEPA'
p519
I4
sS'RLLS'
p520
I4
sS'FKQM'
p521
I15
sS'QSAK'
p522
I1
sS'QAYG'
p523
I4
sS'HLYD'
p524
I17
sS'GEPT'
p525
I1
sS'QVGM'
p526
I5
sS'DEEK'
p527
I1
sS'GEPS'
p528
I7
sS'DYMS'
p529
I1
sS'DWII'
p530
I6
sS'DYMT'
p531
I3
sS'QAKT'
p532
I2
sS'KKMT'
p533
I1
sS'AVTK'
p534
I11
sS'ATGR'
p535
I2
sS'HNHH'
p536
I7
sS'QVYD'
p537
I12
sS'EAII'
p538
I1
sS'ARDD'
p539
I4
sS'NIPI'
p540
I1
sS'KGMS'
p541
I4
sS'TGKA'
p542
I1
sS'KGMT'
p543
I7
sS'IAEK'
p544
I1
sS'LNWP'
p545
I4
sS'KGMI'
p546
I1
sS'IPKI'
p547
I6
sS'LGAG'
p548
I1
sS'KIAS'
p549
I5
sS'SNQY'
p550
I1
sS'PSGL'
p551
I2
sS'GLNH'
p552
I1
sS'LSFN'
p553
I1
sS'TQFN'
p554
I5
sS'CAED'
p555
I6
sS'FATQ'
p556
I1
sS'MAFK'
p557
I10
sS'DRSK'
p558
I1
sS'VQIP'
p559
I1
sS'PSGT'
p560
I2
sS'KPVP'
p561
I1
sS'VPKV'
p562
I2
sS'QREQ'
p563
I6
sS'QPGR'
p564
I4
sS'LRTW'
p565
I2
sS'AEYP'
p566
I4
sS'VPKI'
p567
I5
sS'NVSL'
p568
I7
sS'PGQE'
p569
I6
sS'KISE'
p570
I6
sS'IDYM'
p571
I4
sS'AEKF'
p572
I1
sS'RQFV'
p573
I1
sS'ANRT'
p574
I1
sS'LTQV'
p575
I1
sS'NKRE'
p576
I1
sS'ETPI'
p577
I1
sS'AGSN'
p578
I1
sS'ANRG'
p579
I11
sS'QPGS'
p580
I18
sS'AEKQ'
p581
I13
sS'HHAH'
p582
I2
sS'MQTD'
p583
I4
sS'VADG'
p584
I2
sS'STLL'
p585
I7
sS'STLI'
p586
I2
sS'VVKT'
p587
I1
sS'VADL'
p588
I1
sS'QIPI'
p589
I1
sS'VSYG'
p590
I5
sS'KRDF'
p591
I2
sS'METR'
p592
I1
sS'ALEW'
p593
I1
sS'ENIS'
p594
I1
sS'CTIS'
p595
I1
sS'ENIN'
p596
I1
sS'METK'
p597
I1
sS'DDAT'
p598
I5
sS'ENIG'
p599
I13
sS'DDAQ'
p600
I1
sS'KLIN'
p601
I8
sS'KHYG'
p602
I2
sS'GLSP'
p603
I1
sS'GINM'
p604
I1
sS'EGSK'
p605
I2
sS'QILM'
p606
I4
sS'AQVT'
p607
I1
sS'RGLQ'
p608
I1
sS'INVL'
p609
I1
sS'SKRN'
p610
I1
sS'WHKL'
p611
I2
sS'EQLK'
p612
I2
sS'EQLR'
p613
I6
sS'EGAT'
p614
I2
sS'LKAA'
p615
I11
sS'FENG'
p616
I4
sS'LKAG'
p617
I5
sS'ILKD'
p618
I1
sS'IWEL'
p619
I2
sS'RWTL'
p620
I3
sS'FENT'
p621
I9
sS'PSIS'
p622
I2
sS'YDDE'
p623
I1
sS'LDKE'
p624
I1
sS'GQVL'
p625
I1
sS'RLMG'
p626
I1
sS'PFLG'
p627
I1
sS'GQVF'
p628
I5
sS'VDWI'
p629
I6
sS'ILSK'
p630
I4
sS'KLGT'
p631
I13
sS'DEEL'
p632
I4
sS'VLGP'
p633
I1
sS'ESTQ'
p634
I7
sS'KSQG'
p635
I2
sS'DFTD'
p636
I1
sS'LIAL'
p637
I2
sS'QKGL'
p638
I5
sS'EYPR'
p639
I1
sS'QLKG'
p640
I1
sS'EYPP'
p641
I2
sS'QLKE'
p642
I1
sS'QLKA'
p643
I1
sS'DGLK'
p644
I9
sS'VMQC'
p645
I2
sS'NSAN'
p646
I1
sS'RRDI'
p647
I4
sS'EYPD'
p648
I6
sS'NSAM'
p649
I6
sS'SQQG'
p650
I11
sS'NALY'
p651
I1
sS'PIPK'
p652
I6
sS'GPNF'
p653
I1
sS'YGRP'
p654
I5
sS'KQKS'
p655
I1
sS'RENF'
p656
I4
sS'SLAV'
p657
I5
sS'GPGP'
p658
I1
sS'FEAE'
p659
I1
sS'EDRL'
p660
I1
sS'RRTH'
p661
I1
sS'QELR'
p662
I7
sS'NSSM'
p663
I5
sS'GTNG'
p664
I4
sS'GTNF'
p665
I2
sS'GTNK'
p666
I48
sS'NSSG'
p667
I1
sS'RIGD'
p668
I2
sS'GTNL'
p669
I1
sS'GTNR'
p670
I6
sS'GTNQ'
p671
I1
sS'MSNA'
p672
I1
sS'GMSV'
p673
I4
sS'TVYG'
p674
I8
sS'GKQR'
p675
I1
sS'RIGS'
p676
I2
sS'PTIV'
p677
I1
sS'LAPG'
p678
I3
sS'DKCD'
p679
I5
sS'GNMT'
p680
I8
sS'TCRN'
p681
I1
sS'RGRL'
p682
I6
sS'ERRF'
p683
I3
sS'QTDG'
p684
I2
sS'QTDK'
p685
I4
sS'QPTS'
p686
I1
sS'EQRG'
p687
I1
sS'NISA'
p688
I1
sS'LALA'
p689
I12
sS'YYQE'
p690
I3
sS'VTYK'
p691
I1
sS'GQNK'
p692
I1
sS'RKSQ'
p693
I2
sS'SVYG'
p694
I4
sS'KAGQ'
p695
I10
sS'QEKI'
p696
I6
sS'RTHF'
p697
I1
sS'RTHG'
p698
I3
sS'DHER'
p699
I1
sS'DHEK'
p700
I1
sS'GQNL'
p701
I1
sS'GKHV'
p702
I4
sS'EVTG'
p703
I4
sS'LVNS'
p704
I5
sS'GMGI'
p705
I1
sS'RMIM'
p706
I1
sS'PKVT'
p707
I1
sS'TCQT'
p708
I1
sS'IILC'
p709
I13
sS'DSPP'
p710
I1
sS'TMAF'
p711
I3
sS'MSNV'
p712
I1
sS'IILQ'
p713
I6
sS'PKVN'
p714
I1
sS'GYIA'
p715
I1
sS'QILI'
p716
I4
sS'VEWI'
p717
I5
sS'RQAT'
p718
I1
sS'SGDP'
p719
I4
sS'VGGK'
p720
I1
sS'SVKK'
p721
I11
sS'HYRG'
p722
I3
sS'NPRY'
p723
I1
sS'AQKY'
p724
I9
sS'IKTD'
p725
I2
sS'SMQN'
p726
I5
sS'SYED'
p727
I1
sS'SKEN'
p728
I4
sS'ANQS'
p729
I5
sS'IKTQ'
p730
I1
sS'SDTQ'
p731
I1
sS'NPRN'
p732
I3
sS'VAGQ'
p733
I1
sS'GMIG'
p734
I2
sS'DEYH'
p735
I4
sS'TESQ'
p736
I2
sS'VSMG'
p737
I1
sS'LELG'
p738
I1
sS'DEYP'
p739
I1
sS'PDDY'
p740
I1
sS'DQRS'
p741
I1
sS'KKFE'
p742
I1
sS'WEET'
p743
I1
sS'DIAN'
p744
I2
sS'QNWL'
p745
I3
sS'QTVD'
p746
I17
sS'QNWH'
p747
I14
sS'EFTD'
p748
I1
sS'SSFQ'
p749
I1
sS'GKHL'
p750
I2
sS'TAPG'
p751
I13
sS'QVFG'
p752
I5
sS'EFTP'
p753
I1
sS'AKLF'
p754
I1
sS'ERPD'
p755
I1
sS'TKND'
p756
I5
sS'NEST'
p757
I7
sS'ASEP'
p758
I1
sS'NESS'
p759
I4
sS'DGTI'
p760
I2
sS'WNRG'
p761
I1
sS'HTTI'
p762
I4
sS'SREV'
p763
I14
sS'INGL'
p764
I1
sS'AVQR'
p765
I11
sS'PEPE'
p766
I1
sS'RGPS'
p767
I8
sS'SGRD'
p768
I1
sS'AGSG'
p769
I1
sS'NWLK'
p770
I3
sS'RHLY'
p771
I17
sS'WFMK'
p772
I5
sS'LKVR'
p773
I1
sS'GYGR'
p774
I4
sS'QATI'
p775
I8
sS'FTEQ'
p776
I1
sS'VDIG'
p777
I5
sS'LLAL'
p778
I12
sS'TWIE'
p779
I2
sS'TENK'
p780
I1
sS'HVQV'
p781
I1
sS'VPHV'
p782
I1
sS'NKGA'
p783
I29
sS'QDAD'
p784
I1
sS'RQSE'
p785
I2
sS'SGLS'
p786
I2
sS'NKGP'
p787
I14
sS'KGVS'
p788
I1
sS'IEGV'
p789
I7
sS'SWIE'
p790
I3
sS'RGMT'
p791
I10
sS'ILDK'
p792
I1
sS'EPAA'
p793
I1
sS'IEGA'
p794
I2
sS'PQQQ'
p795
I1
sS'EPAH'
p796
I4
sS'SSLN'
p797
I4
sS'IEGL'
p798
I6
sS'QKGE'
p799
I1
sS'PKSS'
p800
I1
sS'GSGR'
p801
I1
sS'VYDP'
p802
I12
sS'SETI'
p803
I1
sS'ITQA'
p804
I1
sS'SETV'
p805
I1
sS'YSGQ'
p806
I1
sS'YSGP'
p807
I1
sS'GSGG'
p808
I1
sS'MPRW'
p809
I1
sS'YQYG'
p810
I3
sS'KPPG'
p811
I1
sS'DVFQ'
p812
I1
sS'DGLF'
p813
I4
sS'TLLA'
p814
I7
sS'YQYS'
p815
I1
sS'DPVQ'
p816
I2
sS'KNDG'
p817
I5
sS'NFGT'
p818
I2
sS'PAHN'
p819
I4
sS'EERE'
p820
I1
sS'QIMM'
p821
I6
sS'LSYQ'
p822
I1
sS'KCDN'
p823
I5
sS'CGTN'
p824
I1
sS'QKAL'
p825
I1
sS'TTDI'
p826
I10
sS'MGYT'
p827
I5
sS'WFHR'
p828
I6
sS'ETKI'
p829
I1
sS'IVSP'
p830
I1
sS'RKDV'
p831
I2
sS'MSYG'
p832
I1
sS'EQPI'
p833
I1
sS'GTCR'
p834
I1
sS'ETKP'
p835
I1
sS'ETKV'
p836
I1
sS'KEWE'
p837
I2
sS'SSAH'
p838
I7
sS'SFGA'
p839
I1
sS'WETI'
p840
I1
sS'LLGK'
p841
I1
sS'GQAP'
p842
I4
sS'LSEP'
p843
I1
sS'CELI'
p844
I8
sS'IEDY'
p845
I1
sS'ADEC'
p846
I1
sS'CPDP'
p847
I2
sS'DSST'
p848
I1
sS'LLGE'
p849
I1
sS'PKYC'
p850
I17
sS'LSKL'
p851
I4
sS'GANQ'
p852
I5
sS'RESS'
p853
I1
sS'EKFP'
p854
I1
sS'HYHG'
p855
I1
sS'GMVR'
p856
I2
sS'GANF'
p857
I1
sS'LSKY'
p858
I4
sS'DSAH'
p859
I1
sS'QRGL'
p860
I1
sS'HYGV'
p861
I2
sS'SLNW'
p862
I4
sS'EPSL'
p863
I1
sS'EYQY'
p864
I2
sS'EWEE'
p865
I1
sS'IGAS'
p866
I1
sS'RRET'
p867
I4
sS'FTGK'
p868
I1
sS'PTSQ'
p869
I1
sS'SQSV'
p870
I1
sS'IGAN'
p871
I1
sS'EWET'
p872
I1
sS'GGNT'
p873
I1
sS'EYQD'
p874
I2
sS'EDGL'
p875
I1
sS'CGSS'
p876
I1
sS'ERCD'
p877
I1
sS'SQRG'
p878
I10
sS'GYGV'
p879
I1
sS'IVRL'
p880
I2
sS'TMVF'
p881
I1
sS'SFQS'
p882
I1
sS'PDEY'
p883
I5
sS'DQQA'
p884
I2
sS'KYGV'
p885
I7
sS'QAGW'
p886
I4
sS'TDIF'
p887
I10
sS'TSFG'
p888
I1
sS'QAGT'
p889
I4
sS'QAGS'
p890
I2
sS'PPQQ'
p891
I1
sS'TQVQ'
p892
I18
sS'AIQA'
p893
I4
sS'QNVI'
p894
I6
sS'PIKT'
p895
I1
sS'QNVV'
p896
I1
sS'QAGE'
p897
I1
sS'QAGD'
p898
I1
sS'KKYD'
p899
I5
sS'NMTQ'
p900
I8
sS'PSWF'
p901
I6
sS'MKKS'
p902
I1
sS'QAGI'
p903
I1
sS'KTKG'
p904
I18
sS'TDGI'
p905
I2
sS'AVRA'
p906
I1
sS'GNLT'
p907
I1
sS'EMDK'
p908
I1
sS'LPYE'
p909
I2
sS'AVRQ'
p910
I1
sS'KKKL'
p911
I1
sS'TPIG'
p912
I1
sS'ERQL'
p913
I2
sS'EYGV'
p914
I1
sS'IGSN'
p915
I2
sS'QVWL'
p916
I5
sS'FVAA'
p917
I1
sS'RVGR'
p918
I2
sS'IVAQ'
p919
I1
sS'VKPH'
p920
I9
sS'KICD'
p921
I1
sS'EVYG'
p922
I2
sS'TGMG'
p923
I1
sS'LAKT'
p924
I4
sS'LVEW'
p925
I5
sS'IDIG'
p926
I4
sS'MTDS'
p927
I1
sS'VDNS'
p928
I4
sS'PRDY'
p929
I2
sS'GRLG'
p930
I5
sS'PSYG'
p931
I21
sS'GLLG'
p932
I1
sS'HQRE'
p933
I6
sS'LKQK'
p934
I1
sS'LFSG'
p935
I4
sS'GRLP'
p936
I1
sS'SEIS'
p937
I4
sS'NFVS'
p938
I1
sS'SEIP'
p939
I2
sS'DPES'
p940
I1
sS'NKFA'
p941
I12
sS'NKFE'
p942
I2
sS'QPKR'
p943
I2
sS'EEKI'
p944
I3
sS'SGMT'
p945
I5
sS'KPAD'
p946
I1
sS'SEID'
p947
I1
sS'DPKY'
p948
I17
sS'EHCD'
p949
I7
sS'QPEK'
p950
I2
sS'HQLE'
p951
I12
sS'AEIP'
p952
I1
sS'AEIS'
p953
I1
sS'KGAT'
p954
I1
sS'AEIY'
p955
I1
sS'KGAS'
p956
I28
sS'QCGP'
p957
I4
sS'QCGS'
p958
I1
sS'DPKM'
p959
I4
sS'DPKL'
p960
I8
sS'DPKN'
p961
I5
sS'NDPV'
p962
I2
sS'KEGE'
p963
I1
sS'TQAG'
p964
I2
sS'SDSD'
p965
I4
sS'LEAM'
p966
I1
sS'SRRE'
p967
I1
sS'NFXD'
p968
I1
sS'AGIN'
p969
I1
sS'GKAS'
p970
I1
sS'YQVK'
p971
I1
sS'GDGP'
p972
I1
sS'GDGQ'
p973
I1
sS'KNGV'
p974
I4
sS'DVGR'
p975
I6
sS'DVGQ'
p976
I1
sS'TLMA'
p977
I9
sS'KNGI'
p978
I1
sS'EQPN'
p979
I1
sS'LMGE'
p980
I1
sS'EEYK'
p981
I1
sS'MERC'
p982
I1
sS'TLMN'
p983
I9
sS'FHTT'
p984
I4
sS'SASS'
p985
I3
sS'KEYG'
p986
I1
sS'DGIV'
p987
I1
sS'KAIT'
p988
I7
sS'KAIQ'
p989
I4
sS'TVIP'
p990
I1
sS'DGII'
p991
I15
sS'PHPV'
p992
I1
sS'NKLV'
p993
I6
sS'HIYD'
p994
I5
sS'SKPV'
p995
I5
sS'AHNH'
p996
I4
sS'TKIC'
p997
I1
sS'NSAL'
p998
I1
sS'EYPE'
p999
I9
sS'NPAD'
p1000
I1
sS'KEGK'
p1001
I1
sS'AHNY'
p1002
I2
sS'RATY'
p1003
I1
sS'AQFL'
p1004
I5
sS'KLYE'
p1005
I1
sS'SRDV'
p1006
I1
sS'LFAS'
p1007
I1
sS'AMVS'
p1008
I5
sS'KFME'
p1009
I1
sS'MTVY'
p1010
I8
sS'SQQA'
p1011
I1
sS'GYGD'
p1012
I1
sS'PQKE'
p1013
I5
sS'KDQE'
p1014
I1
sS'DFKG'
p1015
I1
sS'LFAL'
p1016
I1
sS'GQPQ'
p1017
I1
sS'GQPR'
p1018
I2
sS'KLEG'
p1019
I1
sS'VYGL'
p1020
I12
sS'KLEN'
p1021
I2
sS'DIFQ'
p1022
I10
sS'VYGV'
p1023
I2
sS'PRKR'
p1024
I1
sS'NGNM'
p1025
I4
sS'SAEV'
p1026
I18
sS'TIIP'
p1027
I1
sS'VNQA'
p1028
I1
sS'GQPK'
p1029
I2
sS'HFYP'
p1030
I1
sS'AADG'
p1031
I3
sS'QLEN'
p1032
I16
sS'KDMA'
p1033
I10
sS'RRFQ'
p1034
I2
sS'LPHT'
p1035
I1
sS'NANF'
p1036
I1
sS'TNQY'
p1037
I1
sS'LPHD'
p1038
I1
sS'RRFD'
p1039
I4
sS'RRFE'
p1040
I3
sS'MANR'
p1041
I10
sS'QERR'
p1042
I3
sS'PSQM'
p1043
I2
sS'LMNS'
p1044
I1
sS'NQEQ'
p1045
I1
sS'SSMS'
p1046
I5
sS'LMNK'
p1047
I5
sS'FNRG'
p1048
I8
sS'KQME'
p1049
I15
sS'LMNL'
p1050
I4
sS'NMAC'
p1051
I4
sS'QERN'
p1052
I4
sS'SSMA'
p1053
I1
sS'YQDD'
p1054
I2
sS'QERK'
p1055
I4
sS'YDQK'
p1056
I4
sS'SQAK'
p1057
I2
sS'NSQM'
p1058
I1
sS'SQAG'
p1059
I38
sS'GIGT'
p1060
I2
sS'CVQR'
p1061
I4
sS'KPFD'
p1062
I4
sS'SQAP'
p1063
I1
sS'QNGT'
p1064
I1
sS'DLWE'
p1065
I10
sS'EYDP'
p1066
I1
sS'GEAP'
p1067
I1
sS'RGPA'
p1068
I11
sS'NPPS'
p1069
I4
sS'KQQR'
p1070
I3
sS'PGPG'
p1071
I2
sS'YMTH'
p1072
I4
sS'TGLS'
p1073
I5
sS'EALT'
p1074
I1
sS'QCAE'
p1075
I6
sS'EALE'
p1076
I2
sS'TGLG'
p1077
I1
sS'FEGK'
p1078
I3
sS'WTLA'
p1079
I2
sS'WTLE'
p1080
I1
sS'QPVD'
p1081
I4
sS'KVNE'
p1082
I10
sS'KVND'
p1083
I2
sS'SQSG'
p1084
I5
sS'VYYY'
p1085
I1
sS'TQLR'
p1086
I1
sS'HNYY'
p1087
I7
sS'SMAN'
p1088
I4
sS'KVNV'
p1089
I7
sS'ENKR'
p1090
I1
sS'KVNS'
p1091
I1
sS'TLQP'
p1092
I4
sS'RIGN'
p1093
I5
sS'KVRD'
p1094
I1
sS'LSDG'
p1095
I1
sS'TTYE'
p1096
I1
sS'VLKD'
p1097
I1
sS'LGPK'
p1098
I2
sS'EGQN'
p1099
I1
sS'SYGL'
p1100
I16
sS'WLKD'
p1101
I4
sS'ELKQ'
p1102
I1
sS'NVLR'
p1103
I1
sS'ADDA'
p1104
I1
sS'TPIT'
p1105
I1
sS'EKPD'
p1106
I1
sS'WLKN'
p1107
I5
sS'NIGN'
p1108
I13
sS'KASE'
p1109
I1
sS'KGFH'
p1110
I4
sS'LING'
p1111
I1
sS'IANV'
p1112
I1
sS'IANR'
p1113
I1
sS'SYGS'
p1114
I1
sS'SYGR'
p1115
I1
sS'SMSL'
p1116
I5
sS'PDPG'
p1117
I2
sS'PVYY'
p1118
I1
sS'QRTL'
p1119
I14
sS'IIVQ'
p1120
I1
sS'QRTV'
p1121
I1
sS'SMSS'
p1122
I1
sS'GIIL'
p1123
I13
sS'SYGM'
p1124
I9
sS'STIS'
p1125
I8
sS'STIP'
p1126
I1
sS'NVLS'
p1127
I1
sS'SPKS'
p1128
I1
sS'EHKR'
p1129
I5
sS'SGQN'
p1130
I1
sS'APTN'
p1131
I1
sS'IPLQ'
p1132
I2
sS'SMAF'
p1133
I1
sS'LERA'
p1134
I1
sS'RNQV'
p1135
I1
sS'SMAK'
p1136
I7
sS'WEGK'
p1137
I10
sS'PDFQ'
p1138
I5
sS'DQPL'
p1139
I8
sS'GESM'
p1140
I1
sS'QGPA'
p1141
I2
sS'INTT'
p1142
I4
sS'QPLD'
p1143
I9
sS'KKVN'
p1144
I10
sS'TSAS'
p1145
I1
sS'EDYE'
p1146
I1
sS'QSDV'
p1147
I1
sS'IRLS'
p1148
I1
sS'VGRP'
p1149
I7
sS'ESKM'
p1150
I6
sS'HTVG'
p1151
I1
sS'LERL'
p1152
I1
sS'INEN'
p1153
I1
sS'FEKK'
p1154
I1
sS'PENP'
p1155
I4
sS'DGVI'
p1156
I3
sS'SGPV'
p1157
I1
sS'GMKP'
p1158
I4
sS'FGTC'
p1159
I1
sS'NGTN'
p1160
I1
sS'CASQ'
p1161
I14
sS'INES'
p1162
I1
sS'THNH'
p1163
I3
sS'LIRG'
p1164
I1
sS'FLGP'
p1165
I1
sS'SIKP'
p1166
I1
sS'MTGY'
p1167
I14
sS'QARA'
p1168
I1
sS'FQPE'
p1169
I2
sS'YGIN'
p1170
I4
sS'MTGK'
p1171
I1
sS'MTGF'
p1172
I10
sS'TQCR'
p1173
I4
sS'FTDS'
p1174
I2
sS'CAAP'
p1175
I4
sS'NIIG'
p1176
I11
sS'PQTE'
p1177
I2
sS'SNRG'
p1178
I4
sS'QYAS'
p1179
I2
sS'NDGH'
p1180
I4
sS'NDGN'
p1181
I1
sS'ALTG'
p1182
I1
sS'VLSQ'
p1183
I1
sS'PVLG'
p1184
I1
sS'ALIR'
p1185
I1
sS'VFKQ'
p1186
I5
sS'LKLD'
p1187
I1
sS'GPKL'
p1188
I1
sS'VDSN'
p1189
I1
sS'INSL'
p1190
I8
sS'IEEV'
p1191
I4
sS'DMAA'
p1192
I10
sS'FEER'
p1193
I1
sS'GPKP'
p1194
I1
sS'IEEE'
p1195
I1
sS'YQEE'
p1196
I3
sS'RNTQ'
p1197
I2
sS'RNTT'
p1198
I2
sS'GTSR'
p1199
I1
sS'PVPH'
p1200
I1
sS'MNSI'
p1201
I1
sS'MSIG'
p1202
I2
sS'RNTN'
p1203
I1
sS'KPVK'
p1204
I5
sS'HCTI'
p1205
I1
sS'VIPS'
p1206
I1
sS'NQVA'
p1207
I1
sS'TLNV'
p1208
I7
sS'TNLF'
p1209
I1
sS'EEVL'
p1210
I1
sS'DVDI'
p1211
I1
sS'RTVM'
p1212
I1
sS'VPDI'
p1213
I1
sS'AERY'
p1214
I4
sS'AYMS'
p1215
I1
sS'PKQA'
p1216
I1
sS'DADL'
p1217
I9
sS'EGVH'
p1218
I1
sS'DADD'
p1219
I1
sS'KLVD'
p1220
I6
sS'KLVN'
p1221
I4
sS'EGVT'
p1222
I7
sS'TTFE'
p1223
I1
sS'EGVR'
p1224
I1
sS'IIPK'
p1225
I1
sS'RRGF'
p1226
I6
sS'FTEE'
p1227
I1
sS'SQTG'
p1228
I1
sS'EAND'
p1229
I18
sS'RNFD'
p1230
I5
sS'TIVS'
p1231
I1
sS'ERAV'
p1232
I1
sS'RRGT'
p1233
I1
sS'FTES'
p1234
I2
sS'IASK'
p1235
I5
sS'RNFS'
p1236
I3
sS'RTWI'
p1237
I2
sS'SAHF'
p1238
I7
sS'GVSQ'
p1239
I1
sS'IVQC'
p1240
I1
sS'LGSL'
p1241
I5
sS'RVWI'
p1242
I2
sS'KASA'
p1243
I1
sS'ADGA'
p1244
I5
sS'SAHP'
p1245
I1
sS'LGSV'
p1246
I6
sS'GQCV'
p1247
I5
sS'SAFL'
p1248
I1
sS'GSEI'
p1249
I4
sS'PTTN'
p1250
I1
sS'KFEE'
p1251
I1
sS'PPTM'
p1252
I1
sS'KLDR'
p1253
I1
sS'AMKG'
p1254
I1
sS'TNII'
p1255
I1
sS'PKIN'
p1256
I5
sS'LFEK'
p1257
I1
sS'IEKQ'
p1258
I4
sS'ISLQ'
p1259
I21
sS'GGLA'
p1260
I4
sS'KDLA'
p1261
I1
sS'LMSS'
p1262
I2
sS'NAQD'
p1263
I1
sS'MEQI'
p1264
I11
sS'ATQK'
p1265
I1
sS'EMTG'
p1266
I1
sS'ATQA'
p1267
I2
sS'SLLA'
p1268
I5
sS'LFEG'
p1269
I3
sS'PKIS'
p1270
I6
sS'LQEI'
p1271
I1
sS'VGVK'
p1272
I7
sS'CLTP'
p1273
I6
sS'PDGS'
p1274
I3
sS'YSHE'
p1275
I1
sS'GMLA'
p1276
I3
sS'LQEG'
p1277
I8
sS'LGEP'
p1278
I5
sS'FINK'
p1279
I7
sS'LEQI'
p1280
I4
sS'LEQL'
p1281
I1
sS'QSEI'
p1282
I3
sS'QAEY'
p1283
I4
sS'QSEA'
p1284
I1
sS'QGQN'
p1285
I6
sS'TDKC'
p1286
I5
sS'TQTR'
p1287
I1
sS'RSMQ'
p1288
I5
sS'QAEE'
p1289
I4
sS'EFIN'
p1290
I7
sS'TDKP'
p1291
I4
sS'AVPK'
p1292
I1
sS'EQQL'
p1293
I1
sS'TFEA'
p1294
I1
sS'MFQT'
p1295
I5
sS'WEVL'
p1296
I2
sS'QLVN'
p1297
I1
sS'EWII'
p1298
I1
sS'GNNV'
p1299
I2
sS'PQGP'
p1300
I2
sS'DQAT'
p1301
I8
sS'RYGI'
p1302
I4
sS'GNNF'
p1303
I5
sS'KIEQ'
p1304
I6
sS'YCDA'
p1305
I1
sS'PGSA'
p1306
I1
sS'KKIN'
p1307
I2
sS'PGSV'
p1308
I18
sS'HLKR'
p1309
I2
sS'KIEG'
p1310
I1
sS'LMDG'
p1311
I6
sS'KIEE'
p1312
I1
sS'TGLK'
p1313
I1
sS'KIEK'
p1314
I9
sS'EAMK'
p1315
I2
sS'FGTG'
p1316
I2
sS'QPIQ'
p1317
I1
sS'FGTA'
p1318
I2
sS'DILK'
p1319
I1
sS'VDLY'
p1320
I2
sS'VDLW'
p1321
I10
sS'FQSA'
p1322
I1
sS'GGFL'
p1323
I1
sS'EISD'
p1324
I4
sS'MKGY'
p1325
I1
sS'FGTP'
p1326
I4
sS'FGTS'
p1327
I1
sS'VDLF'
p1328
I10
sS'GRNI'
p1329
I9
sS'QAST'
p1330
I3
sS'PVEP'
p1331
I1
sS'SEKQ'
p1332
I5
sS'GFGT'
p1333
I8
sS'GFGS'
p1334
I1
sS'GFGQ'
p1335
I2
sS'LFQT'
p1336
I1
sS'AGYM'
p1337
I4
sS'DPGE'
p1338
I2
sS'KRWT'
p1339
I1
sS'KPGC'
p1340
I1
sS'GFGA'
p1341
I1
sS'HEKP'
p1342
I1
sS'GYTQ'
p1343
I5
sS'VEPE'
p1344
I1
sS'ETQK'
p1345
I1
sS'RGDP'
p1346
I4
sS'NKVN'
p1347
I7
sS'FPAG'
p1348
I1
sS'NKVA'
p1349
I4
sS'NTIF'
p1350
I1
sS'YKKE'
p1351
I1
sS'LEGK'
p1352
I1
sS'LQSD'
p1353
I1
sS'LQSG'
p1354
I10
sS'LQSK'
p1355
I1
sS'YKKK'
p1356
I1
sS'TVAD'
p1357
I2
sS'PDQS'
p1358
I2
sS'SDQG'
p1359
I1
sS'TKYG'
p1360
I7
sS'KEWI'
p1361
I1
sS'DPQK'
p1362
I5
sS'VPEY'
p1363
I2
sS'IQWI'
p1364
I4
sS'SEEQ'
p1365
I6
sS'GVPD'
p1366
I1
sS'AGKA'
p1367
I5
sS'LIQW'
p1368
I4
sS'MVDS'
p1369
I2
sS'SGQV'
p1370
I5
sS'LRNW'
p1371
I4
sS'GVPV'
p1372
I1
sS'FHRK'
p1373
I6
sS'DPQT'
p1374
I2
sS'EQVA'
p1375
I4
sS'GASR'
p1376
I1
sS'MNLG'
p1377
I4
sS'WNIT'
p1378
I1
sS'FVSE'
p1379
I1
sS'DVQS'
p1380
I1
sS'YPPG'
p1381
I6
sS'KMVD'
p1382
I2
sS'KEAE'
p1383
I5
sS'KEAQ'
p1384
I1
sS'AQDA'
p1385
I1
sS'MQNW'
p1386
I5
sS'EGEK'
p1387
I1
sS'YPPY'
p1388
I2
sS'HRNQ'
p1389
I1
sS'YGDD'
p1390
I2
sS'PEMT'
p1391
I1
sS'QRSE'
p1392
I1
sS'MRTH'
p1393
I1
sS'MTHF'
p1394
I4
sS'YGDQ'
p1395
I1
sS'PEMD'
p1396
I1
sS'NWIE'
p1397
I4
sS'YGDY'
p1398
I1
sS'PSMV'
p1399
I4
sS'DTKL'
p1400
I5
sS'TTIS'
p1401
I4
sS'QATQ'
p1402
I1
sS'TTIP'
p1403
I1
sS'PHDI'
p1404
I13
sS'CRKG'
p1405
I1
sS'CRKD'
p1406
I2
sS'GATQ'
p1407
I1
sS'PHDR'
p1408
I1
sS'TTID'
p1409
I4
sS'PMDH'
p1410
I5
sS'IQQI'
p1411
I1
sS'IEHP'
p1412
I6
sS'IREE'
p1413
I1
sS'QKKM'
p1414
I1
sS'QLGL'
p1415
I4
sS'PITQ'
p1416
I1
sS'LMRT'
p1417
I1
sS'AVAR'
p1418
I4
sS'VNSL'
p1419
I5
sS'KQAG'
p1420
I1
sS'VNSS'
p1421
I1
sS'RETT'
p1422
I4
sS'RLGF'
p1423
I5
sS'ISMA'
p1424
I4
sS'HQQE'
p1425
I1
sS'NGLY'
p1426
I1
sS'NQYA'
p1427
I2
sS'RPRQ'
p1428
I5
sS'VDPF'
p1429
I1
sS'RWNI'
p1430
I1
sS'FSGD'
p1431
I4
sS'FXDG'
p1432
I1
sS'INRS'
p1433
I5
sS'KAKT'
p1434
I5
sS'LFPE'
p1435
I1
sS'CSID'
p1436
I1
sS'QEPI'
p1437
I6
sS'TYKH'
p1438
I1
sS'PVQN'
p1439
I2
sS'PVQI'
p1440
I1
sS'GTRR'
p1441
I26
sS'TLAQ'
p1442
I2
sS'VTSP'
p1443
I1
sS'EDVL'
p1444
I1
sS'PTEP'
p1445
I4
sS'MENI'
p1446
I2
sS'QFNK'
p1447
I5
sS'QLQE'
p1448
I8
sS'SLYP'
p1449
I13
sS'DLYE'
p1450
I2
sS'SVKA'
p1451
I1
sS'TSQA'
p1452
I1
sS'TMET'
p1453
I2
sS'QSTL'
p1454
I9
sS'EFSE'
p1455
I1
sS'NMGK'
p1456
I1
sS'PGRA'
p1457
I5
sS'PGRE'
p1458
I4
sS'QVTS'
p1459
I1
sS'QVTR'
p1460
I1
sS'SKLV'
p1461
I4
sS'LCTL'
p1462
I5
sS'RNII'
p1463
I9
sS'YKHA'
p1464
I1
sS'GVLC'
p1465
I1
sS'PGRT'
p1466
I1
sS'RYFS'
p1467
I1
sS'RNIP'
p1468
I1
sS'DPFG'
p1469
I1
sS'PAQE'
p1470
I1
sS'SGGQ'
p1471
I1
sS'PAQP'
p1472
I1
sS'TIFA'
p1473
I1
sS'RTTD'
p1474
I6
sS'DDYP'
p1475
I3
sS'IAPD'
p1476
I1
sS'VKGK'
p1477
I2
sS'IGLQ'
p1478
I34
sS'PPGQ'
p1479
I6
sS'LGRT'
p1480
I1
sS'PPGS'
p1481
I1
sS'PPGR'
p1482
I6
sS'LGRQ'
p1483
I9
sS'AQNP'
p1484
I1
sS'IVPL'
p1485
I1
sS'IVPN'
p1486
I1
sS'EFTE'
p1487
I3
sS'LGRA'
p1488
I1
sS'ADFK'
p1489
I1
sS'RKAQ'
p1490
I6
sS'PPGL'
p1491
I1
sS'PRGY'
p1492
I1
sS'IALA'
p1493
I2
sS'GLSI'
p1494
I4
sS'ALYP'
p1495
I1
sS'SVGP'
p1496
I1
sS'HYKK'
p1497
I1
sS'AELR'
p1498
I5
sS'GLSA'
p1499
I18
sS'AELP'
p1500
I1
sS'HQAE'
p1501
I2
sS'NTNH'
p1502
I9
sS'EVLD'
p1503
I2
sS'KRDK'
p1504
I1
sS'GLSV'
p1505
I1
sS'EVLM'
p1506
I1
sS'GLSR'
p1507
I9
sS'PDRG'
p1508
I5
sS'KGDS'
p1509
I3
sS'IEEP'
p1510
I1
sS'GSKP'
p1511
I5
sS'VDSK'
p1512
I1
sS'LNPE'
p1513
I1
sS'GWNR'
p1514
I1
sS'GQNV'
p1515
I7
sS'GWNK'
p1516
I3
sS'TPEY'
p1517
I6
sS'MSLQ'
p1518
I5
sS'MKVS'
p1519
I1
sS'QTRR'
p1520
I4
sS'QTRV'
p1521
I1
sS'GCIK'
p1522
I1
sS'PGLL'
p1523
I1
sS'VQNW'
p1524
I2
sS'PGLG'
p1525
I8
sS'SVGR'
p1526
I1
sS'YPSG'
p1527
I1
sS'ANKG'
p1528
I5
sS'AQET'
p1529
I1
sS'AQEW'
p1530
I1
sS'DATM'
p1531
I5
sS'AQEN'
p1532
I1
sS'AQEH'
p1533
I5
sS'WFPK'
p1534
I4
sS'KNVI'
p1535
I4
sS'HKLE'
p1536
I2
sS'FLKV'
p1537
I1
sS'YSDQ'
p1538
I1
sS'NWHQ'
p1539
I12
sS'PSLG'
p1540
I1
sS'PELS'
p1541
I1
sS'QKSE'
p1542
I1
sS'DYSH'
p1543
I1
sS'NWHK'
p1544
I2
sS'FLKA'
p1545
I11
sS'PELD'
p1546
I1
sS'PELG'
p1547
I5
sS'KVSE'
p1548
I1
sS'QAPV'
p1549
I4
sS'VTRT'
p1550
I1
sS'QAPT'
p1551
I1
sS'TQAR'
p1552
I1
sS'QAPS'
p1553
I1
sS'FGSG'
p1554
I1
sS'GLAS'
p1555
I1
sS'RAIK'
p1556
I2
sS'GLAV'
p1557
I4
sS'LKRI'
p1558
I2
sS'GLAK'
p1559
I4
sS'FLEA'
p1560
I1
sS'ASRF'
p1561
I1
sS'GYGM'
p1562
I10
sS'YDQQ'
p1563
I2
sS'GKAK'
p1564
I5
sS'SSVG'
p1565
I1
sS'TGRD'
p1566
I1
sS'ASRE'
p1567
I1
sS'QMSS'
p1568
I1
sS'SMGG'
p1569
I1
sS'KRVG'
p1570
I2
sS'HCDT'
p1571
I7
sS'NFQK'
p1572
I2
sS'ALKE'
p1573
I2
sS'NFQN'
p1574
I3
sS'NFQL'
p1575
I4
sS'MAKT'
p1576
I7
sS'TGRR'
p1577
I10
sS'REEQ'
p1578
I1
sS'QKEA'
p1579
I5
sS'NWFP'
p1580
I4
sS'LINV'
p1581
I1
sS'LKNG'
p1582
I5
sS'KALK'
p1583
I1
sS'LINS'
p1584
I8
sS'QEQP'
p1585
I1
sS'LINK'
p1586
I6
sS'EIDS'
p1587
I1
sS'QEQE'
p1588
I1
sS'NWFM'
p1589
I5
sS'LINA'
p1590
I1
sS'DFTE'
p1591
I1
sS'VPPP'
p1592
I1
sS'QEHK'
p1593
I5
sS'RLVE'
p1594
I5
sS'EDYG'
p1595
I5
sS'LCKL'
p1596
I9
sS'SEPT'
p1597
I1
sS'SEPV'
p1598
I2
sS'EDWS'
p1599
I1
sS'GFHT'
p1600
I4
sS'SGVD'
p1601
I4
sS'AGDY'
p1602
I1
sS'LDPS'
p1603
I2
sS'DMAN'
p1604
I1
sS'AGDS'
p1605
I1
sS'EETK'
p1606
I1
sS'GKDL'
p1607
I1
sS'GKDM'
p1608
I9
sS'GKDI'
p1609
I1
sS'CQTH'
p1610
I1
sS'AGDG'
p1611
I2
sS'YFSD'
p1612
I1
sS'AGDC'
p1613
I1
sS'QIIS'
p1614
I5
sS'TKDD'
p1615
I6
sS'IISM'
p1616
I5
sS'TVDL'
p1617
I17
sS'LQCA'
p1618
I6
sS'ENLA'
p1619
I1
sS'NLSN'
p1620
I5
sS'HFNR'
p1621
I7
sS'TKDK'
p1622
I1
sS'GDDQ'
p1623
I2
sS'KLTL'
p1624
I4
sS'ESGN'
p1625
I5
sS'YPDG'
p1626
I3
sS'MEQV'
p1627
I4
sS'ENLQ'
p1628
I1
sS'ENLS'
p1629
I5
sS'SQVG'
p1630
I5
sS'GTGD'
p1631
I2
sS'IAQV'
p1632
I1
sS'LCEF'
p1633
I7
sS'LCEL'
p1634
I8
sS'YDAD'
p1635
I9
sS'GTGR'
p1636
I2
sS'GTGT'
p1637
I4
sS'IAQF'
p1638
I1
sS'ECKR'
p1639
I1
sS'LAYC'
p1640
I1
sS'GNKV'
p1641
I7
sS'LSAE'
p1642
I18
sS'EEVT'
p1643
I4
sS'PRDV'
p1644
I2
sS'IDQT'
p1645
I1
sS'PYED'
p1646
I1
sS'GATG'
p1647
I2
sS'YEAM'
p1648
I1
sS'PYEA'
p1649
I1
sS'GQSY'
p1650
I1
sS'QSGQ'
p1651
I5
sS'LKEW'
p1652
I1
sS'TRRH'
p1653
I22
sS'DTLN'
p1654
I7
sS'ESQL'
p1655
I3
sS'TRRD'
p1656
I4
sS'TRRF'
p1657
I4
sS'VASQ'
p1658
I4
sS'GQSV'
p1659
I4
sS'RFQV'
p1660
I1
sS'RFQP'
p1661
I2
sS'ESQR'
p1662
I1
sS'SMVF'
p1663
I4
sS'MIGF'
p1664
I2
sS'QEGK'
p1665
I8
sS'MPFK'
p1666
I1
sS'REWI'
p1667
I7
sS'SSVD'
p1668
I1
sS'PKKS'
p1669
I4
sS'DIAQ'
p1670
I1
sS'LGGL'
p1671
I4
sS'GMNP'
p1672
I5
sS'HPPP'
p1673
I6
sS'SPHP'
p1674
I1
sS'LEWI'
p1675
I1
sS'TQKG'
p1676
I1
sS'MLAP'
p1677
I3
sS'RVKS'
p1678
I2
sS'GRPR'
p1679
I5
sS'IIGL'
p1680
I11
sS'QNRK'
p1681
I2
sS'YCLN'
p1682
I1
sS'GEVR'
p1683
I2
sS'QSGT'
p1684
I6
sS'GEVP'
p1685
I2
sS'QSGV'
p1686
I4
sS'QGSA'
p1687
I1
sS'QQGM'
p1688
I11
sS'TDMF'
p1689
I5
sS'APPG'
p1690
I1
sS'QNRR'
p1691
I6
sS'QSGM'
p1692
I5
sS'MDGL'
p1693
I8
sS'ATMP'
p1694
I1
sS'DGTV'
p1695
I11
sS'GEDI'
p1696
I1
sS'REYQ'
p1697
I2
sS'EKLR'
p1698
I8
sS'ATMK'
p1699
I5
sS'TSPK'
p1700
I1
sS'ATME'
p1701
I2
sS'KQTR'
p1702
I4
sS'QQIR'
p1703
I1
sS'QGAN'
p1704
I5
sS'GEDG'
p1705
I1
sS'DYGL'
p1706
I1
sS'DGHY'
p1707
I4
sS'KMTS'
p1708
I1
sS'IVMQ'
p1709
I2
sS'VKTD'
p1710
I1
sS'KMTD'
p1711
I1
sS'LAGK'
p1712
I5
sS'TNKG'
p1713
I13
sS'RTCQ'
p1714
I1
sS'QVSL'
p1715
I5
sS'RAHF'
p1716
I5
sS'YGTR'
p1717
I17
sS'SEAL'
p1718
I1
sS'MKAG'
p1719
I5
sS'GNTF'
p1720
I1
sS'VIKT'
p1721
I2
sS'HGVL'
p1722
I1
sS'SRER'
p1723
I1
sS'ARRE'
p1724
I2
sS'KRIW'
p1725
I2
sS'YDPE'
p1726
I1
sS'YDPD'
p1727
I1
sS'YDPK'
p1728
I34
sS'DRGR'
p1729
I5
sS'QVAL'
p1730
I1
sS'KIIP'
p1731
I1
sS'APVK'
p1732
I4
sS'WIIL'
p1733
I6
sS'HGEY'
p1734
I4
sS'HGEV'
p1735
I2
sS'EYKP'
p1736
I1
sS'QVAQ'
p1737
I4
sS'LGIG'
p1738
I1
sS'LEER'
p1739
I4
sS'IMMA'
p1740
I6
sS'RSPR'
p1741
I1
sS'VQST'
p1742
I9
sS'LEEY'
p1743
I1
sS'VQSK'
p1744
I5
sS'PYYQ'
p1745
I3
sS'KGET'
p1746
I1
sS'PDSP'
p1747
I1
sS'RQLR'
p1748
I2
sS'GVRT'
p1749
I6
sS'GVRV'
p1750
I1
sS'PLDQ'
p1751
I8
sS'AGEV'
p1752
I1
sS'NFLR'
p1753
I2
sS'PLDE'
p1754
I1
sS'AGEL'
p1755
I1
sS'SEGI'
p1756
I2
sS'DDGL'
p1757
I4
sS'LDQA'
p1758
I8
sS'DPSI'
p1759
I2
sS'PVAD'
p1760
I1
sS'DDGC'
p1761
I6
sS'PHVQ'
p1762
I1
sS'MDGT'
p1763
I6
sS'EGIV'
p1764
I2
sS'KCAS'
p1765
I14
sS'TKGF'
p1766
I4
sS'PHTV'
p1767
I1
sS'TKGN'
p1768
I9
sS'TKGL'
p1769
I5
sS'DVCR'
p1770
I2
sS'AQPA'
p1771
I1
sS'QIFE'
p1772
I8
sS'WNKG'
p1773
I3
sS'PRYF'
p1774
I1
sS'YIAP'
p1775
I1
sS'YPRE'
p1776
I2
sS'YPRD'
p1777
I2
sS'VALA'
p1778
I4
sS'VALG'
p1779
I1
sS'HTQV'
p1780
I9
sS'ADLA'
p1781
I1
sS'CLNP'
p1782
I1
sS'EGGE'
p1783
I1
sS'GTAR'
p1784
I2
sS'FETQ'
p1785
I1
sS'VSQP'
p1786
I1
sS'PEKL'
p1787
I8
sS'ILQC'
p1788
I6
sS'WQNR'
p1789
I2
sS'DHQR'
p1790
I6
sS'DHQQ'
p1791
I1
sS'AAGD'
p1792
I3
sS'KNMA'
p1793
I4
sS'KLAQ'
p1794
I9
sS'IRGR'
p1795
I1
sS'TTKM'
p1796
I3
sS'TIVG'
p1797
I1
sS'DHQA'
p1798
I2
sS'MNPV'
p1799
I5
sS'TTKI'
p1800
I1
sS'ENAT'
p1801
I1
sS'PRWN'
p1802
I1
sS'FYNS'
p1803
I1
sS'LAGL'
p1804
I4
sS'RGFS'
p1805
I6
sS'KDIE'
p1806
I1
sS'KDIA'
p1807
I2
sS'REVQ'
p1808
I14
sS'IQAY'
p1809
I4
sS'ILCT'
p1810
I5
sS'GRTC'
p1811
I1
sS'PEYS'
p1812
I1
sS'PEYP'
p1813
I9
sS'EKQT'
p1814
I4
sS'EKQY'
p1815
I4
sS'NHHA'
p1816
I2
sS'PEYD'
p1817
I2
sS'ILCE'
p1818
I12
sS'KAMV'
p1819
I5
sS'EKQE'
p1820
I11
sS'PEYL'
p1821
I1
sS'DYGV'
p1822
I5
sS'NHHP'
p1823
I5
sS'SSID'
p1824
I1
sS'SSIG'
p1825
I1
sS'GVDI'
p1826
I4
sS'QFLQ'
p1827
I4
sS'GTPR'
p1828
I4
sS'RNWI'
p1829
I4
sS'MELI'
p1830
I1
sS'RPDR'
p1831
I5
sS'PAAD'
p1832
I2
sS'RPDQ'
p1833
I1
sS'SEQR'
p1834
I1
sS'VIGL'
p1835
I23
sS'GDYG'
p1836
I1
sS'ISLD'
p1837
I1
sS'QFLK'
p1838
I11
sS'LTPE'
p1839
I6
sS'TMKA'
p1840
I5
sS'RGTE'
p1841
I1
sS'ISQF'
p1842
I10
sS'EYLA'
p1843
I1
sS'EYHG'
p1844
I4
sS'GEED'
p1845
I1
sS'VKKV'
p1846
I10
sS'KKDI'
p1847
I2
sS'DWSD'
p1848
I1
sS'SIVP'
p1849
I1
sS'NSIK'
p1850
I1
sS'APAG'
p1851
I1
sS'APAA'
p1852
I2
sS'QSVI'
p1853
I4
sS'THFQ'
p1854
I1
sS'VKKI'
p1855
I5
sS'VKKK'
p1856
I1
sS'MSVY'
p1857
I4
sS'IGNN'
p1858
I5
sS'VTGM'
p1859
I3
sS'VTGL'
p1860
I1
sS'ERNF'
p1861
I4
sS'IGNF'
p1862
I13
sS'VTGR'
p1863
I7
sS'VTGQ'
p1864
I1
sS'SAKL'
p1865
I1
sS'PFDQ'
p1866
I4
sS'DNSS'
p1867
I5
sS'TISL'
p1868
I21
sS'DNST'
p1869
I4
sS'QNKF'
p1870
I1
sS'PREY'
p1871
I2
sS'DSNH'
p1872
I1
sS'LGTD'
p1873
I13
sS'YYNS'
p1874
I7
sS'DHCT'
p1875
I1
sS'VKYA'
p1876
I13
sS'GLQM'
p1877
I34
sS'NKGD'
p1878
I3
sS'GLQA'
p1879
I1
sS'WSDT'
p1880
I1
sS'VKYS'
p1881
I5
sS'TQQQ'
p1882
I1
sS'GLQS'
p1883
I5
sS'GLQP'
p1884
I1
sS'ETRV'
p1885
I1
sS'HGDP'
p1886
I1
sS'KGLQ'
p1887
I5
sS'IDVF'
p1888
I1
sS'LQPL'
p1889
I1
sS'RMSE'
p1890
I1
sS'LQPG'
p1891
I18
sS'PDLE'
p1892
I1
sS'DCPG'
p1893
I1
sS'SVAV'
p1894
I6
sS'DCPD'
p1895
I2
sS'LQPQ'
p1896
I1
sS'TERQ'
p1897
I2
sS'LQPV'
p1898
I4
sS'VTKT'
p1899
I2
sS'YDPQ'
p1900
I7
sS'DPDL'
p1901
I1
sS'VWLK'
p1902
I5
sS'RGAS'
p1903
I8
sS'LGFQ'
p1904
I5
sS'MDHC'
p1905
I1
sS'GHYK'
p1906
I1
sS'GHYH'
p1907
I1
sS'SQKL'
p1908
I2
sS'VSLQ'
p1909
I8
sS'MKPH'
p1910
I4
sS'MDHS'
p1911
I4
sS'VSLL'
p1912
I5
sS'MPAQ'
p1913
I1
sS'GHYR'
p1914
I3
sS'APSG'
p1915
I2
sS'APSD'
p1916
I1
sS'AGTN'
p1917
I4
sS'QRNF'
p1918
I1
sS'EEDL'
p1919
I4
sS'KNPT'
p1920
I1
sS'ELPE'
p1921
I1
sS'EEDE'
p1922
I1
sS'KPDQ'
p1923
I1
sS'KQGY'
p1924
I1
sS'TKTD'
p1925
I2
sS'ELPY'
p1926
I2
sS'FYPS'
p1927
I1
sS'AQCG'
p1928
I1
sS'EEDW'
p1929
I1
sS'QIYD'
p1930
I5
sS'ASKR'
p1931
I1
sS'KHLK'
p1932
I2
sS'ILPP'
p1933
I5
sS'ASKY'
p1934
I4
sS'NRRG'
p1935
I6
sS'FKGP'
p1936
I1
sS'INAL'
p1937
I1
sS'LSPR'
p1938
I1
sS'GREN'
p1939
I4
sS'YEAE'
p1940
I1
sS'YEAA'
p1941
I1
sS'FQTV'
p1942
I17
sS'RAKI'
p1943
I1
sS'MVSY'
p1944
I5
sS'VQRT'
p1945
I15
sS'GRKI'
p1946
I1
sS'FGQP'
p1947
I2
sS'GLGA'
p1948
I1
sS'TGTN'
p1949
I4
sS'GLGI'
p1950
I1
sS'NTRV'
p1951
I1
sS'AKTK'
p1952
I18
sS'GLGM'
p1953
I7
sS'ALER'
p1954
I1
sS'YDSQ'
p1955
I2
sS'QPNA'
p1956
I1
sS'GLGR'
p1957
I9
sS'GLGV'
p1958
I2
sS'ALEE'
p1959
I1
sS'NKIA'
p1960
I4
sS'PPPS'
p1961
I1
sS'FEAK'
p1962
I1
sS'QKGM'
p1963
I12
sS'NHIL'
p1964
I5
sS'FEAN'
p1965
I18
sS'KYDA'
p1966
I6
sS'REGV'
p1967
I2
sS'REGR'
p1968
I9
sS'DGLN'
p1969
I1
sS'REGQ'
p1970
I1
sS'QEWI'
p1971
I1
sS'GRWT'
p1972
I2
sS'ACVQ'
p1973
I4
sS'GPGE'
p1974
I2
sS'SISW'
p1975
I2
sS'YAEK'
p1976
I13
sS'FSDN'
p1977
I4
sS'EDIL'
p1978
I2
sS'AAEV'
p1979
I2
sS'LMAN'
p1980
I4
sS'LMAL'
p1981
I9
sS'AMKV'
p1982
I1
sS'VFGL'
p1983
I5
sS'YQAE'
p1984
I4
sS'NSTI'
p1985
I4
sS'LENK'
p1986
I6
sS'SQFL'
p1987
I10
sS'QGTV'
p1988
I2
sS'QFKF'
p1989
I1
sS'SGTN'
p1990
I6
sS'LDRS'
p1991
I1
sS'AEVK'
p1992
I18
sS'SGTG'
p1993
I2
sS'EIYG'
p1994
I1
sS'AEVY'
p1995
I2
sS'SNHP'
p1996
I1
sS'EDIE'
p1997
I6
sS'NFMD'
p1998
I8
sS'HRKA'
p1999
I6
sS'LDRL'
p2000
I2
sS'MQCG'
p2001
I2
sS'VRLQ'
p2002
I6
sS'RFAS'
p2003
I2
sS'AAVQ'
p2004
I11
sS'NLQE'
p2005
I1
sS'IEKK'
p2006
I5
sS'NVTN'
p2007
I1
sS'EERL'
p2008
I4
sS'HADF'
p2009
I1
sS'KENP'
p2010
I4
sS'YLMS'
p2011
I1
sS'KLRE'
p2012
I9
sS'AQQN'
p2013
I6
sS'GVIL'
p2014
I7
sS'LPEE'
p2015
I1
sS'EDMK'
p2016
I1
sS'GVIK'
p2017
I2
sS'GTEF'
p2018
I1
sS'RGEP'
p2019
I6
sS'TLVA'
p2020
I5
sS'LGED'
p2021
I2
sS'EASL'
p2022
I1
sS'CYRG'
p2023
I6
sS'GAVR'
p2024
I1
sS'SALE'
p2025
I1
sS'CIKK'
p2026
I1
sS'DGAP'
p2027
I5
sS'ESSR'
p2028
I1
sS'PPYY'
p2029
I3
sS'MSEG'
p2030
I1
sS'LSQQ'
p2031
I1
sS'TTLV'
p2032
I4
sS'VAVT'
p2033
I6
sS'LSQL'
p2034
I1
sS'ESSI'
p2035
I1
sS'TIDI'
p2036
I4
sS'ESSL'
p2037
I4
sS'PFGH'
p2038
I1
sS'DTNI'
p2039
I1
sS'PKMQ'
p2040
I4
sS'QKIE'
p2041
I5
sS'EPIP'
p2042
I6
sS'SSTQ'
p2043
I5
sS'GGHR'
p2044
I1
sS'QEEA'
p2045
I4
sS'YASQ'
p2046
I3
sS'SSTI'
p2047
I1
sS'NGIV'
p2048
I1
sS'FTPW'
p2049
I1
sS'EVSM'
p2050
I1
sS'IPSQ'
p2051
I6
sS'VGRW'
p2052
I2
sS'EAAL'
p2053
I1
sS'LTGL'
p2054
I6
sS'LQAG'
p2055
I4
sS'SPNA'
p2056
I1
sS'FGHY'
p2057
I1
sS'LQAA'
p2058
I4
sS'QGMV'
p2059
I2
sS'QGMT'
p2060
I11
sS'WELE'
p2061
I2
sS'MDKE'
p2062
I1
sS'VQCG'
p2063
I3
sS'QNPA'
p2064
I1
sS'AIKH'
p2065
I2
sS'QQEQ'
p2066
I1
sS'QMGS'
p2067
I20
sS'DELE'
p2068
I1
sS'QLRA'
p2069
I1
sS'TSRR'
p2070
I1
sS'QLRE'
p2071
I1
sS'QLRQ'
p2072
I8
sS'QLRV'
p2073
I2
sS'KKEW'
p2074
I2
sS'AALK'
p2075
I1
sS'QVQV'
p2076
I5
sS'QVQT'
p2077
I4
sS'DYEA'
p2078
I1
sS'QVQS'
p2079
I9
sS'ITKY'
p2080
I7
sS'ITKD'
p2081
I1
sS'LAEI'
p2082
I1
sS'LAEL'
p2083
I1
sS'FQKW'
p2084
I7
sS'YGVR'
p2085
I6
sS'YGVP'
p2086
I2
sS'YGVV'
p2087
I1
sS'KSKE'
p2088
I4
sS'YGVT'
p2089
I2
sS'TQNW'
p2090
I7
sS'TQTP'
p2091
I1
sS'SKLY'
p2092
I1
sS'YGVK'
p2093
I9
sS'YGVI'
p2094
I2
sS'FALG'
p2095
I2
sS'VVSL'
p2096
I1
sS'WIEG'
p2097
I14
sS'WIEE'
p2098
I4
sS'WIED'
p2099
I1
sS'WIEA'
p2100
I2
sS'QPAQ'
p2101
I1
sS'AEAS'
p2102
I1
sS'GLFS'
p2103
I4
sS'QGQP'
p2104
I2
sS'SGGF'
p2105
I1
sS'AEAG'
p2106
I1
sS'MANK'
p2107
I5
sS'APRD'
p2108
I2
sS'TAYM'
p2109
I1
sS'QAAE'
p2110
I4
sS'KKSE'
p2111
I1
sS'GLPR'
p2112
I8
sS'KKSK'
p2113
I4
sS'TAYG'
p2114
I17
sS'GETP'
p2115
I1
sS'APRS'
p2116
I1
sS'YDNQ'
p2117
I1
sS'IFEP'
p2118
I8
sS'SFYN'
p2119
I1
sS'KGKH'
p2120
I2
sS'IPED'
p2121
I1
sS'IPEE'
p2122
I1
sS'LGKM'
p2123
I1
sS'IFEA'
p2124
I13
sS'NVIG'
p2125
I10
sS'TEQQ'
p2126
I1
sS'TLEQ'
p2127
I1
sS'TNKV'
p2128
I4
sS'NFNR'
p2129
I1
sS'SNKG'
p2130
I16
sS'TNKY'
p2131
I3
sS'EWIE'
p2132
I10
sS'QETK'
p2133
I1
sS'TNKC'
p2134
I14
sS'LRRG'
p2135
I1
sS'GVTG'
p2136
I7
sS'TNKF'
p2137
I13
sS'WYSG'
p2138
I1
sS'SNKY'
p2139
I1
sS'GVTK'
p2140
I2
sS'DMFQ'
p2141
I5
sS'FNNT'
p2142
I1
sS'TNKL'
p2143
I1
sS'AHFQ'
p2144
I5
sS'NYRG'
p2145
I1
sS'ELED'
p2146
I1
sS'ELEE'
p2147
I5
sS'ANFN'
p2148
I1
sS'HVIG'
p2149
I4
sS'NNFQ'
p2150
I1
sS'EGKR'
p2151
I1
sS'EGKL'
p2152
I4
sS'EGKN'
p2153
I9
sS'NYRQ'
p2154
I1
sS'EGKH'
p2155
I4
sS'ANFQ'
p2156
I1
sS'NNFM'
p2157
I5
sS'ELEY'
p2158
I2
sS'QQKI'
p2159
I4
sS'AHFN'
p2160
I7
sS'KGYG'
p2161
I1
sS'QRMI'
p2162
I1
sS'ELSE'
p2163
I1
sS'EEEE'
p2164
I29
sS'EEED'
p2165
I1
sS'VHVN'
p2166
I1
sS'EEEL'
p2167
I2
sS'KQRM'
p2168
I1
sS'SESK'
p2169
I6
sS'EEEK'
p2170
I1
sS'GRDV'
p2171
I2
sS'TNYR'
p2172
I1
sS'ERNI'
p2173
I1
sS'DAQA'
p2174
I1
sS'CKRD'
p2175
I1
sS'YHGD'
p2176
I1
sS'YHGE'
p2177
I4
sS'FKFM'
p2178
I1
sS'QKVN'
p2179
I2
sS'ASLD'
p2180
I1
sS'NRSM'
p2181
I5
sS'GSNQ'
p2182
I1
sS'GSNR'
p2183
I4
sS'AAEI'
p2184
I1
sS'ENGN'
p2185
I4
sS'AAED'
p2186
I5
sS'DHST'
p2187
I4
sS'LSPN'
p2188
I1
sS'GSNF'
p2189
I2
sS'AAET'
p2190
I3
sS'GSNK'
p2191
I17
sS'FPKK'
p2192
I4
sS'AAER'
p2193
I4
sS'KAAE'
p2194
I11
sS'KDGT'
p2195
I7
sS'KQER'
p2196
I11
sS'KDGV'
p2197
I3
sS'YCLT'
p2198
I6
sS'KDGQ'
p2199
I1
sS'PKLA'
p2200
I1
sS'PKLG'
p2201
I8
sS'KDGI'
p2202
I13
sS'NATM'
p2203
I3
sS'KFET'
p2204
I1
sS'FQKA'
p2205
I1
sS'KFEP'
p2206
I4
sS'FQKG'
p2207
I5
sS'KFES'
p2208
I1
sS'REFS'
p2209
I1
sS'REFT'
p2210
I4
sS'INNF'
p2211
I1
sS'GPFL'
p2212
I1
sS'HDIF'
p2213
I13
sS'KLQP'
p2214
I18
sS'ILME'
p2215
I1
sS'ILMA'
p2216
I4
sS'SESQ'
p2217
I1
sS'IHNG'
p2218
I4
sS'SSGG'
p2219
I1
sS'PAGQ'
p2220
I1
sS'TYGV'
p2221
I3
sS'SQGT'
p2222
I4
sS'LDEE'
p2223
I1
sS'SQGM'
p2224
I2
sS'GTVL'
p2225
I11
sS'GTVA'
p2226
I2
sS'LDEP'
p2227
I1
sS'PAGD'
p2228
I1
sS'WLMD'
p2229
I6
sS'DNQE'
p2230
I1
sS'DECK'
p2231
I1
sS'DNQL'
p2232
I4
sS'DKKQ'
p2233
I1
sS'MTAV'
p2234
I1
sS'KKIQ'
p2235
I4
sS'VKIP'
p2236
I1
sS'LVDW'
p2237
I6
sS'LPPM'
p2238
I5
sS'QVPK'
p2239
I1
sS'VKVP'
p2240
I4
sS'PQPT'
p2241
I1
sS'DYDH'
p2242
I1
sS'GTDQ'
p2243
I8
sS'SLGM'
p2244
I1
sS'ERLV'
p2245
I4
sS'ERLR'
p2246
I1
sS'ISAF'
p2247
I1
sS'LCFQ'
p2248
I1
sS'KVTY'
p2249
I1
sS'KVTG'
p2250
I1
sS'GVHV'
p2251
I1
sS'RGDS'
p2252
I1
sS'VKAS'
p2253
I1
sS'GTDK'
p2254
I5
sS'VLMR'
p2255
I1
sS'TPWY'
p2256
I1
sS'VRQA'
p2257
I1
sS'LAVA'
p2258
I4
sS'EAPE'
p2259
I1
sS'LGVK'
p2260
I2
sS'QSVK'
p2261
I1
sS'SAMS'
p2262
I6
sS'LAVT'
p2263
I5
sS'ETTK'
p2264
I4
sS'DIYD'
p2265
I4
sS'ARAQ'
p2266
I1
sS'IGTN'
p2267
I2
sS'QANA'
p2268
I1
sS'KILL'
p2269
I1
sS'TGDC'
p2270
I2
sS'IVLS'
p2271
I1
sS'AKDM'
p2272
I1
sS'YKPV'
p2273
I1
sS'TEPV'
p2274
I4
sS'IIPS'
p2275
I3
sS'RQIY'
p2276
I5
sS'NKYA'
p2277
I1
sS'NKYD'
p2278
I2
sS'ICDS'
p2279
I1
sS'YPEL'
p2280
I7
sS'QTHP'
p2281
I1
sS'RQIF'
p2282
I8
sS'IPDS'
p2283
I1
sS'RQII'
p2284
I5
sS'RQIL'
p2285
I4
sS'YPEE'
p2286
I2
sS'YPEG'
p2287
I6
sS'FMEN'
p2288
I1
sS'EVRL'
p2289
I2
sS'SHEC'
p2290
I1
sS'YYYD'
p2291
I1
sS'VGQP'
p2292
I1
sS'SFNN'
p2293
I1
sS'SVQK'
p2294
I2
sS'PKPA'
p2295
I1
sS'KPHD'
p2296
I13
sS'FGAP'
p2297
I2
sS'GEYP'
p2298
I2
sS'TFLS'
p2299
I1
sS'DKEG'
p2300
I1
sS'DKEA'
p2301
I1
sS'MMAN'
p2302
I6
sS'QWIT'
p2303
I4
sS'SDNQ'
p2304
I4
sS'ELRT'
p2305
I2
sS'ELRS'
p2306
I3
sS'TKVT'
p2307
I1
sS'VAAP'
p2308
I1
sS'ELRE'
p2309
I7
sS'QASS'
p2310
I1
sS'VGMP'
p2311
I1
sS'EQEL'
p2312
I7
sS'VGMT'
p2313
I5
sS'TEFT'
p2314
I1
sS'NLAE'
p2315
I1
sS'YRGD'
p2316
I4
sS'YRGE'
p2317
I6
sS'DAPG'
p2318
I1
sS'HILP'
p2319
I5
sS'AQAN'
p2320
I1
sS'ASMA'
p2321
I7
sS'QKWL'
p2322
I7
sS'NRTH'
p2323
I1
sS'NHPD'
p2324
I1
sS'DILR'
p2325
I1
sS'DLAE'
p2326
I1
sS'KWLM'
p2327
I6
sS'KWLK'
p2328
I1
sS'DLAA'
p2329
I1
sS'FSES'
p2330
I1
sS'FQVP'
p2331
I1
sS'DIGV'
p2332
I9
sS'YRQF'
p2333
I1
sS'FQVW'
p2334
I5
sS'IDSQ'
p2335
I1
sS'SKMA'
p2336
I6
sS'VQTT'
p2337
I4
sS'NNTT'
p2338
I1
sS'TAVG'
p2339
I1
sS'PNAT'
p2340
I1
sS'GLEL'
p2341
I1
sS'PNAV'
p2342
I1
sS'EDLR'
p2343
I4
sS'ALGR'
p2344
I2
sS'ALGS'
p2345
I11
sS'QVLC'
p2346
I1
sS'MGKQ'
p2347
I1
sS'HKRE'
p2348
I4
sS'GRQI'
p2349
I5
sS'GRAT'
p2350
I1
sS'MTQV'
p2351
I8
sS'KLFP'
p2352
I1
sS'KLAT'
p2353
I1
sS'NRFA'
p2354
I2
sS'DGNY'
p2355
I1
sS'QKYD'
p2356
I15
sS'INMG'
p2357
I1
sS'ILLG'
p2358
I1
sS'GRQV'
p2359
I4
sS'KLAS'
p2360
I1
sS'RLRP'
p2361
I1
sS'LRAI'
p2362
I2
sS'TNFQ'
p2363
I2
sS'GKNP'
p2364
I1
sS'PLQA'
p2365
I1
sS'GKNV'
p2366
I4
sS'VIHN'
p2367
I4
sS'TNFG'
p2368
I2
sS'VLDP'
p2369
I2
sS'PLQS'
p2370
I2
sS'LRSW'
p2371
I3
sS'PNWF'
p2372
I9
sS'QCRE'
p2373
I1
sS'GLKL'
p2374
I1
sS'QCRK'
p2375
I3
sS'TNHT'
p2376
I9
sS'AYGT'
p2377
I17
sS'PQLE'
p2378
I4
sS'AETY'
p2379
I3
sS'GFLK'
p2380
I1
sS'CDTL'
p2381
I7
sS'AYGM'
p2382
I5
sS'AYGL'
p2383
I11
sS'LYEG'
p2384
I1
sS'LYED'
p2385
I1
sS'LYEK'
p2386
I1
sS'HERP'
p2387
I1
sS'VALI'
p2388
I1
sS'ELDE'
p2389
I1
sS'PVDN'
p2390
I4
sS'PVDL'
p2391
I5
sS'EGLT'
p2392
I5
sS'PRWE'
p2393
I2
sS'EQKY'
p2394
I6
sS'ENPR'
p2395
I4
sS'NVVS'
p2396
I1
sS'ENAQ'
p2397
I1
sS'HVNQ'
p2398
I1
sS'EGLE'
p2399
I1
sS'EPSE'
p2400
I1
sS'SSRE'
p2401
I1
sS'TNTI'
p2402
I1
sS'GTKR'
p2403
I8
sS'TNTR'
p2404
I1
sS'SSRQ'
p2405
I1
sS'GVKP'
p2406
I9
sS'ERKF'
p2407
I4
sS'SSRY'
p2408
I1
sS'GVKY'
p2409
I18
sS'LSVG'
p2410
I1
sS'SANR'
p2411
I1
sS'MGEE'
p2412
I1
sS'EAQE'
p2413
I1
sS'AFLE'
p2414
I1
sS'MLSF'
p2415
I1
sS'PFKI'
p2416
I1
sS'TIPS'
p2417
I2
sS'HAHN'
p2418
I2
sS'TLFA'
p2419
I1
sS'DVLK'
p2420
I1
sS'CRNT'
p2421
I1
sS'TRVA'
p2422
I1
sS'DVLP'
p2423
I1
sS'MGSN'
p2424
I20
sS'EPSW'
p2425
I6
sS'ENFQ'
p2426
I4
sS'TRVK'
p2427
I2
sS'GINT'
p2428
I4
sS'NWPQ'
p2429
I4
sS'ASQA'
p2430
I36
sS'QTPI'
p2431
I1
sS'ASQK'
p2432
I9
sS'RPQP'
p2433
I2
sS'ASQV'
p2434
I5
sS'ASQT'
p2435
I1
sS'ASQS'
p2436
I5
sS'ASQR'
p2437
I8
sS'ASQQ'
p2438
I11
sS'KGGN'
p2439
I1
sS'WITT'
p2440
I4
sS'GLSY'
p2441
I1
sS'KREF'
p2442
I5
sS'EAGE'
p2443
I1
sS'FMDG'
p2444
I8
sS'EVQE'
p2445
I6
sS'GSSV'
p2446
I1
sS'GSSR'
p2447
I1
sS'SVPK'
p2448
I5
sS'EVQS'
p2449
I4
sS'EAGY'
p2450
I4
sS'EVQQ'
p2451
I4
sS'VGPD'
p2452
I1
sS'VWIE'
p2453
I2
sS'DKDQ'
p2454
I1
sS'GWKK'
p2455
I1
sS'MDMA'
p2456
I1
sS'CEFI'
p2457
I7
sS'DEPT'
p2458
I1
sS'VNDP'
p2459
I2
sS'VQEK'
p2460
I6
sS'IKKI'
p2461
I1
sS'RYLM'
p2462
I1
sS'GAPA'
p2463
I3
sS'GGKD'
p2464
I1
sS'DSKH'
p2465
I2
sS'KMAF'
p2466
I6
sS'GAPR'
p2467
I2
sS'GAPS'
p2468
I2
sS'DQKL'
p2469
I4
sS'RGYG'
p2470
I1
sS'GMPR'
p2471
I11
sS'HSFY'
p2472
I1
sS'ERYG'
p2473
I4
sS'QSYE'
p2474
I1
sS'SMLS'
p2475
I1
sS'ATIS'
p2476
I8
sS'KVAS'
p2477
I4
sS'QGYI'
p2478
I1
sS'YEDM'
p2479
I1
sS'YEDI'
p2480
I1
sS'EKQQ'
p2481
I3
sS'LLSK'
p2482
I4
sS'HNGS'
p2483
I4
sS'PWYS'
p2484
I1
sS'YEDV'
p2485
I1
sS'DIFE'
p2486
I13
sS'TTNS'
p2487
I1
sS'REDV'
p2488
I1
sS'PNFQ'
p2489
I1
sS'QVKK'
p2490
I1
sS'PNFV'
p2491
I1
sS'PDQR'
p2492
I1
sS'HECS'
p2493
I1
sS'PSQA'
p2494
I4
sS'PGEV'
p2495
I2
sS'PGEP'
p2496
I1
sS'PGES'
p2497
I1
sS'MALG'
p2498
I10
sS'KTQT'
p2499
I1
sS'TGYG'
p2500
I14
sS'AEGG'
p2501
I1
sS'IQAS'
p2502
I4
sS'CFQN'
p2503
I1
sS'NINN'
p2504
I1
sS'AIIA'
p2505
I1
sS'PGKL'
p2506
I1
sS'APTE'
p2507
I4
sS'GNFI'
p2508
I11
sS'VQQK'
p2509
I4
sS'QSKI'
p2510
I5
sS'GNFL'
p2511
I2
sS'KKQG'
p2512
I1
sS'DYQA'
p2513
I4
sS'VRDV'
p2514
I1
sS'AKEE'
p2515
I1
sS'DYQY'
p2516
I2
sS'GRTH'
p2517
I1
sS'QSKY'
p2518
I1
sS'KIME'
p2519
I1
sS'RVAG'
p2520
I1
sS'XDGL'
p2521
I1
sS'QAGQ'
p2522
I1
sS'IVGL'
p2523
I1
sS'KYAS'
p2524
I1
sS'LGME'
p2525
I8
sS'SPRQ'
p2526
I1
sS'MKKA'
p2527
I5
sS'FSEE'
p2528
I6
sS'LQMG'
p2529
I67
sS'RVAQ'
p2530
I1
sS'NKYC'
p2531
I1
sS'SPRG'
p2532
I1
sS'KYAE'
p2533
I13
sS'QPQP'
p2534
I3
sS'IDSS'
p2535
I1
sS'YPDE'
p2536
I5
sS'YPDD'
p2537
I1
sS'VVQC'
p2538
I1
sS'GPVL'
p2539
I1
sS'MTNF'
p2540
I2
sS'VMAL'
p2541
I1
sS'LYDP'
p2542
I17
sS'PNTA'
p2543
I1
sS'NDLF'
p2544
I18
sS'GVVK'
p2545
I1
sS'CDSA'
p2546
I1
sS'LRPN'
p2547
I1
sS'PEGQ'
p2548
I4
sS'PEGS'
p2549
I2
sS'ANDL'
p2550
I18
sS'RQTD'
p2551
I2
sS'EEQL'
p2552
I7
sS'NLTQ'
p2553
I1
sS'ELGE'
p2554
I6
sS'RSKL'
p2555
I1
sS'SECP'
p2556
I1
sS'QQPR'
p2557
I1
sS'EEQP'
p2558
I1
sS'RFDE'
p2559
I4
sS'KKKF'
p2560
I1
sS'YPEM'
p2561
I1
sS'IFQT'
p2562
I10
sS'ANVT'
p2563
I1
sS'NTQL'
p2564
I1
sS'VGLG'
p2565
I2
sS'PDYD'
p2566
I1
sS'NTQT'
p2567
I1
sS'IYDP'
p2568
I5
sS'IYDQ'
p2569
I4
sS'IYDT'
p2570
I5
sS'PDYS'
p2571
I1
sS'NLFA'
p2572
I1
sS'AGWN'
p2573
I4
sS'VGLQ'
p2574
I1
sS'QAGM'
p2575
I32
sS'AGWK'
p2576
I1
sS'TEEQ'
p2577
I1
sS'FEPS'
p2578
I1
sS'SIDQ'
p2579
I1
sS'WHQL'
p2580
I12
sS'SIDS'
p2581
I1
sS'NNVG'
p2582
I2
sS'KHAD'
p2583
I1
sS'RQIM'
p2584
I6
sS'KTDM'
p2585
I5
sS'VPEN'
p2586
I4
sS'PGCI'
p2587
I1
sS'FEPG'
p2588
I8
sS'GDYP'
p2589
I1
sS'FEPE'
p2590
I6
sS'KNII'
p2591
I1
sS'RDVC'
p2592
I2
sS'RDVL'
p2593
I1
sS'ELIN'
p2594
I9
sS'PRSP'
p2595
I1
sS'MEHC'
p2596
I7
sS'KLMT'
p2597
I2
sS'RDVK'
p2598
I2
sS'LQYG'
p2599
I1
sS'KLMN'
p2600
I1
sS'RDVQ'
p2601
I1
sS'MGTN'
p2602
I44
sS'ENEA'
p2603
I1
sS'ILRR'
p2604
I1
sS'VRAK'
p2605
I1
sS'GKNI'
p2606
I1
sS'GSLA'
p2607
I5
sS'LSRE'
p2608
I9
sS'QKLM'
p2609
I2
sS'GAGR'
p2610
I1
sS'MTSF'
p2611
I1
sS'HFQK'
p2612
I6
sS'PKNH'
p2613
I5
sS'PAAA'
p2614
I2
sS'DGCY'
p2615
I6
sS'QKLT'
p2616
I4
sS'NGVI'
p2617
I4
sS'RCDT'
p2618
I1
sS'DGQV'
p2619
I1
sS'NHTQ'
p2620
I9
sS'LKEY'
p2621
I1
sS'KAQQ'
p2622
I6
sS'NRGA'
p2623
I8
sS'SSIV'
p2624
I1
sS'NRGD'
p2625
I1
sS'GRPD'
p2626
I5
sS'KAQE'
p2627
I5
sS'DGQG'
p2628
I1
sS'QGEA'
p2629
I1
sS'PAAK'
p2630
I1
sS'NRGP'
p2631
I19
sS'GRPQ'
p2632
I2
sS'LKEG'
p2633
I1
sS'FLRA'
p2634
I2
sS'DFQK'
p2635
I5
sS'GPDF'
p2636
I5
sS'TNGS'
p2637
I4
sS'AAKE'
p2638
I1
sS'CDAP'
p2639
I1
sS'SWFH'
p2640
I6
sS'GFQV'
p2641
I5
sS'YDHE'
p2642
I2
sS'TVGG'
p2643
I1
sS'GPDV'
p2644
I4
sS'RLSD'
p2645
I1
sS'YDHQ'
p2646
I9
sS'TYEA'
p2647
I1
sS'CVIG'
p2648
I5
sS'DDEL'
p2649
I1
sS'EKII'
p2650
I1
sS'PPMD'
p2651
I5
sS'ADLF'
p2652
I1
sS'QQRR'
p2653
I2
sS'YCPQ'
p2654
I5
sS'EKIE'
p2655
I7
sS'GGEL'
p2656
I1
sS'QQRN'
p2657
I1
sS'EPTH'
p2658
I3
sS'EKIR'
p2659
I2
sS'KQYD'
p2660
I4
sS'LEEE'
p2661
I1
sS'RRHI'
p2662
I5
sS'RRHL'
p2663
I17
sS'PIGA'
p2664
I1
sS'APEY'
p2665
I1
sS'GCYR'
p2666
I6
sS'RTLV'
p2667
I1
sS'KMQT'
p2668
I4
sS'RTLM'
p2669
I13
sS'IGDN'
p2670
I2
sS'QTGM'
p2671
I1
sS'RTLF'
p2672
I1
sS'LPRQ'
p2673
I8
sS'LMTN'
p2674
I2
sS'SSSI'
p2675
I1
sS'MVRL'
p2676
I2
sS'SSSS'
p2677
I2
sS'NAVP'
p2678
I1
sS'TGMS'
p2679
I3
sS'SQKK'
p2680
I1
sS'SLER'
p2681
I1
sS'SQKG'
p2682
I12
sS'VTKD'
p2683
I6
sS'QFVA'
p2684
I1
sS'GDSE'
p2685
I1
sS'MSRD'
p2686
I1
sS'MSRE'
p2687
I4
sS'GIVP'
p2688
I1
sS'LATE'
p2689
I1
sS'PTMV'
p2690
I1
sS'VLCK'
p2691
I9
sS'GDSQ'
p2692
I4
sS'VLCF'
p2693
I1
sS'VLCE'
p2694
I3
sS'TTQC'
p2695
I4
sS'SRFQ'
p2696
I1
sS'HKRD'
p2697
I1
sS'WIVV'
p2698
I1
sS'MACV'
p2699
I4
sS'IGVK'
p2700
I9
sS'DYPE'
p2701
I1
sS'WIVA'
p2702
I1
sS'GEYQ'
p2703
I2
sS'ETVI'
p2704
I1
sS'DYPR'
p2705
I3
sS'WIVM'
p2706
I2
sS'LGLK'
p2707
I4
sS'KINE'
p2708
I2
sS'TGFG'
p2709
I10
sS'QMGT'
p2710
I44
sS'QMGY'
p2711
I5
sS'KINR'
p2712
I5
sS'AGMI'
p2713
I1
sS'KGNK'
p2714
I7
sS'KGNN'
p2715
I2
sS'IPKQ'
p2716
I1
sS'ECPP'
p2717
I1
sS'EVPE'
p2718
I2
sS'IPTI'
p2719
I1
sS'SDLQ'
p2720
I1
sS'DLQP'
p2721
I1
sS'RKRW'
p2722
I1
sS'AHPE'
p2723
I1
sS'VNES'
p2724
I10
sS'PKRV'
p2725
I2
sS'ALAG'
p2726
I9
sS'DMKK'
p2727
I1
sS'AEDI'
p2728
I6
sS'TKPP'
p2729
I1
sS'QRRF'
p2730
I2
sS'ALAS'
p2731
I9
sS'RDKD'
p2732
I1
sS'NLGA'
p2733
I1
sS'IMDM'
p2734
I1
sS'NLGG'
p2735
I4
sS'DPNW'
p2736
I9
sS'AEDY'
p2737
I5
sS'IKPG'
p2738
I1
sS'NPVD'
p2739
I5
sS'FASQ'
p2740
I14
sS'YEKK'
p2741
I1
sS'SKYD'
p2742
I9
sS'GRAH'
p2743
I5
sS'GPPQ'
p2744
I1
sS'STQF'
p2745
I5
sS'VAQN'
p2746
I1
sS'STQN'
p2747
I7
sS'VAQF'
p2748
I4
sS'VAQC'
p2749
I1
sS'AITK'
p2750
I7
sS'DIEH'
p2751
I6
sS'VQVS'
p2752
I5
sS'VQVT'
p2753
I1
sS'DIEE'
p2754
I1
sS'IYGV'
p2755
I1
sS'KIPT'
p2756
I1
sS'TQKI'
p2757
I1
sS'GYMT'
p2758
I1
sS'GYMS'
p2759
I3
sS'KIPD'
p2760
I1
sS'KNRL'
p2761
I5
sS'RFEP'
p2762
I3
sS'KHVI'
p2763
I4
sS'FQLG'
p2764
I4
sS'FLSQ'
p2765
I1
sS'FKIM'
p2766
I1
sS'DGPG'
p2767
I1
sS'INKL'
p2768
I13
sS'ASAA'
p2769
I1
sS'LKDG'
p2770
I24
sS'ESMS'
p2771
I1
sS'SNFM'
p2772
I2
sS'NQLQ'
p2773
I4
sS'SNFI'
p2774
I5
sS'THPE'
p2775
I1
sS'KDVG'
p2776
I2
sS'LSIG'
p2777
I4
sS'LMEL'
p2778
I1
sS'RLPH'
p2779
I1
sS'FESG'
p2780
I5
sS'THFN'
p2781
I4
sS'VFQT'
p2782
I1
sS'LRQT'
p2783
I2
sS'NVPP'
p2784
I1
sS'TGQG'
p2785
I1
sS'MTAY'
p2786
I18
sS'FESQ'
p2787
I1
sS'YDTK'
p2788
I5
sS'LRQG'
p2789
I6
sS'SWQN'
p2790
I2
sS'MTAP'
p2791
I13
sS'NKCA'
p2792
I14
sS'NFIK'
p2793
I16
sS'EQIA'
p2794
I1
sS'QYGD'
p2795
I3
sS'HHPH'
p2796
I5
sS'EQIS'
p2797
I10
sS'EQIL'
p2798
I4
sS'GDNF'
p2799
I2
sS'ENVL'
p2800
I1
sS'RDYQ'
p2801
I2
sS'VPLQ'
p2802
I1
sS'QYGS'
p2803
I1
s.