(dp1
S'KDYN'
p2
I3
sS'SSPL'
p3
I1
sS'CQNP'
p4
I1
sS'SSPI'
p5
I1
sS'EPEA'
p6
I4
sS'ERIQ'
p7
I1
sS'EDQD'
p8
I3
sS'EDQE'
p9
I1
sS'GTII'
p10
I6
sS'EPEV'
p11
I1
sS'EPEP'
p12
I1
sS'MEGF'
p13
I1
sS'FDQY'
p14
I1
sS'ANNN'
p15
I1
sS'PTNT'
p16
I1
sS'ALNY'
p17
I1
sS'SNSS'
p18
I1
sS'ERER'
p19
I1
sS'MNKP'
p20
I2
sS'VDGL'
p21
I3
sS'PADL'
p22
I1
sS'MSAG'
p23
I1
sS'RFWD'
p24
I1
sS'HANS'
p25
I7
sS'EDEL'
p26
I1
sS'SSPA'
p27
I6
sS'GFEL'
p28
I1
sS'VLRA'
p29
I1
sS'GFEM'
p30
I1
sS'QQQI'
p31
I1
sS'KLLQ'
p32
I7
sS'PRPS'
p33
I1
sS'KSDK'
p34
I3
sS'ASSS'
p35
I5
sS'EAEI'
p36
I1
sS'FDGN'
p37
I1
sS'LTKS'
p38
I1
sS'GQET'
p39
I8
sS'GQES'
p40
I1
sS'EAEG'
p41
I1
sS'EDEE'
p42
I1
sS'TRHS'
p43
I1
sS'GQEG'
p44
I1
sS'LTKI'
p45
I9
sS'LAAP'
p46
I1
sS'LLCQ'
p47
I7
sS'VNFD'
p48
I2
sS'VNFE'
p49
I2
sS'QGIS'
p50
I1
sS'QWMK'
p51
I2
sS'PIAT'
p52
I2
sS'PVEA'
p53
I6
sS'PIAK'
p54
I1
sS'SFKR'
p55
I7
sS'TTII'
p56
I1
sS'IIAW'
p57
I7
sS'EREF'
p58
I1
sS'TFKP'
p59
I1
sS'PIAE'
p60
I1
sS'NAKY'
p61
I1
sS'QLNL'
p62
I7
sS'YCQI'
p63
I1
sS'KSRP'
p64
I1
sS'YCQF'
p65
I19
sS'QQSG'
p66
I1
sS'PPNS'
p67
I1
sS'PPNP'
p68
I3
sS'QHNY'
p69
I1
sS'AVHC'
p70
I1
sS'IGES'
p71
I1
sS'EDCG'
p72
I1
sS'EYMA'
p73
I11
sS'IEQL'
p74
I13
sS'RRIA'
p75
I1
sS'IEQI'
p76
I3
sS'KKAV'
p77
I1
sS'ITGH'
p78
I1
sS'YKIL'
p79
I1
sS'IEQQ'
p80
I1
sS'APDF'
p81
I1
sS'KKAA'
p82
I4
sS'EYMP'
p83
I6
sS'EYMS'
p84
I1
sS'IEQY'
p85
I1
sS'ATKP'
p86
I1
sS'KYCD'
p87
I1
sS'AFKK'
p88
I3
sS'STPK'
p89
I1
sS'VAPA'
p90
I5
sS'STPP'
p91
I1
sS'STPS'
p92
I7
sS'GERS'
p93
I7
sS'FGLE'
p94
I1
sS'VAPV'
p95
I3
sS'VAPS'
p96
I4
sS'VAPP'
p97
I6
sS'PSSI'
p98
I1
sS'EHGT'
p99
I1
sS'QVIQ'
p100
I6
sS'NDPV'
p101
I7
sS'VSEL'
p102
I1
sS'PSSA'
p103
I7
sS'CFSR'
p104
I1
sS'VMQE'
p105
I1
sS'VSEP'
p106
I1
sS'PSSR'
p107
I1
sS'PSSS'
p108
I2
sS'EHGH'
p109
I1
sS'PSSV'
p110
I1
sS'PSST'
p111
I1
sS'ATEE'
p112
I3
sS'YMSE'
p113
I1
sS'LVQR'
p114
I5
sS'APVM'
p115
I2
sS'LVQT'
p116
I1
sS'GNHH'
p117
I1
sS'TAEY'
p118
I1
sS'DIVC'
p119
I1
sS'QAMA'
p120
I1
sS'TAEG'
p121
I1
sS'APVP'
p122
I1
sS'APVS'
p123
I1
sS'EFAQ'
p124
I1
sS'DIVS'
p125
I5
sS'KTAA'
p126
I1
sS'NTAP'
p127
I1
sS'EAKN'
p128
I1
sS'EVED'
p129
I1
sS'IVEI'
p130
I3
sS'RKVK'
p131
I3
sS'YIKN'
p132
I1
sS'NTAA'
p133
I1
sS'YIKV'
p134
I1
sS'LNYI'
p135
I1
sS'QPSS'
p136
I1
sS'LNYK'
p137
I1
sS'PQQQ'
p138
I3
sS'GPTQ'
p139
I7
sS'FSYL'
p140
I1
sS'ENDP'
p141
I7
sS'FERL'
p142
I1
sS'HDML'
p143
I12
sS'SGII'
p144
I3
sS'PQQE'
p145
I2
sS'ILAL'
p146
I1
sS'PEEP'
p147
I1
sS'KGSN'
p148
I1
sS'RDFY'
p149
I24
sS'AASK'
p150
I1
sS'PTSK'
p151
I1
sS'KGST'
p152
I1
sS'KGSS'
p153
I1
sS'VYCQ'
p154
I1
sS'MQDN'
p155
I1
sS'AASG'
p156
I2
sS'VPMH'
p157
I3
sS'MNDG'
p158
I1
sS'AEEA'
p159
I1
sS'NKLK'
p160
I2
sS'FPGC'
p161
I10
sS'DMTF'
p162
I2
sS'EEAQ'
p163
I2
sS'SVNG'
p164
I1
sS'TAVP'
p165
I3
sS'ANTR'
p166
I1
sS'AEEQ'
p167
I4
sS'FPGV'
p168
I2
sS'FPGS'
p169
I9
sS'EEAA'
p170
I3
sS'EEAC'
p171
I1
sS'NKLR'
p172
I2
sS'ANTA'
p173
I1
sS'KEYD'
p174
I13
sS'NLDF'
p175
I7
sS'NNPV'
p176
I1
sS'VHRL'
p177
I1
sS'SRNG'
p178
I1
sS'NLDV'
p179
I1
sS'TKSS'
p180
I1
sS'TKSQ'
p181
I1
sS'GKLR'
p182
I16
sS'ENDD'
p183
I5
sS'AAAP'
p184
I2
sS'NFDA'
p185
I2
sS'DVKC'
p186
I1
sS'EGQT'
p187
I2
sS'ELKL'
p188
I1
sS'AAAA'
p189
I2
sS'VIMQ'
p190
I1
sS'AAAE'
p191
I1
sS'MEVL'
p192
I3
sS'GGTG'
p193
I2
sS'GAAR'
p194
I1
sS'MGVD'
p195
I12
sS'TTAL'
p196
I1
sS'TTAK'
p197
I2
sS'KLKI'
p198
I3
sS'GAAY'
p199
I19
sS'DGED'
p200
I2
sS'NNLI'
p201
I1
sS'TTAA'
p202
I3
sS'NGTR'
p203
I1
sS'QINV'
p204
I4
sS'PRQR'
p205
I1
sS'NGTI'
p206
I6
sS'GAAE'
p207
I1
sS'FKKM'
p208
I4
sS'GAAK'
p209
I6
sS'TTAT'
p210
I1
sS'RELE'
p211
I1
sS'GAAL'
p212
I1
sS'DAKN'
p213
I1
sS'FELP'
p214
I1
sS'LKGK'
p215
I1
sS'DAKS'
p216
I1
sS'KASG'
p217
I1
sS'LRDV'
p218
I2
sS'MAVN'
p219
I19
sS'AKKA'
p220
I2
sS'LMDS'
p221
I1
sS'LMDV'
p222
I2
sS'LMDI'
p223
I2
sS'FNDE'
p224
I1
sS'DPVL'
p225
I8
sS'LRDI'
p226
I5
sS'VLAA'
p227
I1
sS'TPSI'
p228
I1
sS'GQTE'
p229
I2
sS'KSSA'
p230
I1
sS'TPSM'
p231
I1
sS'HFVM'
p232
I1
sS'TTST'
p233
I1
sS'TPSS'
p234
I2
sS'TPSR'
p235
I6
sS'DEGE'
p236
I1
sS'DEGF'
p237
I9
sS'DEGG'
p238
I5
sS'KSSS'
p239
I1
sS'IQWF'
p240
I10
sS'HDQQ'
p241
I2
sS'KSSP'
p242
I6
sS'LPLV'
p243
I1
sS'RLME'
p244
I3
sS'RLMD'
p245
I4
sS'NQSL'
p246
I2
sS'IEVS'
p247
I1
sS'QQPP'
p248
I2
sS'QQPQ'
p249
I3
sS'SLQT'
p250
I2
sS'WKVL'
p251
I1
sS'QTHL'
p252
I1
sS'QEND'
p253
I5
sS'QENE'
p254
I9
sS'IQIF'
p255
I1
sS'VFNK'
p256
I2
sS'FHFV'
p257
I1
sS'GKSS'
p258
I1
sS'LIEQ'
p259
I3
sS'VRGE'
p260
I7
sS'PAYD'
p261
I1
sS'LARR'
p262
I1
sS'FYFS'
p263
I6
sS'ITTL'
p264
I1
sS'ITTH'
p265
I1
sS'RIED'
p266
I1
sS'RIEE'
p267
I1
sS'GDQI'
p268
I3
sS'GTHH'
p269
I1
sS'SAAP'
p270
I5
sS'FYFE'
p271
I1
sS'EATK'
p272
I1
sS'FYFG'
p273
I16
sS'FYFN'
p274
I2
sS'QSNN'
p275
I1
sS'PGTV'
p276
I1
sS'ATDE'
p277
I9
sS'YMPG'
p278
I6
sS'ATDA'
p279
I2
sS'DYNP'
p280
I3
sS'HLNY'
p281
I3
sS'VKSR'
p282
I1
sS'RRQV'
p283
I1
sS'HLNE'
p284
I1
sS'VKSD'
p285
I1
sS'KKLI'
p286
I3
sS'HLNL'
p287
I2
sS'YIHN'
p288
I10
sS'YVEV'
p289
I1
sS'TGHG'
p290
I1
sS'EVDD'
p291
I1
sS'ECLN'
p292
I1
sS'QAKL'
p293
I19
sS'MLFP'
p294
I19
sS'LNKP'
p295
I4
sS'FMAT'
p296
I1
sS'FMAV'
p297
I1
sS'TRIE'
p298
I1
sS'GSVA'
p299
I3
sS'ETFM'
p300
I1
sS'YTGE'
p301
I1
sS'GSVY'
p302
I1
sS'KIAL'
p303
I1
sS'IVVA'
p304
I2
sS'TDAQ'
p305
I1
sS'NDIL'
p306
I1
sS'VEIL'
p307
I5
sS'GSVV'
p308
I1
sS'VNGL'
p309
I1
sS'VNGN'
p310
I1
sS'WGMA'
p311
I7
sS'IPVD'
p312
I9
sS'GQEN'
p313
I5
sS'VNGG'
p314
I1
sS'DSVN'
p315
I1
sS'DSVH'
p316
I1
sS'RMGV'
p317
I8
sS'PPAQ'
p318
I1
sS'IPKS'
p319
I1
sS'IKNF'
p320
I1
sS'GGQH'
p321
I1
sS'KYRP'
p322
I1
sS'LDFI'
p323
I7
sS'LLDL'
p324
I2
sS'EFNQ'
p325
I1
sS'RQGQ'
p326
I19
sS'ANSP'
p327
I7
sS'DRLH'
p328
I2
sS'QRVP'
p329
I1
sS'EAEQ'
p330
I1
sS'ELVK'
p331
I1
sS'QRPI'
p332
I8
sS'AWIN'
p333
I11
sS'ANSN'
p334
I1
sS'YKFN'
p335
I1
sS'SVIQ'
p336
I1
sS'RDIE'
p337
I5
sS'ELVD'
p338
I1
sS'ALCQ'
p339
I1
sS'TKRA'
p340
I1
sS'AQMT'
p341
I1
sS'VAEE'
p342
I1
sS'NLEF'
p343
I6
sS'IKRI'
p344
I1
sS'SDVK'
p345
I1
sS'VHSL'
p346
I7
sS'SKGG'
p347
I1
sS'SRQE'
p348
I1
sS'HKDE'
p349
I1
sS'SDVP'
p350
I1
sS'NPTT'
p351
I1
sS'DLEK'
p352
I9
sS'SMEN'
p353
I1
sS'VHEQ'
p354
I2
sS'LNWI'
p355
I1
sS'SKIS'
p356
I1
sS'TSEN'
p357
I3
sS'FGKL'
p358
I16
sS'PLGS'
p359
I3
sS'KYDY'
p360
I1
sS'DLET'
p361
I7
sS'QVHS'
p362
I7
sS'PSRP'
p363
I6
sS'PSRR'
p364
I1
sS'GGPQ'
p365
I5
sS'VSDN'
p366
I1
sS'VPCP'
p367
I1
sS'EFVQ'
p368
I10
sS'QVHE'
p369
I2
sS'MNSS'
p370
I1
sS'EHFE'
p371
I1
sS'VEAR'
p372
I6
sS'NEQV'
p373
I6
sS'HKVN'
p374
I3
sS'EILV'
p375
I2
sS'VNFN'
p376
I1
sS'EILT'
p377
I1
sS'KHIE'
p378
I1
sS'EILS'
p379
I1
sS'SIYQ'
p380
I1
sS'EILN'
p381
I1
sS'KNPP'
p382
I3
sS'AAPS'
p383
I1
sS'AAPQ'
p384
I6
sS'SIYG'
p385
I1
sS'EILC'
p386
I3
sS'EILA'
p387
I1
sS'GPAN'
p388
I1
sS'AMSG'
p389
I1
sS'PERL'
p390
I1
sS'LREA'
p391
I1
sS'FLQW'
p392
I3
sS'YDEK'
p393
I1
sS'LREI'
p394
I8
sS'QEYL'
p395
I1
sS'THRT'
p396
I1
sS'GPSR'
p397
I1
sS'VDKL'
p398
I10
sS'PEDQ'
p399
I1
sS'LEGV'
p400
I7
sS'VDKI'
p401
I12
sS'WFKK'
p402
I19
sS'FNKS'
p403
I3
sS'DMIQ'
p404
I1
sS'SGNT'
p405
I1
sS'PEDD'
p406
I3
sS'AATQ'
p407
I1
sS'FNKL'
p408
I4
sS'EQKS'
p409
I1
sS'VPAY'
p410
I1
sS'SNVA'
p411
I3
sS'NFKI'
p412
I5
sS'TEHL'
p413
I1
sS'NFKL'
p414
I7
sS'SENL'
p415
I3
sS'LYAA'
p416
I1
sS'GDLP'
p417
I1
sS'LYAT'
p418
I15
sS'RSEI'
p419
I1
sS'TKLK'
p420
I1
sS'LYAS'
p421
I6
sS'IRHK'
p422
I1
sS'EELE'
p423
I1
sS'KNPG'
p424
I5
sS'NFKV'
p425
I7
sS'SKPK'
p426
I2
sS'RNGK'
p427
I1
sS'GKPT'
p428
I1
sS'AMAT'
p429
I1
sS'SSNG'
p430
I1
sS'AMAP'
p431
I1
sS'GKEY'
p432
I13
sS'VPVL'
p433
I1
sS'RKHT'
p434
I7
sS'GSAS'
p435
I5
sS'YFGK'
p436
I16
sS'KVSV'
p437
I1
sS'MSME'
p438
I1
sS'CKMQ'
p439
I1
sS'VPVQ'
p440
I1
sS'GSAG'
p441
I1
sS'RKHE'
p442
I1
sS'GIDK'
p443
I1
sS'NFEF'
p444
I12
sS'NFEC'
p445
I1
sS'NFEA'
p446
I1
sS'NFEI'
p447
I1
sS'YSSE'
p448
I1
sS'KPRT'
p449
I1
sS'HALE'
p450
I1
sS'PVIS'
p451
I3
sS'SAPD'
p452
I1
sS'NGSR'
p453
I1
sS'NNMH'
p454
I1
sS'RTTA'
p455
I3
sS'YAMI'
p456
I1
sS'SAPV'
p457
I1
sS'SAPP'
p458
I1
sS'NRLV'
p459
I2
sS'RIVE'
p460
I3
sS'RIVD'
p461
I5
sS'LYSS'
p462
I1
sS'LVAI'
p463
I1
sS'ETIG'
p464
I1
sS'HRTT'
p465
I1
sS'DSET'
p466
I1
sS'SHHA'
p467
I6
sS'ETIT'
p468
I1
sS'IAWV'
p469
I7
sS'PATT'
p470
I1
sS'DETI'
p471
I1
sS'QDVA'
p472
I3
sS'DLTT'
p473
I1
sS'GCVH'
p474
I3
sS'LLEE'
p475
I1
sS'DQEE'
p476
I1
sS'LLEK'
p477
I2
sS'IEQE'
p478
I1
sS'VNVY'
p479
I19
sS'EKDR'
p480
I1
sS'PPPD'
p481
I7
sS'TTTS'
p482
I1
sS'TTTT'
p483
I2
sS'TTTV'
p484
I1
sS'GALL'
p485
I1
sS'PPPN'
p486
I4
sS'VNVL'
p487
I3
sS'EDEH'
p488
I1
sS'QQQE'
p489
I4
sS'ERET'
p490
I1
sS'TDSR'
p491
I1
sS'RRKY'
p492
I1
sS'KVMQ'
p493
I1
sS'QQQQ'
p494
I3
sS'EPQS'
p495
I1
sS'RPSS'
p496
I8
sS'LPMN'
p497
I1
sS'IGGG'
p498
I1
sS'NMLE'
p499
I1
sS'DNFE'
p500
I12
sS'SPVI'
p501
I3
sS'DNFH'
p502
I1
sS'TSDN'
p503
I9
sS'GHPE'
p504
I1
sS'TPKG'
p505
I3
sS'YNSN'
p506
I1
sS'VSKL'
p507
I1
sS'ERSY'
p508
I7
sS'VSKP'
p509
I4
sS'GEPY'
p510
I1
sS'QAKS'
p511
I1
sS'ATGA'
p512
I1
sS'TDEG'
p513
I9
sS'AIER'
p514
I1
sS'KRAA'
p515
I1
sS'PIST'
p516
I2
sS'ATGP'
p517
I1
sS'KKMG'
p518
I4
sS'ERSV'
p519
I1
sS'PIVV'
p520
I2
sS'KIAN'
p521
I1
sS'IAEG'
p522
I1
sS'ALPP'
p523
I2
sS'IVCL'
p524
I1
sS'NTGT'
p525
I1
sS'ATKR'
p526
I1
sS'RVEE'
p527
I1
sS'YYPG'
p528
I1
sS'YVDK'
p529
I1
sS'FVGR'
p530
I3
sS'TGKP'
p531
I1
sS'RKTS'
p532
I1
sS'ILYS'
p533
I2
sS'VAPN'
p534
I3
sS'KRSS'
p535
I1
sS'DRSS'
p536
I1
sS'GLNE'
p537
I1
sS'ILYA'
p538
I17
sS'ILYN'
p539
I1
sS'AEYE'
p540
I1
sS'EAQE'
p541
I1
sS'NVSS'
p542
I1
sS'LDYK'
p543
I1
sS'LTLT'
p544
I3
sS'PLLG'
p545
I1
sS'PLLA'
p546
I3
sS'TAPQ'
p547
I1
sS'ALLR'
p548
I1
sS'NYHA'
p549
I1
sS'PLLT'
p550
I1
sS'KEEE'
p551
I1
sS'KRAS'
p552
I5
sS'HHSS'
p553
I2
sS'NDRL'
p554
I2
sS'YKGT'
p555
I1
sS'NVAP'
p556
I3
sS'AGST'
p557
I1
sS'KISK'
p558
I1
sS'LQWL'
p559
I3
sS'KIST'
p560
I1
sS'LSNV'
p561
I3
sS'LTQP'
p562
I1
sS'HHAN'
p563
I7
sS'SVHP'
p564
I1
sS'NVAE'
p565
I1
sS'ARQG'
p566
I19
sS'STLE'
p567
I1
sS'RSVK'
p568
I1
sS'SRPQ'
p569
I1
sS'YNAI'
p570
I1
sS'VHPG'
p571
I1
sS'STLK'
p572
I1
sS'LTVE'
p573
I8
sS'STLQ'
p574
I1
sS'MQTS'
p575
I3
sS'RSVS'
p576
I1
sS'NTRV'
p577
I1
sS'YSTS'
p578
I19
sS'KNEY'
p579
I2
sS'SEYE'
p580
I1
sS'SSRR'
p581
I1
sS'ENIT'
p582
I1
sS'KHEP'
p583
I1
sS'ELMQ'
p584
I5
sS'DVIM'
p585
I1
sS'EGSE'
p586
I1
sS'KAGP'
p587
I5
sS'HTEE'
p588
I3
sS'VLQQ'
p589
I1
sS'NNND'
p590
I7
sS'VLQR'
p591
I9
sS'KLIG'
p592
I3
sS'NNNH'
p593
I1
sS'EGSN'
p594
I1
sS'NNNN'
p595
I1
sS'VLQD'
p596
I2
sS'QTEE'
p597
I2
sS'INVL'
p598
I4
sS'NNNV'
p599
I1
sS'HTEQ'
p600
I1
sS'KLIV'
p601
I1
sS'EHLP'
p602
I1
sS'KLIR'
p603
I1
sS'EQLG'
p604
I1
sS'EQLE'
p605
I2
sS'ESHT'
p606
I2
sS'EQLC'
p607
I18
sS'ASDV'
p608
I1
sS'GING'
p609
I1
sS'EHGQ'
p610
I6
sS'EQLS'
p611
I1
sS'EIMN'
p612
I1
sS'ASDE'
p613
I4
sS'DAIP'
p614
I5
sS'EGAP'
p615
I4
sS'PGGD'
p616
I1
sS'SSAP'
p617
I1
sS'SSAS'
p618
I1
sS'SDPV'
p619
I1
sS'HIEV'
p620
I1
sS'SSAK'
p621
I7
sS'PQEE'
p622
I8
sS'KDSE'
p623
I1
sS'NHPP'
p624
I1
sS'PSIS'
p625
I1
sS'MATN'
p626
I3
sS'RPLD'
p627
I3
sS'SSAE'
p628
I1
sS'LQRI'
p629
I9
sS'SSAG'
p630
I1
sS'ESTF'
p631
I1
sS'PPQQ'
p632
I2
sS'DEET'
p633
I1
sS'HPGT'
p634
I1
sS'KLGV'
p635
I1
sS'FEAK'
p636
I1
sS'KSQE'
p637
I1
sS'DEEK'
p638
I1
sS'DEEE'
p639
I1
sS'TLKP'
p640
I1
sS'EDDI'
p641
I1
sS'DGLE'
p642
I3
sS'PIPS'
p643
I1
sS'GGAL'
p644
I1
sS'KVLQ'
p645
I10
sS'NSAI'
p646
I1
sS'KVLK'
p647
I2
sS'ATTA'
p648
I1
sS'EPPT'
p649
I1
sS'EMIQ'
p650
I2
sS'ERDF'
p651
I23
sS'EHGG'
p652
I1
sS'RGNR'
p653
I1
sS'QELL'
p654
I1
sS'LSSG'
p655
I1
sS'ILEL'
p656
I3
sS'WINE'
p657
I9
sS'ISGI'
p658
I3
sS'ILES'
p659
I1
sS'LICQ'
p660
I12
sS'TVYV'
p661
I1
sS'LAPQ'
p662
I1
sS'DDSL'
p663
I1
sS'NSSA'
p664
I2
sS'ITVE'
p665
I1
sS'GIEK'
p666
I1
sS'NSSS'
p667
I1
sS'ERRI'
p668
I1
sS'ERRN'
p669
I1
sS'PGVV'
p670
I5
sS'ERRE'
p671
I1
sS'APKA'
p672
I4
sS'DVIH'
p673
I1
sS'ERRS'
p674
I2
sS'PGVG'
p675
I4
sS'QAHE'
p676
I2
sS'APVL'
p677
I1
sS'LALN'
p678
I1
sS'WVND'
p679
I10
sS'LALE'
p680
I6
sS'WIRH'
p681
I1
sS'ECNN'
p682
I1
sS'ALSK'
p683
I4
sS'SVYC'
p684
I1
sS'SVYD'
p685
I1
sS'GSTV'
p686
I1
sS'RIQA'
p687
I1
sS'GLTR'
p688
I1
sS'GSTS'
p689
I1
sS'GSTP'
p690
I6
sS'VEKY'
p691
I1
sS'GSTG'
p692
I1
sS'VEKL'
p693
I10
sS'IATQ'
p694
I2
sS'RKEL'
p695
I1
sS'VKCS'
p696
I1
sS'CGKG'
p697
I1
sS'PPCI'
p698
I3
sS'TMAT'
p699
I1
sS'GMGN'
p700
I1
sS'RIAL'
p701
I1
sS'QILE'
p702
I3
sS'QQLV'
p703
I1
sS'DQDN'
p704
I1
sS'QQLL'
p705
I2
sS'DQDE'
p706
I3
sS'DEKI'
p707
I1
sS'DTEH'
p708
I1
sS'KITE'
p709
I1
sS'KPLS'
p710
I2
sS'KITK'
p711
I3
sS'NIEL'
p712
I9
sS'KPLT'
p713
I1
sS'SVKG'
p714
I2
sS'KITV'
p715
I1
sS'KPLA'
p716
I1
sS'KPLE'
p717
I2
sS'KPLG'
p718
I5
sS'NLKM'
p719
I1
sS'SRSV'
p720
I1
sS'SKEV'
p721
I1
sS'SKEL'
p722
I1
sS'SRSD'
p723
I4
sS'NNSA'
p724
I1
sS'VLQA'
p725
I7
sS'APVV'
p726
I1
sS'VAGS'
p727
I1
sS'VHCQ'
p728
I1
sS'IFNL'
p729
I7
sS'IFNK'
p730
I3
sS'LELN'
p731
I3
sS'TSGR'
p732
I3
sS'YKVL'
p733
I2
sS'YKVM'
p734
I1
sS'DEYM'
p735
I3
sS'TDLK'
p736
I1
sS'YEYI'
p737
I1
sS'LNYT'
p738
I9
sS'TDHD'
p739
I1
sS'AIPL'
p740
I1
sS'PSTP'
p741
I1
sS'PSTT'
p742
I1
sS'GEQL'
p743
I1
sS'GEQI'
p744
I7
sS'PKGG'
p745
I2
sS'QVFL'
p746
I1
sS'RASS'
p747
I5
sS'HGNG'
p748
I1
sS'AKLE'
p749
I19
sS'AIPP'
p750
I5
sS'AKLG'
p751
I1
sS'EVEE'
p752
I1
sS'HTTQ'
p753
I1
sS'SKSL'
p754
I1
sS'NESV'
p755
I1
sS'SKSD'
p756
I2
sS'NESL'
p757
I9
sS'FIQW'
p758
I10
sS'VAIQ'
p759
I1
sS'ASEE'
p760
I3
sS'ESIL'
p761
I1
sS'KDRS'
p762
I1
sS'VMNK'
p763
I2
sS'LRKV'
p764
I3
sS'INGG'
p765
I2
sS'PEPD'
p766
I1
sS'SGRL'
p767
I3
sS'YDGK'
p768
I19
sS'FEIT'
p769
I1
sS'KAVP'
p770
I1
sS'KDRD'
p771
I1
sS'VMNS'
p772
I1
sS'INGS'
p773
I1
sS'LKVS'
p774
I1
sS'GPQR'
p775
I1
sS'SNPT'
p776
I1
sS'TWIN'
p777
I1
sS'RSDK'
p778
I4
sS'TQET'
p779
I7
sS'APQE'
p780
I3
sS'VDIL'
p781
I5
sS'MTEK'
p782
I1
sS'VDII'
p783
I1
sS'QDAI'
p784
I5
sS'NYKV'
p785
I3
sS'DPDA'
p786
I1
sS'NYKK'
p787
I1
sS'NYKI'
p788
I1
sS'VVDP'
p789
I1
sS'SWIN'
p790
I1
sS'IQDN'
p791
I6
sS'REAE'
p792
I1
sS'FQAK'
p793
I19
sS'GGRE'
p794
I1
sS'VIPV'
p795
I7
sS'SSLG'
p796
I1
sS'VEKE'
p797
I7
sS'SSLK'
p798
I1
sS'EKTV'
p799
I1
sS'QEMT'
p800
I1
sS'REAS'
p801
I1
sS'KKHW'
p802
I1
sS'GSGS'
p803
I1
sS'VYDP'
p804
I1
sS'YFER'
p805
I1
sS'CISL'
p806
I7
sS'SETQ'
p807
I1
sS'GSGA'
p808
I1
sS'DPVA'
p809
I9
sS'DPVE'
p810
I6
sS'YQYI'
p811
I1
sS'ELLA'
p812
I1
sS'VNDS'
p813
I3
sS'KPPA'
p814
I1
sS'ELLE'
p815
I1
sS'DVFN'
p816
I2
sS'AALC'
p817
I1
sS'ELLT'
p818
I1
sS'DKDL'
p819
I7
sS'SARN'
p820
I3
sS'QIMD'
p821
I1
sS'AQWM'
p822
I1
sS'GIIG'
p823
I3
sS'LLAR'
p824
I3
sS'DGFE'
p825
I1
sS'CGTG'
p826
I1
sS'HSLK'
p827
I7
sS'LCQE'
p828
I7
sS'IVSL'
p829
I5
sS'VYVD'
p830
I1
sS'EGFG'
p831
I1
sS'IVSE'
p832
I1
sS'LNGL'
p833
I1
sS'QLTL'
p834
I3
sS'LSEP'
p835
I1
sS'LSEQ'
p836
I1
sS'PPDP'
p837
I7
sS'PPDQ'
p838
I1
sS'EGFA'
p839
I3
sS'LLGE'
p840
I1
sS'NLVA'
p841
I3
sS'PPRP'
p842
I1
sS'GGDY'
p843
I1
sS'DSAY'
p844
I3
sS'LSKE'
p845
I2
sS'GMVR'
p846
I2
sS'LSKA'
p847
I1
sS'SSAA'
p848
I3
sS'GMVK'
p849
I3
sS'LSKV'
p850
I1
sS'TTVS'
p851
I1
sS'LSKP'
p852
I2
sS'RPIT'
p853
I1
sS'EYQY'
p854
I1
sS'QECL'
p855
I1
sS'RPQA'
p856
I1
sS'SLNY'
p857
I5
sS'IHDN'
p858
I1
sS'GENN'
p859
I10
sS'SLNE'
p860
I1
sS'PKAG'
p861
I5
sS'PKGS'
p862
I1
sS'RLHL'
p863
I2
sS'NMHH'
p864
I1
sS'RREA'
p865
I1
sS'VATS'
p866
I1
sS'SDEQ'
p867
I2
sS'DQQP'
p868
I2
sS'PDEG'
p869
I9
sS'ILVQ'
p870
I1
sS'SPTG'
p871
I3
sS'HPEE'
p872
I1
sS'SDED'
p873
I1
sS'DEGA'
p874
I4
sS'SPTP'
p875
I1
sS'SDEH'
p876
I1
sS'VLQN'
p877
I1
sS'PGCV'
p878
I3
sS'TQVS'
p879
I1
sS'AIQA'
p880
I1
sS'QSCF'
p881
I1
sS'MKKY'
p882
I2
sS'QAGF'
p883
I9
sS'KKYC'
p884
I1
sS'KKYF'
p885
I1
sS'HGIE'
p886
I1
sS'TQVI'
p887
I6
sS'HGIG'
p888
I1
sS'QGEN'
p889
I1
sS'ATAE'
p890
I2
sS'DLVH'
p891
I1
sS'EKER'
p892
I22
sS'TCME'
p893
I1
sS'DYKK'
p894
I1
sS'QAIL'
p895
I1
sS'DLVQ'
p896
I5
sS'TSTT'
p897
I1
sS'TSTS'
p898
I1
sS'IGSL'
p899
I1
sS'WLKR'
p900
I2
sS'TGMV'
p901
I3
sS'IVAQ'
p902
I3
sS'GFAP'
p903
I3
sS'HPGK'
p904
I1
sS'PSLV'
p905
I5
sS'TAAV'
p906
I1
sS'TAAT'
p907
I1
sS'VEDD'
p908
I1
sS'TAAS'
p909
I1
sS'TAAP'
p910
I3
sS'VEDL'
p911
I10
sS'TQDL'
p912
I1
sS'EFYF'
p913
I1
sS'HEAD'
p914
I2
sS'PEAE'
p915
I4
sS'GRLS'
p916
I3
sS'GLLN'
p917
I1
sS'KPAP'
p918
I1
sS'DPER'
p919
I1
sS'KPAT'
p920
I2
sS'ISTQ'
p921
I2
sS'EEKV'
p922
I1
sS'EEKT'
p923
I1
sS'DCGK'
p924
I1
sS'AWVN'
p925
I10
sS'KPAG'
p926
I1
sS'AKRS'
p927
I1
sS'QRKE'
p928
I1
sS'LYNS'
p929
I1
sS'RQRL'
p930
I1
sS'SEIL'
p931
I1
sS'NKPP'
p932
I1
sS'AEIF'
p933
I1
sS'NKPK'
p934
I7
sS'QDVF'
p935
I2
sS'NKPA'
p936
I1
sS'VEVS'
p937
I1
sS'FRKH'
p938
I7
sS'SRRS'
p939
I1
sS'SRRR'
p940
I1
sS'RSTD'
p941
I1
sS'NYDG'
p942
I19
sS'EQPS'
p943
I1
sS'AGIG'
p944
I1
sS'FFDA'
p945
I14
sS'YFVG'
p946
I3
sS'VIQE'
p947
I1
sS'NIGM'
p948
I3
sS'EDDE'
p949
I4
sS'LDMT'
p950
I2
sS'VIQL'
p951
I6
sS'RMNV'
p952
I7
sS'EEYM'
p953
I15
sS'DVGA'
p954
I1
sS'AKRA'
p955
I5
sS'ESDP'
p956
I1
sS'SASR'
p957
I4
sS'YATE'
p958
I3
sS'EEAE'
p959
I1
sS'RHSS'
p960
I1
sS'GHTE'
p961
I2
sS'PMHK'
p962
I3
sS'TVIV'
p963
I1
sS'NNHP'
p964
I1
sS'SASK'
p965
I2
sS'SKPV'
p966
I4
sS'SKPT'
p967
I3
sS'ENYN'
p968
I2
sS'SKPS'
p969
I2
sS'YHAL'
p970
I1
sS'EDDS'
p971
I1
sS'SKPA'
p972
I1
sS'HFED'
p973
I1
sS'NWKV'
p974
I1
sS'SGSV'
p975
I1
sS'SGSS'
p976
I2
sS'ASFK'
p977
I7
sS'HRLM'
p978
I1
sS'IALE'
p979
I1
sS'SGSA'
p980
I6
sS'KNLG'
p981
I1
sS'PPST'
p982
I1
sS'KLEH'
p983
I19
sS'VLEE'
p984
I1
sS'ESVL'
p985
I1
sS'SAEL'
p986
I1
sS'KLYI'
p987
I1
sS'NENY'
p988
I2
sS'SAEV'
p989
I1
sS'TIIP'
p990
I7
sS'NGNG'
p991
I1
sS'NGNE'
p992
I1
sS'ESVY'
p993
I1
sS'PPSA'
p994
I3
sS'ATQR'
p995
I2
sS'PFRK'
p996
I7
sS'RERD'
p997
I1
sS'QLEI'
p998
I1
sS'QLEE'
p999
I1
sS'ISKP'
p1000
I2
sS'ISKS'
p1001
I1
sS'PIVA'
p1002
I3
sS'ISKK'
p1003
I1
sS'ATVG'
p1004
I1
sS'RSSP'
p1005
I1
sS'YCDS'
p1006
I1
sS'KSAK'
p1007
I1
sS'ARSS'
p1008
I1
sS'LKMV'
p1009
I1
sS'YQDI'
p1010
I1
sS'DFYF'
p1011
I24
sS'IQEM'
p1012
I1
sS'IEDC'
p1013
I1
sS'RNSV'
p1014
I1
sS'PDPG'
p1015
I7
sS'PVSK'
p1016
I3
sS'ALKK'
p1017
I8
sS'GKTA'
p1018
I1
sS'GIGE'
p1019
I1
sS'GIGG'
p1020
I1
sS'YFDQ'
p1021
I1
sS'GILY'
p1022
I3
sS'EYDP'
p1023
I13
sS'RGPA'
p1024
I1
sS'AVQC'
p1025
I2
sS'PGPT'
p1026
I7
sS'TVPV'
p1027
I1
sS'EYDM'
p1028
I1
sS'AAAT'
p1029
I1
sS'VNDI'
p1030
I7
sS'HCQL'
p1031
I1
sS'IKVE'
p1032
I1
sS'QTSG'
p1033
I3
sS'PGEQ'
p1034
I7
sS'KVNG'
p1035
I1
sS'KVNF'
p1036
I4
sS'RTVP'
p1037
I1
sS'RTVS'
p1038
I1
sS'RNEI'
p1039
I3
sS'TLQL'
p1040
I1
sS'PASK'
p1041
I3
sS'CKFQ'
p1042
I1
sS'HNYH'
p1043
I1
sS'LNDK'
p1044
I1
sS'LSDA'
p1045
I1
sS'RSSL'
p1046
I1
sS'VLKL'
p1047
I8
sS'VLKK'
p1048
I1
sS'VLKI'
p1049
I2
sS'PPED'
p1050
I4
sS'TPIP'
p1051
I1
sS'DEIE'
p1052
I3
sS'KPSP'
p1053
I1
sS'DSRS'
p1054
I1
sS'KYVE'
p1055
I1
sS'TFDG'
p1056
I1
sS'WLKK'
p1057
I1
sS'IANF'
p1058
I1
sS'AKNE'
p1059
I2
sS'VEQL'
p1060
I7
sS'LTTA'
p1061
I1
sS'EVNG'
p1062
I1
sS'EVNE'
p1063
I1
sS'INQV'
p1064
I1
sS'EVNR'
p1065
I1
sS'LTTS'
p1066
I1
sS'IYQD'
p1067
I1
sS'QRTA'
p1068
I3
sS'AQIL'
p1069
I3
sS'RSSS'
p1070
I1
sS'IMNE'
p1071
I2
sS'NVLK'
p1072
I7
sS'LQTN'
p1073
I2
sS'NPPS'
p1074
I3
sS'KEVE'
p1075
I1
sS'QRTP'
p1076
I3
sS'QRTS'
p1077
I3
sS'IMNS'
p1078
I1
sS'QRTT'
p1079
I2
sS'QRTV'
p1080
I1
sS'YEMI'
p1081
I2
sS'NLII'
p1082
I1
sS'LERR'
p1083
I1
sS'IPLE'
p1084
I1
sS'IPLK'
p1085
I1
sS'VIHD'
p1086
I1
sS'VHAR'
p1087
I1
sS'YNPV'
p1088
I2
sS'DQPA'
p1089
I1
sS'DLIN'
p1090
I1
sS'GQLV'
p1091
I1
sS'YNPL'
p1092
I3
sS'KSEY'
p1093
I1
sS'PDFV'
p1094
I1
sS'LERI'
p1095
I1
sS'EIFC'
p1096
I1
sS'ETQT'
p1097
I2
sS'HGGE'
p1098
I1
sS'GGHE'
p1099
I3
sS'HLTT'
p1100
I1
sS'WINS'
p1101
I1
sS'NSVT'
p1102
I1
sS'LERE'
p1103
I1
sS'QTPE'
p1104
I2
sS'SDKD'
p1105
I7
sS'KKVN'
p1106
I1
sS'KKVK'
p1107
I16
sS'KKVE'
p1108
I1
sS'WIND'
p1109
I3
sS'GESR'
p1110
I1
sS'HTVR'
p1111
I7
sS'EAAE'
p1112
I5
sS'EEHE'
p1113
I5
sS'STGM'
p1114
I1
sS'TKHI'
p1115
I1
sS'EKYV'
p1116
I1
sS'STGT'
p1117
I1
sS'SRGG'
p1118
I1
sS'EGDD'
p1119
I1
sS'EEHQ'
p1120
I3
sS'AQGI'
p1121
I1
sS'QNYK'
p1122
I3
sS'ASGA'
p1123
I2
sS'INEG'
p1124
I1
sS'FNAT'
p1125
I1
sS'FNAK'
p1126
I1
sS'ASGP'
p1127
I1
sS'RSYS'
p1128
I7
sS'LIRC'
p1129
I1
sS'INES'
p1130
I9
sS'FSRH'
p1131
I1
sS'SIKR'
p1132
I1
sS'AKPT'
p1133
I1
sS'LQAS'
p1134
I7
sS'LKPA'
p1135
I1
sS'AVSN'
p1136
I1
sS'AKPG'
p1137
I4
sS'HQQE'
p1138
I3
sS'KGTV'
p1139
I1
sS'LFPG'
p1140
I19
sS'GYEE'
p1141
I1
sS'NDGE'
p1142
I1
sS'TGPK'
p1143
I3
sS'PVLQ'
p1144
I9
sS'PVLN'
p1145
I1
sS'TGPS'
p1146
I1
sS'GESD'
p1147
I1
sS'TELK'
p1148
I1
sS'TELL'
p1149
I2
sS'PVLA'
p1150
I1
sS'WINQ'
p1151
I1
sS'EKVN'
p1152
I1
sS'GSGN'
p1153
I1
sS'LKLA'
p1154
I6
sS'PCPS'
p1155
I1
sS'QESF'
p1156
I1
sS'LKLT'
p1157
I11
sS'INST'
p1158
I1
sS'QESA'
p1159
I1
sS'SVVL'
p1160
I1
sS'CMEG'
p1161
I1
sS'GPKQ'
p1162
I1
sS'IEEC'
p1163
I1
sS'GPKS'
p1164
I1
sS'QAHD'
p1165
I1
sS'LKLY'
p1166
I1
sS'VVRK'
p1167
I3
sS'NSPT'
p1168
I7
sS'PVPA'
p1169
I1
sS'CQDH'
p1170
I1
sS'MNSV'
p1171
I1
sS'GKDY'
p1172
I6
sS'PSVK'
p1173
I1
sS'TVTT'
p1174
I1
sS'SCFS'
p1175
I1
sS'ITSL'
p1176
I1
sS'PVPV'
p1177
I1
sS'SNNL'
p1178
I1
sS'QHEG'
p1179
I1
sS'GFVI'
p1180
I9
sS'TNNM'
p1181
I1
sS'TNNN'
p1182
I1
sS'PANT'
p1183
I1
sS'DVDV'
p1184
I1
sS'VVPM'
p1185
I2
sS'YDAN'
p1186
I5
sS'VIPD'
p1187
I9
sS'ELND'
p1188
I1
sS'VSHL'
p1189
I1
sS'KPVS'
p1190
I2
sS'TNNV'
p1191
I1
sS'KPVP'
p1192
I1
sS'YSWG'
p1193
I7
sS'KPVT'
p1194
I1
sS'EQQE'
p1195
I1
sS'ENND'
p1196
I1
sS'ENNI'
p1197
I1
sS'EGVE'
p1198
I7
sS'ENNN'
p1199
I7
sS'NNIE'
p1200
I1
sS'SRPS'
p1201
I7
sS'ENNP'
p1202
I1
sS'EQQQ'
p1203
I1
sS'RCKM'
p1204
I1
sS'KNFS'
p1205
I1
sS'EQQR'
p1206
I1
sS'ESEN'
p1207
I3
sS'SATK'
p1208
I1
sS'KLVK'
p1209
I20
sS'RCKF'
p1210
I1
sS'ETMS'
p1211
I7
sS'FVQW'
p1212
I10
sS'AVLR'
p1213
I1
sS'RRGN'
p1214
I1
sS'KVIP'
p1215
I7
sS'HARL'
p1216
I1
sS'GTAV'
p1217
I3
sS'ALSP'
p1218
I1
sS'ETMF'
p1219
I1
sS'SHLN'
p1220
I1
sS'LNEQ'
p1221
I6
sS'PMSM'
p1222
I1
sS'LGSG'
p1223
I3
sS'LNEE'
p1224
I2
sS'ADGE'
p1225
I1
sS'VNLD'
p1226
I1
sS'LGSS'
p1227
I1
sS'SFAK'
p1228
I1
sS'TMFG'
p1229
I1
sS'STGN'
p1230
I1
sS'QPTF'
p1231
I1
sS'GSEE'
p1232
I1
sS'TTHR'
p1233
I1
sS'PPTS'
p1234
I1
sS'PMEA'
p1235
I1
sS'EGHP'
p1236
I1
sS'QLNE'
p1237
I5
sS'PPTE'
p1238
I1
sS'EITI'
p1239
I1
sS'IEKT'
p1240
I1
sS'NQVT'
p1241
I1
sS'KDLE'
p1242
I7
sS'ATQQ'
p1243
I1
sS'VNRL'
p1244
I1
sS'GGLA'
p1245
I1
sS'SLLQ'
p1246
I1
sS'LPIV'
p1247
I2
sS'IEKD'
p1248
I1
sS'QLDY'
p1249
I1
sS'EMTE'
p1250
I1
sS'MDSV'
p1251
I1
sS'RLQS'
p1252
I1
sS'LEQQ'
p1253
I2
sS'LGEH'
p1254
I1
sS'GDDL'
p1255
I1
sS'IDKV'
p1256
I1
sS'VAVK'
p1257
I2
sS'WAKR'
p1258
I1
sS'LGEV'
p1259
I1
sS'LQES'
p1260
I1
sS'VGVS'
p1261
I1
sS'NDLL'
p1262
I1
sS'LEQL'
p1263
I1
sS'EFIQ'
p1264
I3
sS'MFGL'
p1265
I1
sS'QGQE'
p1266
I9
sS'QGQD'
p1267
I10
sS'TDKD'
p1268
I1
sS'PGMV'
p1269
I2
sS'QGQL'
p1270
I1
sS'TQTM'
p1271
I1
sS'TQTL'
p1272
I7
sS'PIIT'
p1273
I1
sS'MMDS'
p1274
I3
sS'PGMG'
p1275
I1
sS'TSVT'
p1276
I13
sS'QLVA'
p1277
I1
sS'DKLI'
p1278
I1
sS'AVPC'
p1279
I1
sS'QGGY'
p1280
I1
sS'AGAA'
p1281
I7
sS'NGGI'
p1282
I2
sS'QGGE'
p1283
I1
sS'QQKR'
p1284
I1
sS'DIPL'
p1285
I1
sS'EYEF'
p1286
I1
sS'AVPQ'
p1287
I3
sS'DKLV'
p1288
I9
sS'DELN'
p1289
I1
sS'EYEM'
p1290
I2
sS'RTEL'
p1291
I1
sS'KIEQ'
p1292
I13
sS'KKIE'
p1293
I2
sS'KKIL'
p1294
I2
sS'PGSI'
p1295
I5
sS'LTCM'
p1296
I1
sS'EEQA'
p1297
I3
sS'PGST'
p1298
I7
sS'NITF'
p1299
I1
sS'KIEE'
p1300
I1
sS'NPGV'
p1301
I4
sS'YDPV'
p1302
I15
sS'DILE'
p1303
I1
sS'SILY'
p1304
I1
sS'GNRG'
p1305
I1
sS'AKQS'
p1306
I1
sS'VKFQ'
p1307
I19
sS'GRNE'
p1308
I3
sS'VDLL'
p1309
I1
sS'TLTK'
p1310
I3
sS'DILY'
p1311
I7
sS'VDLK'
p1312
I2
sS'AKQA'
p1313
I1
sS'NDDL'
p1314
I5
sS'TGSA'
p1315
I3
sS'SGPK'
p1316
I1
sS'DMLA'
p1317
I12
sS'KPGS'
p1318
I7
sS'GFGR'
p1319
I1
sS'PTQA'
p1320
I1
sS'DMLF'
p1321
I19
sS'PNLV'
p1322
I3
sS'KVKF'
p1323
I19
sS'FCDS'
p1324
I2
sS'QRII'
p1325
I1
sS'PVMN'
p1326
I2
sS'DPGE'
p1327
I7
sS'TGAP'
p1328
I1
sS'NPLL'
p1329
I3
sS'ETQL'
p1330
I1
sS'EQHE'
p1331
I1
sS'KGGT'
p1332
I2
sS'KGGK'
p1333
I1
sS'ETQV'
p1334
I7
sS'SVDL'
p1335
I1
sS'TGAA'
p1336
I1
sS'ETQR'
p1337
I1
sS'FVMP'
p1338
I1
sS'LVGS'
p1339
I1
sS'KREL'
p1340
I1
sS'VHLR'
p1341
I3
sS'QMLD'
p1342
I2
sS'LQSC'
p1343
I1
sS'ITKP'
p1344
I2
sS'PDQD'
p1345
I1
sS'NLNY'
p1346
I1
sS'YKKI'
p1347
I2
sS'EEQT'
p1348
I1
sS'LEGY'
p1349
I1
sS'EAEE'
p1350
I4
sS'PDQP'
p1351
I1
sS'RSRG'
p1352
I1
sS'RSRN'
p1353
I1
sS'SRTE'
p1354
I1
sS'TTSP'
p1355
I1
sS'DDES'
p1356
I4
sS'SEER'
p1357
I1
sS'SEEQ'
p1358
I1
sS'LRNI'
p1359
I9
sS'GKGY'
p1360
I1
sS'EYIH'
p1361
I10
sS'DFIQ'
p1362
I7
sS'DDEA'
p1363
I6
sS'VISG'
p1364
I3
sS'LIQQ'
p1365
I1
sS'DDEI'
p1366
I3
sS'DDEN'
p1367
I1
sS'SEEH'
p1368
I3
sS'TVGN'
p1369
I1
sS'ENML'
p1370
I1
sS'PAPV'
p1371
I1
sS'TEEH'
p1372
I1
sS'EQVH'
p1373
I9
sS'DVEI'
p1374
I2
sS'AAKS'
p1375
I6
sS'TTGK'
p1376
I1
sS'ESFA'
p1377
I1
sS'ACSG'
p1378
I1
sS'AQRT'
p1379
I3
sS'DPME'
p1380
I1
sS'DGKD'
p1381
I6
sS'DGKE'
p1382
I13
sS'ANLE'
p1383
I1
sS'STFD'
p1384
I1
sS'EEIE'
p1385
I1
sS'EGEV'
p1386
I1
sS'IRCK'
p1387
I1
sS'EEIM'
p1388
I1
sS'SLQL'
p1389
I9
sS'EGEG'
p1390
I1
sS'EGEE'
p1391
I4
sS'KEAT'
p1392
I1
sS'EGEN'
p1393
I8
sS'QKRK'
p1394
I1
sS'VSSG'
p1395
I1
sS'INDR'
p1396
I2
sS'YGDL'
p1397
I1
sS'LCQT'
p1398
I2
sS'QEGD'
p1399
I1
sS'QKRE'
p1400
I1
sS'INDE'
p1401
I1
sS'INDL'
p1402
I1
sS'PSMT'
p1403
I1
sS'SAGI'
p1404
I1
sS'EGYE'
p1405
I1
sS'SAGL'
p1406
I3
sS'SAGA'
p1407
I1
sS'MGNG'
p1408
I1
sS'AGLI'
p1409
I3
sS'NDSL'
p1410
I3
sS'SAGP'
p1411
I1
sS'YATA'
p1412
I1
sS'YATD'
p1413
I11
sS'TIGS'
p1414
I1
sS'IQQI'
p1415
I1
sS'KQAQ'
p1416
I1
sS'NGLL'
p1417
I1
sS'NGLN'
p1418
I1
sS'PITT'
p1419
I1
sS'AVAP'
p1420
I4
sS'RETL'
p1421
I1
sS'ATPK'
p1422
I4
sS'SLKI'
p1423
I1
sS'SLKK'
p1424
I7
sS'SLKL'
p1425
I6
sS'TEEP'
p1426
I4
sS'QLGS'
p1427
I1
sS'HWIR'
p1428
I1
sS'KQAK'
p1429
I1
sS'SLKG'
p1430
I1
sS'FEDE'
p1431
I1
sS'LTRI'
p1432
I1
sS'KFYD'
p1433
I5
sS'VDPE'
p1434
I1
sS'SSKP'
p1435
I1
sS'INRL'
p1436
I1
sS'SSKI'
p1437
I1
sS'ILAW'
p1438
I1
sS'NQGG'
p1439
I1
sS'EDVG'
p1440
I1
sS'SYLQ'
p1441
I1
sS'MNRV'
p1442
I1
sS'VPSA'
p1443
I1
sS'CQEH'
p1444
I10
sS'CQEN'
p1445
I9
sS'MENM'
p1446
I1
sS'VTSE'
p1447
I3
sS'PTEL'
p1448
I1
sS'PLTS'
p1449
I1
sS'VTSL'
p1450
I1
sS'GTRK'
p1451
I1
sS'PVQR'
p1452
I1
sS'KQSK'
p1453
I1
sS'RNIE'
p1454
I9
sS'ITNN'
p1455
I1
sS'APPE'
p1456
I4
sS'QVTS'
p1457
I1
sS'KKFF'
p1458
I14
sS'LTDH'
p1459
I1
sS'TGNH'
p1460
I1
sS'IVNL'
p1461
I1
sS'KKFY'
p1462
I5
sS'TANT'
p1463
I1
sS'ETLS'
p1464
I1
sS'VKGR'
p1465
I10
sS'VKGS'
p1466
I2
sS'PAQG'
p1467
I1
sS'TLSE'
p1468
I1
sS'RNGG'
p1469
I3
sS'RRRQ'
p1470
I1
sS'QITS'
p1471
I1
sS'GISK'
p1472
I1
sS'VKGK'
p1473
I12
sS'TLSP'
p1474
I8
sS'TPKA'
p1475
I1
sS'IIHP'
p1476
I1
sS'DSLE'
p1477
I1
sS'SAIP'
p1478
I1
sS'TPKP'
p1479
I1
sS'TPKS'
p1480
I1
sS'DSLL'
p1481
I1
sS'DSLH'
p1482
I3
sS'VSST'
p1483
I1
sS'GLSK'
p1484
I1
sS'EVLY'
p1485
I3
sS'IALK'
p1486
I6
sS'AELT'
p1487
I1
sS'LTVD'
p1488
I3
sS'AELM'
p1489
I5
sS'SVGL'
p1490
I1
sS'AELI'
p1491
I1
sS'EVLK'
p1492
I1
sS'VESI'
p1493
I1
sS'APPP'
p1494
I3
sS'GPKN'
p1495
I3
sS'LEFM'
p1496
I1
sS'LEFL'
p1497
I3
sS'LEFA'
p1498
I1
sS'IITN'
p1499
I1
sS'LQRL'
p1500
I1
sS'EPDQ'
p1501
I1
sS'LEFV'
p1502
I1
sS'LQDV'
p1503
I2
sS'YLNQ'
p1504
I1
sS'TPEL'
p1505
I2
sS'LARQ'
p1506
I3
sS'GMMD'
p1507
I3
sS'LQDE'
p1508
I1
sS'SPIA'
p1509
I2
sS'DLKD'
p1510
I1
sS'VSNP'
p1511
I1
sS'TDLL'
p1512
I1
sS'IEEH'
p1513
I3
sS'DLKL'
p1514
I3
sS'AILY'
p1515
I1
sS'DLKI'
p1516
I1
sS'APQR'
p1517
I8
sS'MPGP'
p1518
I7
sS'DLKV'
p1519
I1
sS'GCIS'
p1520
I7
sS'VSNK'
p1521
I1
sS'DFVH'
p1522
I1
sS'NMQT'
p1523
I3
sS'VSNN'
p1524
I1
sS'EEFN'
p1525
I1
sS'AQEY'
p1526
I1
sS'ITQE'
p1527
I7
sS'STED'
p1528
I1
sS'EGFV'
p1529
I9
sS'IEEA'
p1530
I1
sS'SRIE'
p1531
I1
sS'EGFE'
p1532
I1
sS'EQAH'
p1533
I3
sS'AQEC'
p1534
I1
sS'SVKS'
p1535
I1
sS'MTKS'
p1536
I1
sS'QKSV'
p1537
I1
sS'THHS'
p1538
I1
sS'PNSS'
p1539
I1
sS'FQDN'
p1540
I20
sS'KFND'
p1541
I1
sS'KFNA'
p1542
I1
sS'ILVH'
p1543
I1
sS'PELD'
p1544
I2
sS'QESH'
p1545
I1
sS'FLKK'
p1546
I1
sS'KYFD'
p1547
I1
sS'KKSH'
p1548
I6
sS'KTVY'
p1549
I1
sS'HGTV'
p1550
I1
sS'GLAT'
p1551
I1
sS'SKAS'
p1552
I1
sS'MEAR'
p1553
I1
sS'KTVI'
p1554
I1
sS'TQAL'
p1555
I1
sS'TQAM'
p1556
I1
sS'AKRF'
p1557
I1
sS'QEGQ'
p1558
I2
sS'FAKL'
p1559
I1
sS'LKRF'
p1560
I2
sS'NDEE'
p1561
I1
sS'NDEG'
p1562
I1
sS'LSRI'
p1563
I1
sS'DNGT'
p1564
I5
sS'LSRH'
p1565
I12
sS'QLLD'
p1566
I2
sS'NDET'
p1567
I1
sS'ALKI'
p1568
I1
sS'HDNG'
p1569
I1
sS'QEQE'
p1570
I1
sS'LINE'
p1571
I1
sS'KSLQ'
p1572
I2
sS'CQFM'
p1573
I19
sS'GVED'
p1574
I1
sS'PVVN'
p1575
I1
sS'RLVK'
p1576
I2
sS'PVVA'
p1577
I1
sS'GVEK'
p1578
I8
sS'YDMI'
p1579
I1
sS'PTFK'
p1580
I1
sS'QFMD'
p1581
I19
sS'SEPP'
p1582
I1
sS'SVTE'
p1583
I1
sS'NSVL'
p1584
I1
sS'CQTP'
p1585
I2
sS'KPTP'
p1586
I5
sS'GVSN'
p1587
I1
sS'KPTT'
p1588
I1
sS'MVKK'
p1589
I3
sS'NDKN'
p1590
I1
sS'PALS'
p1591
I2
sS'PTDK'
p1592
I1
sS'SNNT'
p1593
I1
sS'YFSK'
p1594
I6
sS'PALN'
p1595
I3
sS'AGDD'
p1596
I3
sS'EETF'
p1597
I1
sS'KPTL'
p1598
I1
sS'KPTN'
p1599
I1
sS'EGHT'
p1600
I2
sS'KELE'
p1601
I1
sS'GDDE'
p1602
I9
sS'NEYQ'
p1603
I1
sS'KLTV'
p1604
I11
sS'NLSK'
p1605
I1
sS'PTTA'
p1606
I1
sS'QEHG'
p1607
I8
sS'KELV'
p1608
I1
sS'NLSR'
p1609
I14
sS'KGKF'
p1610
I12
sS'PTTT'
p1611
I2
sS'AHEQ'
p1612
I2
sS'ENLS'
p1613
I3
sS'NEYD'
p1614
I1
sS'NEYE'
p1615
I1
sS'LVKS'
p1616
I1
sS'ELNQ'
p1617
I3
sS'IGMM'
p1618
I3
sS'FTKL'
p1619
I1
sS'GTGM'
p1620
I2
sS'GKFQ'
p1621
I12
sS'ATSN'
p1622
I1
sS'GTGA'
p1623
I1
sS'LPKK'
p1624
I7
sS'LDNL'
p1625
I3
sS'RILY'
p1626
I1
sS'LVKG'
p1627
I22
sS'TLTQ'
p1628
I1
sS'GTGS'
p1629
I3
sS'VKFN'
p1630
I1
sS'TPTT'
p1631
I1
sS'TITG'
p1632
I1
sS'VLNK'
p1633
I1
sS'ADAQ'
p1634
I2
sS'DENI'
p1635
I1
sS'IIGI'
p1636
I3
sS'GATG'
p1637
I1
sS'ESQK'
p1638
I1
sS'RFQD'
p1639
I7
sS'TVRG'
p1640
I7
sS'YDAL'
p1641
I1
sS'AAFK'
p1642
I3
sS'LEKE'
p1643
I15
sS'IVDI'
p1644
I5
sS'LSWI'
p1645
I1
sS'LLQD'
p1646
I1
sS'NGKE'
p1647
I1
sS'PPVA'
p1648
I1
sS'RGGR'
p1649
I1
sS'LMQQ'
p1650
I5
sS'IQNY'
p1651
I3
sS'SSVS'
p1652
I1
sS'PPVV'
p1653
I1
sS'IEIL'
p1654
I4
sS'IQNF'
p1655
I9
sS'NASD'
p1656
I1
sS'PKKS'
p1657
I6
sS'PKKP'
p1658
I10
sS'SSVG'
p1659
I1
sS'AMIQ'
p1660
I1
sS'DDDE'
p1661
I1
sS'PDAR'
p1662
I1
sS'RVKF'
p1663
I1
sS'IDEE'
p1664
I1
sS'HPPV'
p1665
I1
sS'HPPP'
p1666
I1
sS'TQRV'
p1667
I1
sS'MLAW'
p1668
I12
sS'LNQQ'
p1669
I3
sS'LNQS'
p1670
I2
sS'TQRT'
p1671
I4
sS'SVTS'
p1672
I12
sS'SVTQ'
p1673
I1
sS'VQAL'
p1674
I2
sS'DLLE'
p1675
I2
sS'GEVG'
p1676
I1
sS'MDIL'
p1677
I2
sS'APPT'
p1678
I1
sS'APPR'
p1679
I1
sS'SSAN'
p1680
I1
sS'DLLQ'
p1681
I2
sS'SDAS'
p1682
I1
sS'GEVN'
p1683
I1
sS'GEVL'
p1684
I1
sS'TNNS'
p1685
I1
sS'APPC'
p1686
I3
sS'QCQM'
p1687
I2
sS'AVNV'
p1688
I19
sS'YIDS'
p1689
I1
sS'EPYN'
p1690
I1
sS'QQIN'
p1691
I1
sS'GEDV'
p1692
I1
sS'EKLV'
p1693
I10
sS'QNDE'
p1694
I1
sS'DKNL'
p1695
I1
sS'MIQN'
p1696
I3
sS'MIQI'
p1697
I1
sS'QSGK'
p1698
I1
sS'TSPM'
p1699
I1
sS'KVEE'
p1700
I1
sS'ETAV'
p1701
I4
sS'QVSS'
p1702
I1
sS'KKGI'
p1703
I1
sS'TAMA'
p1704
I1
sS'EACS'
p1705
I1
sS'APNL'
p1706
I3
sS'ARNG'
p1707
I3
sS'KVEQ'
p1708
I7
sS'KVES'
p1709
I1
sS'QVSH'
p1710
I1
sS'ITIQ'
p1711
I1
sS'TSLG'
p1712
I1
sS'TSLE'
p1713
I1
sS'SRVE'
p1714
I1
sS'GNTA'
p1715
I1
sS'FGRN'
p1716
I1
sS'SKPG'
p1717
I3
sS'EQQK'
p1718
I1
sS'SING'
p1719
I2
sS'AKSE'
p1720
I1
sS'SGAV'
p1721
I3
sS'VVAV'
p1722
I2
sS'TSPT'
p1723
I3
sS'ARRK'
p1724
I1
sS'TWLN'
p1725
I1
sS'ITFM'
p1726
I1
sS'SGAA'
p1727
I19
sS'QDLI'
p1728
I1
sS'YDPD'
p1729
I1
sS'KRIL'
p1730
I1
sS'NESA'
p1731
I1
sS'HEGH'
p1732
I3
sS'YDPM'
p1733
I1
sS'EQQP'
p1734
I3
sS'THLT'
p1735
I1
sS'VERR'
p1736
I2
sS'SNGT'
p1737
I1
sS'KIIP'
p1738
I12
sS'EGVY'
p1739
I1
sS'AKAA'
p1740
I1
sS'LTWI'
p1741
I1
sS'LTWL'
p1742
I1
sS'STVT'
p1743
I1
sS'LEEQ'
p1744
I1
sS'LGIN'
p1745
I1
sS'LEEE'
p1746
I1
sS'LEEA'
p1747
I1
sS'NEDD'
p1748
I1
sS'LEEL'
p1749
I1
sS'TESQ'
p1750
I1
sS'GFKR'
p1751
I8
sS'VFTK'
p1752
I1
sS'PVAT'
p1753
I1
sS'GKER'
p1754
I1
sS'GKEA'
p1755
I1
sS'GFKK'
p1756
I1
sS'PLDN'
p1757
I3
sS'GKEE'
p1758
I1
sS'ENSP'
p1759
I3
sS'EQTH'
p1760
I1
sS'LRKN'
p1761
I3
sS'NLPK'
p1762
I7
sS'NNDV'
p1763
I1
sS'GEDE'
p1764
I1
sS'NNDL'
p1765
I1
sS'TVED'
p1766
I9
sS'QIFN'
p1767
I10
sS'NNDI'
p1768
I6
sS'QIFD'
p1769
I1
sS'VFLK'
p1770
I1
sS'VRKN'
p1771
I5
sS'AAIT'
p1772
I1
sS'VALK'
p1773
I3
sS'STDL'
p1774
I1
sS'EEGK'
p1775
I1
sS'EGGP'
p1776
I5
sS'EEGE'
p1777
I2
sS'NVYS'
p1778
I19
sS'NYNP'
p1779
I2
sS'CLNQ'
p1780
I1
sS'SRHG'
p1781
I1
sS'IPVE'
p1782
I10
sS'SRHD'
p1783
I19
sS'KCSG'
p1784
I1
sS'STDS'
p1785
I1
sS'TVDG'
p1786
I3
sS'ILQS'
p1787
I1
sS'GGEN'
p1788
I1
sS'ILQA'
p1789
I5
sS'PNPG'
p1790
I3
sS'ESRT'
p1791
I1
sS'AAGD'
p1792
I3
sS'SPAS'
p1793
I3
sS'ESRQ'
p1794
I1
sS'TTKT'
p1795
I1
sS'VYKF'
p1796
I1
sS'TVSN'
p1797
I1
sS'SAYF'
p1798
I3
sS'PTGP'
p1799
I3
sS'TVST'
p1800
I2
sS'KGYA'
p1801
I1
sS'KLAL'
p1802
I6
sS'VLYA'
p1803
I5
sS'GEND'
p1804
I7
sS'QEDQ'
p1805
I3
sS'GGKE'
p1806
I1
sS'LKIL'
p1807
I1
sS'NHHH'
p1808
I1
sS'ILCQ'
p1809
I3
sS'EIEI'
p1810
I1
sS'VDVA'
p1811
I1
sS'CSGS'
p1812
I2
sS'EIEL'
p1813
I7
sS'EIEQ'
p1814
I1
sS'EIER'
p1815
I1
sS'ETAM'
p1816
I1
sS'LKIP'
p1817
I1
sS'LKIS'
p1818
I1
sS'IQAE'
p1819
I1
sS'QEVF'
p1820
I1
sS'VPQR'
p1821
I3
sS'PLVG'
p1822
I1
sS'SQET'
p1823
I1
sS'GVDK'
p1824
I12
sS'SSIS'
p1825
I1
sS'PAAK'
p1826
I3
sS'VTQG'
p1827
I1
sS'DDIL'
p1828
I1
sS'SEQV'
p1829
I1
sS'GDYD'
p1830
I1
sS'QAQQ'
p1831
I1
sS'GGYA'
p1832
I1
sS'GEEQ'
p1833
I2
sS'QLSE'
p1834
I1
sS'TSSR'
p1835
I1
sS'FKRM'
p1836
I15
sS'QQVF'
p1837
I1
sS'DKII'
p1838
I12
sS'QQVN'
p1839
I3
sS'GEEG'
p1840
I1
sS'QLSS'
p1841
I1
sS'GEEE'
p1842
I3
sS'QQVK'
p1843
I2
sS'APAL'
p1844
I5
sS'TALT'
p1845
I1
sS'VKKV'
p1846
I1
sS'GPQE'
p1847
I5
sS'SHGI'
p1848
I1
sS'VKKA'
p1849
I3
sS'VKKI'
p1850
I2
sS'HSST'
p1851
I1
sS'ATRH'
p1852
I1
sS'CQIM'
p1853
I1
sS'LVHR'
p1854
I1
sS'DEHE'
p1855
I1
sS'HSSK'
p1856
I1
sS'HSSL'
p1857
I1
sS'DEHF'
p1858
I1
sS'PHHA'
p1859
I1
sS'SAKK'
p1860
I2
sS'SAKA'
p1861
I1
sS'QWFK'
p1862
I19
sS'LGTG'
p1863
I2
sS'DNSA'
p1864
I1
sS'SAKQ'
p1865
I1
sS'EARQ'
p1866
I7
sS'SAKR'
p1867
I5
sS'EIEE'
p1868
I3
sS'MQWM'
p1869
I1
sS'FVHA'
p1870
I1
sS'HLPL'
p1871
I1
sS'KRFW'
p1872
I1
sS'YINN'
p1873
I1
sS'TQQS'
p1874
I1
sS'PDTE'
p1875
I1
sS'DRDF'
p1876
I1
sS'NEIL'
p1877
I3
sS'KRFC'
p1878
I2
sS'KMGV'
p1879
I4
sS'SVAL'
p1880
I3
sS'KERS'
p1881
I1
sS'VGAA'
p1882
I1
sS'LEDA'
p1883
I1
sS'KERD'
p1884
I22
sS'NKSK'
p1885
I3
sS'HHHS'
p1886
I1
sS'ARRG'
p1887
I1
sS'GQHN'
p1888
I1
sS'IPPP'
p1889
I5
sS'DESV'
p1890
I1
sS'LEVN'
p1891
I1
sS'IIDE'
p1892
I1
sS'VGSI'
p1893
I1
sS'SQKR'
p1894
I1
sS'DESA'
p1895
I4
sS'LEVD'
p1896
I1
sS'LIGT'
p1897
I3
sS'APSS'
p1898
I1
sS'LLNL'
p1899
I1
sS'VVAG'
p1900
I1
sS'APSL'
p1901
I5
sS'VSLN'
p1902
I5
sS'GNED'
p1903
I1
sS'GNEG'
p1904
I1
sS'TKTV'
p1905
I1
sS'VTSD'
p1906
I9
sS'AAEL'
p1907
I5
sS'DARR'
p1908
I1
sS'SRKT'
p1909
I1
sS'AKSH'
p1910
I1
sS'HEYI'
p1911
I19
sS'IQDI'
p1912
I1
sS'EQGG'
p1913
I1
sS'EQGE'
p1914
I1
sS'NFSY'
p1915
I1
sS'PTAG'
p1916
I7
sS'ELPP'
p1917
I1
sS'ASKP'
p1918
I4
sS'ASKS'
p1919
I2
sS'HEGE'
p1920
I2
sS'ASKG'
p1921
I1
sS'SLET'
p1922
I1
sS'VSPT'
p1923
I1
sS'SIAL'
p1924
I5
sS'GREK'
p1925
I1
sS'AKSS'
p1926
I6
sS'DIIQ'
p1927
I6
sS'VQRL'
p1928
I5
sS'VQRT'
p1929
I1
sS'MDSI'
p1930
I1
sS'DIIA'
p1931
I7
sS'FQTN'
p1932
I1
sS'DIIH'
p1933
I1
sS'RAKQ'
p1934
I1
sS'LTSS'
p1935
I1
sS'TGTH'
p1936
I1
sS'GYAN'
p1937
I1
sS'GYAM'
p1938
I1
sS'SPTA'
p1939
I7
sS'NKIP'
p1940
I1
sS'TGTG'
p1941
I1
sS'ALER'
p1942
I1
sS'QVNV'
p1943
I3
sS'PLKK'
p1944
I1
sS'ALED'
p1945
I1
sS'LYID'
p1946
I1
sS'ALEG'
p1947
I7
sS'MQND'
p1948
I1
sS'KPSA'
p1949
I1
sS'ESAE'
p1950
I1
sS'MDSA'
p1951
I3
sS'SISK'
p1952
I2
sS'GPGV'
p1953
I3
sS'NSPV'
p1954
I3
sS'GPGM'
p1955
I2
sS'GVGN'
p1956
I4
sS'QYYP'
p1957
I1
sS'AAEV'
p1958
I1
sS'LDDL'
p1959
I2
sS'QYYT'
p1960
I1
sS'EKTQ'
p1961
I1
sS'ISLK'
p1962
I7
sS'NSTL'
p1963
I1
sS'PVTK'
p1964
I1
sS'NQHQ'
p1965
I1
sS'PLEV'
p1966
I1
sS'PNQG'
p1967
I1
sS'NDII'
p1968
I6
sS'PLEQ'
p1969
I1
sS'SNHD'
p1970
I1
sS'HETD'
p1971
I1
sS'AGFK'
p1972
I9
sS'AEVQ'
p1973
I2
sS'NDIV'
p1974
I6
sS'QYKG'
p1975
I1
sS'PLEI'
p1976
I1
sS'VVLK'
p1977
I1
sS'AQQQ'
p1978
I1
sS'NNEY'
p1979
I1
sS'ESAP'
p1980
I1
sS'EERR'
p1981
I1
sS'KLRN'
p1982
I9
sS'ESAL'
p1983
I1
sS'AAVL'
p1984
I1
sS'ESAG'
p1985
I3
sS'KLRE'
p1986
I8
sS'KLRD'
p1987
I7
sS'RTSP'
p1988
I3
sS'SLHL'
p1989
I3
sS'RGER'
p1990
I7
sS'DSIY'
p1991
I2
sS'YSTE'
p1992
I1
sS'EASK'
p1993
I1
sS'LAWI'
p1994
I11
sS'GAVQ'
p1995
I2
sS'SALE'
p1996
I1
sS'ILTW'
p1997
I1
sS'GAVH'
p1998
I1
sS'DSIN'
p1999
I2
sS'GGIM'
p2000
I2
sS'LAWV'
p2001
I3
sS'WLNG'
p2002
I1
sS'RKNP'
p2003
I8
sS'TVPN'
p2004
I1
sS'TVPM'
p2005
I1
sS'PRTV'
p2006
I1
sS'AADG'
p2007
I1
sS'TTLS'
p2008
I1
sS'GSIA'
p2009
I5
sS'NEEI'
p2010
I1
sS'RQVS'
p2011
I1
sS'DTNN'
p2012
I1
sS'NEEE'
p2013
I1
sS'MSES'
p2014
I1
sS'GSIK'
p2015
I1
sS'QEEQ'
p2016
I8
sS'IQLS'
p2017
I1
sS'YASE'
p2018
I3
sS'YASD'
p2019
I3
sS'QEEY'
p2020
I15
sS'SSTP'
p2021
I1
sS'REIE'
p2022
I8
sS'EAQM'
p2023
I1
sS'QEEE'
p2024
I3
sS'SSTL'
p2025
I1
sS'SSTA'
p2026
I2
sS'IQLN'
p2027
I5
sS'SSTG'
p2028
I2
sS'VGRS'
p2029
I1
sS'LKKV'
p2030
I17
sS'EAAA'
p2031
I1
sS'IPST'
p2032
I1
sS'EVSK'
p2033
I1
sS'EVSE'
p2034
I1
sS'ICQE'
p2035
I12
sS'RVMN'
p2036
I1
sS'YIQN'
p2037
I9
sS'IIEI'
p2038
I1
sS'EAAS'
p2039
I2
sS'LQAG'
p2040
I9
sS'DNNG'
p2041
I2
sS'SPNG'
p2042
I7
sS'VGRN'
p2043
I2
sS'LQAA'
p2044
I3
sS'PKQA'
p2045
I1
sS'QQEE'
p2046
I7
sS'QQED'
p2047
I3
sS'ELLC'
p2048
I7
sS'QNPD'
p2049
I1
sS'VMPG'
p2050
I1
sS'VQCQ'
p2051
I2
sS'KFQA'
p2052
I19
sS'LDLK'
p2053
I2
sS'NGGA'
p2054
I1
sS'HDTN'
p2055
I1
sS'NGGH'
p2056
I3
sS'KSVI'
p2057
I1
sS'KSVK'
p2058
I1
sS'LQQV'
p2059
I1
sS'NGGQ'
p2060
I1
sS'KSVS'
p2061
I1
sS'EMND'
p2062
I1
sS'QDAL'
p2063
I2
sS'SEPE'
p2064
I1
sS'SLVA'
p2065
I5
sS'TAKP'
p2066
I1
sS'TAKR'
p2067
I1
sS'LCQL'
p2068
I1
sS'LCQN'
p2069
I1
sS'RTAV'
p2070
I1
sS'ARLQ'
p2071
I1
sS'QTMA'
p2072
I1
sS'EYIK'
p2073
I1
sS'RTAA'
p2074
I2
sS'DYEY'
p2075
I1
sS'EYIQ'
p2076
I9
sS'KMVN'
p2077
I1
sS'HSDV'
p2078
I1
sS'ITKH'
p2079
I1
sS'EHQQ'
p2080
I3
sS'FKPT'
p2081
I1
sS'TSNK'
p2082
I1
sS'YEFQ'
p2083
I1
sS'SKLR'
p2084
I6
sS'SKLV'
p2085
I1
sS'HGQE'
p2086
I6
sS'QAEL'
p2087
I1
sS'EILY'
p2088
I4
sS'HEEA'
p2089
I1
sS'KTSV'
p2090
I1
sS'SRCK'
p2091
I1
sS'QPAD'
p2092
I1
sS'KRKL'
p2093
I1
sS'SGGL'
p2094
I1
sS'HNFK'
p2095
I10
sS'QAAF'
p2096
I3
sS'TGEP'
p2097
I1
sS'EVFT'
p2098
I1
sS'KDYD'
p2099
I3
sS'AAPK'
p2100
I4
sS'SHTE'
p2101
I2
sS'TQPT'
p2102
I1
sS'EFMQ'
p2103
I1
sS'FVIP'
p2104
I9
sS'AAPV'
p2105
I1
sS'TEQH'
p2106
I1
sS'STTT'
p2107
I1
sS'IHNF'
p2108
I10
sS'LLQR'
p2109
I1
sS'GTVS'
p2110
I1
sS'LLQL'
p2111
I1
sS'ECGT'
p2112
I1
sS'STTG'
p2113
I1
sS'KGKT'
p2114
I1
sS'LLQA'
p2115
I7
sS'HESH'
p2116
I1
sS'QETM'
p2117
I7
sS'SNKI'
p2118
I1
sS'AYFV'
p2119
I3
sS'HESE'
p2120
I3
sS'ILSW'
p2121
I1
sS'NFNA'
p2122
I1
sS'SNKP'
p2123
I2
sS'ANFE'
p2124
I1
sS'ELEE'
p2125
I1
sS'DVAA'
p2126
I1
sS'PVAA'
p2127
I9
sS'ELEQ'
p2128
I2
sS'EGKE'
p2129
I1
sS'DVAP'
p2130
I3
sS'KHTV'
p2131
I7
sS'TVAP'
p2132
I3
sS'VGNG'
p2133
I5
sS'QDNG'
p2134
I4
sS'QDNF'
p2135
I12
sS'EEEQ'
p2136
I3
sS'KPKK'
p2137
I9
sS'QDNL'
p2138
I9
sS'NDVI'
p2139
I1
sS'QDNN'
p2140
I2
sS'EEEE'
p2141
I18
sS'EEED'
p2142
I1
sS'EEEG'
p2143
I2
sS'EEEF'
p2144
I1
sS'EEEA'
p2145
I1
sS'QDNS'
p2146
I1
sS'AAYC'
p2147
I19
sS'EADA'
p2148
I2
sS'EEEI'
p2149
I1
sS'EEEH'
p2150
I1
sS'EEEK'
p2151
I1
sS'DAQE'
p2152
I1
sS'NNTG'
p2153
I1
sS'PSAP'
p2154
I1
sS'PSAR'
p2155
I3
sS'DAQI'
p2156
I3
sS'PSAK'
p2157
I1
sS'RHGI'
p2158
I1
sS'GIMN'
p2159
I2
sS'GSNS'
p2160
I1
sS'QASF'
p2161
I7
sS'MNVD'
p2162
I7
sS'LSPR'
p2163
I1
sS'LSPI'
p2164
I1
sS'LSPN'
p2165
I7
sS'GSNH'
p2166
I1
sS'AAET'
p2167
I2
sS'GSNK'
p2168
I1
sS'DHSD'
p2169
I1
sS'KAAG'
p2170
I3
sS'KAAE'
p2171
I1
sS'QNFK'
p2172
I9
sS'QLCS'
p2173
I18
sS'HGHE'
p2174
I1
sS'NHDV'
p2175
I1
sS'MDVL'
p2176
I2
sS'KAAP'
p2177
I1
sS'IHPG'
p2178
I1
sS'TFPG'
p2179
I2
sS'NATA'
p2180
I1
sS'REFY'
p2181
I1
sS'NIEQ'
p2182
I1
sS'EKSV'
p2183
I1
sS'FSKL'
p2184
I6
sS'LKKG'
p2185
I1
sS'LIVN'
p2186
I1
sS'KSKK'
p2187
I3
sS'SITQ'
p2188
I7
sS'HDII'
p2189
I7
sS'AHDQ'
p2190
I1
sS'LKKH'
p2191
I1
sS'TNYK'
p2192
I1
sS'SESR'
p2193
I1
sS'QETA'
p2194
I5
sS'PAGP'
p2195
I1
sS'GTVP'
p2196
I2
sS'IGTA'
p2197
I3
sS'SSGA'
p2198
I1
sS'QETI'
p2199
I1
sS'QETV'
p2200
I3
sS'TLEI'
p2201
I1
sS'GKIN'
p2202
I1
sS'YFNK'
p2203
I2
sS'SSGS'
p2204
I6
sS'GGGS'
p2205
I1
sS'SVSD'
p2206
I1
sS'IERR'
p2207
I1
sS'QLMD'
p2208
I1
sS'AVKK'
p2209
I2
sS'IERE'
p2210
I1
sS'VKVL'
p2211
I2
sS'PGSV'
p2212
I4
sS'NSAT'
p2213
I1
sS'GEGE'
p2214
I1
sS'DYDP'
p2215
I3
sS'ATNI'
p2216
I3
sS'LPPP'
p2217
I2
sS'RRNS'
p2218
I1
sS'GHEA'
p2219
I2
sS'DYDA'
p2220
I1
sS'QNAS'
p2221
I1
sS'EEGF'
p2222
I3
sS'LVDI'
p2223
I1
sS'QTLS'
p2224
I7
sS'LVDL'
p2225
I2
sS'SLGL'
p2226
I2
sS'VTES'
p2227
I1
sS'SLGI'
p2228
I1
sS'ERLS'
p2229
I1
sS'ERLR'
p2230
I1
sS'EDLK'
p2231
I1
sS'IELL'
p2232
I7
sS'IELI'
p2233
I12
sS'LPPD'
p2234
I1
sS'SLGV'
p2235
I1
sS'MHHP'
p2236
I1
sS'RIIE'
p2237
I1
sS'DILA'
p2238
I1
sS'RTPA'
p2239
I3
sS'TIQD'
p2240
I1
sS'FNLP'
p2241
I7
sS'CILR'
p2242
I3
sS'SAMS'
p2243
I1
sS'LGVE'
p2244
I2
sS'TQGQ'
p2245
I1
sS'QANL'
p2246
I1
sS'GNGG'
p2247
I1
sS'KKPL'
p2248
I9
sS'GNGE'
p2249
I1
sS'HLRK'
p2250
I3
sS'KKPH'
p2251
I1
sS'GNGN'
p2252
I1
sS'KILQ'
p2253
I6
sS'HQEQ'
p2254
I1
sS'EFLQ'
p2255
I3
sS'VDKV'
p2256
I7
sS'IIPV'
p2257
I12
sS'DASD'
p2258
I1
sS'STSS'
p2259
I1
sS'STST'
p2260
I1
sS'IFDS'
p2261
I1
sS'SPSS'
p2262
I1
sS'IIPF'
p2263
I7
sS'STSI'
p2264
I7
sS'CLNY'
p2265
I1
sS'LQNA'
p2266
I1
sS'MTFP'
p2267
I2
sS'ANYD'
p2268
I19
sS'LLRF'
p2269
I1
sS'LNLS'
p2270
I3
sS'LNLT'
p2271
I6
sS'GMAV'
p2272
I7
sS'GSRK'
p2273
I1
sS'YTKV'
p2274
I6
sS'SPAA'
p2275
I3
sS'LNLN'
p2276
I1
sS'TPAT'
p2277
I3
sS'SDNL'
p2278
I9
sS'SDNF'
p2279
I1
sS'MQEV'
p2280
I1
sS'LETQ'
p2281
I8
sS'PKPT'
p2282
I1
sS'SPMS'
p2283
I1
sS'GHGN'
p2284
I1
sS'IYGD'
p2285
I1
sS'QRLM'
p2286
I6
sS'QDIE'
p2287
I1
sS'QQIT'
p2288
I1
sS'EQES'
p2289
I1
sS'AGPG'
p2290
I5
sS'VAAR'
p2291
I9
sS'QDIP'
p2292
I1
sS'RQEL'
p2293
I1
sS'LHLN'
p2294
I5
sS'VAAI'
p2295
I1
sS'STAA'
p2296
I1
sS'STAN'
p2297
I1
sS'VEEQ'
p2298
I1
sS'QRLS'
p2299
I1
sS'EQEE'
p2300
I10
sS'EQEG'
p2301
I2
sS'NVDK'
p2302
I7
sS'EDLE'
p2303
I9
sS'FAQW'
p2304
I1
sS'AYCQ'
p2305
I19
sS'VSVD'
p2306
I1
sS'RHDM'
p2307
I12
sS'FWDQ'
p2308
I1
sS'RHDI'
p2309
I7
sS'VQTH'
p2310
I1
sS'SENS'
p2311
I3
sS'TSIT'
p2312
I7
sS'QHQE'
p2313
I1
sS'NGTT'
p2314
I1
sS'TAVA'
p2315
I4
sS'GLEG'
p2316
I1
sS'WDQY'
p2317
I1
sS'NTPI'
p2318
I1
sS'TAVS'
p2319
I1
sS'NPVE'
p2320
I2
sS'NYIK'
p2321
I1
sS'GLER'
p2322
I1
sS'FKKF'
p2323
I19
sS'QRIV'
p2324
I8
sS'DGNE'
p2325
I1
sS'NNGT'
p2326
I2
sS'QIEQ'
p2327
I1
sS'KSHH'
p2328
I6
sS'FECN'
p2329
I1
sS'KSHG'
p2330
I1
sS'PEVE'
p2331
I1
sS'LRAK'
p2332
I1
sS'DDLP'
p2333
I2
sS'RRSR'
p2334
I2
sS'RRST'
p2335
I1
sS'DDLV'
p2336
I5
sS'DEDD'
p2337
I1
sS'DDLL'
p2338
I1
sS'RLRE'
p2339
I1
sS'STSV'
p2340
I12
sS'LYST'
p2341
I1
sS'GVYK'
p2342
I1
sS'LYEV'
p2343
I1
sS'AETQ'
p2344
I2
sS'PLGT'
p2345
I2
sS'ILRK'
p2346
I3
sS'HERE'
p2347
I1
sS'VVNK'
p2348
I1
sS'DQIF'
p2349
I3
sS'THDQ'
p2350
I1
sS'PTPP'
p2351
I1
sS'PTPS'
p2352
I3
sS'PTPT'
p2353
I1
sS'DANY'
p2354
I19
sS'ELDD'
p2355
I2
sS'EEPE'
p2356
I5
sS'PVDK'
p2357
I9
sS'QYIN'
p2358
I1
sS'ANES'
p2359
I2
sS'VIVS'
p2360
I1
sS'AATG'
p2361
I1
sS'RFCD'
p2362
I2
sS'DANE'
p2363
I2
sS'PTPK'
p2364
I1
sS'VPNQ'
p2365
I1
sS'KNMQ'
p2366
I3
sS'MHKV'
p2367
I3
sS'PATP'
p2368
I3
sS'YMAV'
p2369
I11
sS'CQLM'
p2370
I1
sS'PATV'
p2371
I1
sS'SSRP'
p2372
I1
sS'TNTP'
p2373
I1
sS'SKKP'
p2374
I1
sS'CQLV'
p2375
I1
sS'IGIL'
p2376
I3
sS'EDGF'
p2377
I1
sS'TPPS'
p2378
I1
sS'TPPV'
p2379
I1
sS'PTLT'
p2380
I1
sS'SANN'
p2381
I1
sS'RKLI'
p2382
I1
sS'FDSI'
p2383
I1
sS'EQYK'
p2384
I1
sS'NEGS'
p2385
I1
sS'NEGV'
p2386
I1
sS'VTTK'
p2387
I1
sS'MSGG'
p2388
I1
sS'DVLY'
p2389
I2
sS'TRVM'
p2390
I1
sS'NEGE'
p2391
I9
sS'REKS'
p2392
I1
sS'TAGA'
p2393
I7
sS'LSSS'
p2394
I2
sS'LEST'
p2395
I1
sS'FMDM'
p2396
I19
sS'FDAN'
p2397
I14
sS'DIEL'
p2398
I3
sS'FDAK'
p2399
I2
sS'KILY'
p2400
I3
sS'DNLS'
p2401
I9
sS'EVQA'
p2402
I2
sS'GSSK'
p2403
I1
sS'GNGD'
p2404
I6
sS'CNNE'
p2405
I1
sS'GSST'
p2406
I2
sS'GSSP'
p2407
I1
sS'MLER'
p2408
I1
sS'INNW'
p2409
I1
sS'DNLD'
p2410
I7
sS'DNLE'
p2411
I5
sS'GSAM'
p2412
I1
sS'PKSA'
p2413
I1
sS'MDML'
p2414
I19
sS'DKDR'
p2415
I1
sS'TFMA'
p2416
I2
sS'SPLL'
p2417
I1
sS'PKSL'
p2418
I1
sS'TDAN'
p2419
I2
sS'PKSV'
p2420
I1
sS'DQYY'
p2421
I2
sS'LLAW'
p2422
I1
sS'DLPM'
p2423
I1
sS'IPDE'
p2424
I9
sS'DLPI'
p2425
I2
sS'YEVN'
p2426
I1
sS'NGEE'
p2427
I1
sS'QWAK'
p2428
I1
sS'HDVI'
p2429
I1
sS'NGEN'
p2430
I7
sS'GAPP'
p2431
I2
sS'GAPQ'
p2432
I3
sS'NGEQ'
p2433
I1
sS'NGEV'
p2434
I1
sS'NAIE'
p2435
I1
sS'KKPA'
p2436
I1
sS'ISTD'
p2437
I1
sS'GSAA'
p2438
I2
sS'GEHG'
p2439
I1
sS'NSNG'
p2440
I2
sS'ITEL'
p2441
I1
sS'LCSG'
p2442
I18
sS'IAKP'
p2443
I1
sS'EDAQ'
p2444
I1
sS'TKIE'
p2445
I12
sS'VEEA'
p2446
I2
sS'DKVI'
p2447
I7
sS'VQWF'
p2448
I9
sS'LQSL'
p2449
I1
sS'QTHD'
p2450
I1
sS'EFQT'
p2451
I1
sS'VQWA'
p2452
I1
sS'FEFI'
p2453
I3
sS'DKVV'
p2454
I1
sS'YRPI'
p2455
I1
sS'FKVL'
p2456
I7
sS'EHER'
p2457
I1
sS'EHES'
p2458
I4
sS'AEGS'
p2459
I1
sS'EHEY'
p2460
I19
sS'KTQA'
p2461
I1
sS'EHEG'
p2462
I4
sS'AEGN'
p2463
I1
sS'KRMN'
p2464
I7
sS'LKIA'
p2465
I1
sS'TQLY'
p2466
I1
sS'AEGF'
p2467
I1
sS'QVKV'
p2468
I2
sS'KRMG'
p2469
I8
sS'PGDQ'
p2470
I3
sS'PGKI'
p2471
I1
sS'QSKP'
p2472
I1
sS'FVKK'
p2473
I1
sS'IQAI'
p2474
I1
sS'IDSL'
p2475
I1
sS'YYTG'
p2476
I1
sS'IFCQ'
p2477
I1
sS'ALTD'
p2478
I1
sS'SPRQ'
p2479
I1
sS'KGID'
p2480
I1
sS'IMQN'
p2481
I1
sS'LEIN'
p2482
I2
sS'IIQD'
p2483
I6
sS'EVGV'
p2484
I1
sS'QPQQ'
p2485
I3
sS'LEIE'
p2486
I1
sS'NDLV'
p2487
I1
sS'VDDD'
p2488
I1
sS'AKYD'
p2489
I1
sS'SGKS'
p2490
I1
sS'HEQP'
p2491
I1
sS'HEQQ'
p2492
I3
sS'GVVP'
p2493
I2
sS'GVVR'
p2494
I3
sS'CDSV'
p2495
I1
sS'CDSI'
p2496
I2
sS'MVNF'
p2497
I1
sS'PQSN'
p2498
I1
sS'TNIG'
p2499
I3
sS'AYDE'
p2500
I1
sS'EEQI'
p2501
I1
sS'EEQK'
p2502
I1
sS'FEFV'
p2503
I9
sS'NFHF'
p2504
I1
sS'PTQT'
p2505
I6
sS'NYTK'
p2506
I9
sS'LKIT'
p2507
I4
sS'PVEK'
p2508
I10
sS'EEQE'
p2509
I10
sS'TEKI'
p2510
I1
sS'EEQG'
p2511
I2
sS'NPGM'
p2512
I1
sS'PVER'
p2513
I2
sS'CSGA'
p2514
I18
sS'AGAT'
p2515
I1
sS'NPGD'
p2516
I3
sS'NLTK'
p2517
I6
sS'EEQV'
p2518
I2
sS'SVLE'
p2519
I1
sS'FKLL'
p2520
I7
sS'TEEG'
p2521
I3
sS'QMTD'
p2522
I1
sS'YLQE'
p2523
I1
sS'VHTT'
p2524
I1
sS'QDHS'
p2525
I1
sS'EECG'
p2526
I1
sS'SVLQ'
p2527
I1
sS'SMTK'
p2528
I1
sS'VGLS'
p2529
I1
sS'VCLN'
p2530
I1
sS'NNVA'
p2531
I1
sS'GRFQ'
p2532
I7
sS'FAPP'
p2533
I3
sS'NNVS'
p2534
I1
sS'PGCI'
p2535
I7
sS'RDVE'
p2536
I2
sS'ELIC'
p2537
I12
sS'GTTI'
p2538
I1
sS'GSLN'
p2539
I1
sS'ENEG'
p2540
I9
sS'ELIQ'
p2541
I1
sS'RFVK'
p2542
I1
sS'LSRC'
p2543
I1
sS'YANS'
p2544
I1
sS'FNQH'
p2545
I1
sS'KDES'
p2546
I1
sS'KFQD'
p2547
I13
sS'ASRS'
p2548
I4
sS'GLEK'
p2549
I3
sS'PKNM'
p2550
I3
sS'LSRV'
p2551
I1
sS'PMNR'
p2552
I1
sS'QEHE'
p2553
I3
sS'SKVE'
p2554
I1
sS'NETM'
p2555
I1
sS'GRPL'
p2556
I3
sS'KHWI'
p2557
I1
sS'RHKD'
p2558
I1
sS'INLK'
p2559
I1
sS'NRGP'
p2560
I1
sS'YTKI'
p2561
I3
sS'ESLQ'
p2562
I9
sS'RLSR'
p2563
I1
sS'RPIS'
p2564
I2
sS'SNGE'
p2565
I2
sS'LIID'
p2566
I1
sS'PQAN'
p2567
I1
sS'AEQQ'
p2568
I1
sS'SSEE'
p2569
I1
sS'MAPS'
p2570
I1
sS'WMKK'
p2571
I2
sS'RLSD'
p2572
I1
sS'PCIL'
p2573
I3
sS'RLSN'
p2574
I3
sS'LRFV'
p2575
I1
sS'NGDD'
p2576
I6
sS'EKIA'
p2577
I1
sS'DEAA'
p2578
I5
sS'DEAE'
p2579
I1
sS'QQRK'
p2580
I1
sS'GGEE'
p2581
I1
sS'VNKP'
p2582
I1
sS'CPSV'
p2583
I1
sS'ADLT'
p2584
I1
sS'EKIT'
p2585
I1
sS'EYLN'
p2586
I1
sS'NQQL'
p2587
I3
sS'QTNY'
p2588
I1
sS'DHDT'
p2589
I1
sS'AAKP'
p2590
I3
sS'ETDA'
p2591
I1
sS'QTNN'
p2592
I2
sS'KMQD'
p2593
I1
sS'SLEK'
p2594
I1
sS'SSSA'
p2595
I5
sS'SSSG'
p2596
I5
sS'CQML'
p2597
I2
sS'MVRK'
p2598
I2
sS'SSSN'
p2599
I1
sS'VTKP'
p2600
I1
sS'SSSS'
p2601
I4
sS'SSSV'
p2602
I1
sS'SSST'
p2603
I1
sS'KVVD'
p2604
I1
sS'SLEV'
p2605
I1
sS'EEDE'
p2606
I1
sS'MSRH'
p2607
I7
sS'LATR'
p2608
I1
sS'FYDA'
p2609
I5
sS'TAAA'
p2610
I2
sS'TTQD'
p2611
I1
sS'EGES'
p2612
I1
sS'QSLE'
p2613
I1
sS'QSLG'
p2614
I2
sS'ETVA'
p2615
I3
sS'QALS'
p2616
I3
sS'IPFR'
p2617
I7
sS'LQLT'
p2618
I3
sS'KINL'
p2619
I1
sS'GLIE'
p2620
I3
sS'LGLE'
p2621
I1
sS'LQLN'
p2622
I7
sS'FMQW'
p2623
I1
sS'LQLD'
p2624
I1
sS'QPPQ'
p2625
I2
sS'LGLT'
p2626
I1
sS'MLDM'
p2627
I2
sS'RVPS'
p2628
I1
sS'GQDV'
p2629
I3
sS'SVSP'
p2630
I1
sS'TRKH'
p2631
I1
sS'SVSK'
p2632
I1
sS'VYST'
p2633
I19
sS'PYNA'
p2634
I1
sS'RKYR'
p2635
I1
sS'GQDA'
p2636
I7
sS'IPTD'
p2637
I1
sS'GGSN'
p2638
I1
sS'GHET'
p2639
I1
sS'QLYE'
p2640
I1
sS'QWLK'
p2641
I3
sS'VNET'
p2642
I1
sS'SYSW'
p2643
I7
sS'GHEE'
p2644
I1
sS'DEQE'
p2645
I2
sS'AGPQ'
p2646
I1
sS'IMDS'
p2647
I1
sS'TKPR'
p2648
I1
sS'MQQV'
p2649
I5
sS'TEDG'
p2650
I1
sS'TKPT'
p2651
I1
sS'ALAR'
p2652
I1
sS'TKPL'
p2653
I2
sS'ELTK'
p2654
I1
sS'QLVD'
p2655
I2
sS'AGPK'
p2656
I1
sS'KPHH'
p2657
I1
sS'NLGE'
p2658
I1
sS'NPVL'
p2659
I1
sS'VSTP'
p2660
I1
sS'RAAA'
p2661
I1
sS'LVAP'
p2662
I8
sS'TSSS'
p2663
I1
sS'NRVK'
p2664
I1
sS'VSTL'
p2665
I1
sS'NNWK'
p2666
I1
sS'LEHE'
p2667
I19
sS'YPGG'
p2668
I1
sS'LLTC'
p2669
I1
sS'TSKP'
p2670
I1
sS'YEEE'
p2671
I1
sS'KGRF'
p2672
I7
sS'AITT'
p2673
I1
sS'DIEK'
p2674
I1
sS'DIEI'
p2675
I2
sS'STQR'
p2676
I2
sS'TMSR'
p2677
I7
sS'LLTW'
p2678
I1
sS'VAQR'
p2679
I3
sS'SKKL'
p2680
I3
sS'EQEH'
p2681
I1
sS'KIPT'
p2682
I1
sS'DVPL'
p2683
I1
sS'PNGE'
p2684
I7
sS'KIPK'
p2685
I1
sS'PSPS'
p2686
I1
sS'TATP'
p2687
I1
sS'EGNG'
p2688
I1
sS'EINR'
p2689
I1
sS'DALA'
p2690
I1
sS'TTTA'
p2691
I1
sS'LKDS'
p2692
I1
sS'FKIL'
p2693
I5
sS'TKVE'
p2694
I6
sS'FEMN'
p2695
I1
sS'GRSE'
p2696
I1
sS'EIND'
p2697
I1
sS'DALP'
p2698
I2
sS'KFFD'
p2699
I14
sS'YAAD'
p2700
I1
sS'NWIN'
p2701
I1
sS'PLSS'
p2702
I2
sS'RPIV'
p2703
I3
sS'FCQD'
p2704
I1
sS'LMEV'
p2705
I3
sS'SWGM'
p2706
I7
sS'ILNW'
p2707
I1
sS'RPIA'
p2708
I2
sS'CVHL'
p2709
I3
sS'KGRP'
p2710
I3
sS'MTDL'
p2711
I1
sS'RPII'
p2712
I1
sS'LVHT'
p2713
I1
sS'HEPQ'
p2714
I1
sS'PQRT'
p2715
I4
sS'PQRP'
p2716
I8
sS'PLAP'
p2717
I1
sS'YDYE'
p2718
I1
sS'LDVD'
p2719
I1
sS'ALNK'
p2720
I3
sS'VPLL'
p2721
I1
sS'AARQ'
p2722
I9
sS'AARS'
p2723
I1
sS'NPDT'
p2724
I1
sS'MNEN'
p2725
I2
sS'EQIN'
p2726
I3
sS'HHPP'
p2727
I1
sS'EQIE'
p2728
I1
sS'SELV'
p2729
I1
sS'EQIF'
p2730
I7
sS'QDEY'
p2731
I4
s.