(dp1
S'LPAQ'
p2
I1
sS'GVMM'
p3
I3
sS'MVQN'
p4
I1
sS'CSNK'
p5
I1
sS'VTHI'
p6
I12
sS'MVQV'
p7
I12
sS'SQLA'
p8
I7
sS'SSPT'
p9
I1
sS'GDRE'
p10
I1
sS'LASS'
p11
I1
sS'LAST'
p12
I2
sS'SFAI'
p13
I15
sS'LASV'
p14
I1
sS'DSGT'
p15
I1
sS'VRTQ'
p16
I3
sS'TRTR'
p17
I1
sS'TVLA'
p18
I1
sS'DDNR'
p19
I1
sS'AGLR'
p20
I3
sS'ALNT'
p21
I1
sS'TLHR'
p22
I2
sS'ASSL'
p23
I2
sS'ACLT'
p24
I1
sS'INYL'
p25
I12
sS'ASSV'
p26
I1
sS'WSLR'
p27
I3
sS'ASSP'
p28
I1
sS'ASSS'
p29
I2
sS'ASSR'
p30
I2
sS'TRHF'
p31
I12
sS'SKMT'
p32
I5
sS'HNTN'
p33
I1
sS'GITM'
p34
I12
sS'GQET'
p35
I1
sS'CIAS'
p36
I5
sS'LAAV'
p37
I2
sS'GSQR'
p38
I3
sS'AVVY'
p39
I3
sS'AVVT'
p40
I2
sS'AVVS'
p41
I2
sS'DLRA'
p42
I4
sS'GGPL'
p43
I15
sS'LTSG'
p44
I4
sS'SHRL'
p45
I5
sS'IQVT'
p46
I1
sS'LASR'
p47
I1
sS'IQVS'
p48
I2
sS'IQVN'
p49
I8
sS'SAKT'
p50
I1
sS'VNTM'
p51
I3
sS'KSRS'
p52
I9
sS'KSRT'
p53
I3
sS'PISN'
p54
I3
sS'ALSN'
p55
I12
sS'SLRG'
p56
I1
sS'RRIN'
p57
I1
sS'IGEQ'
p58
I2
sS'IEQN'
p59
I12
sS'LPSG'
p60
I2
sS'RLLS'
p61
I1
sS'QNNV'
p62
I1
sS'IGEK'
p63
I1
sS'HSHA'
p64
I3
sS'APDL'
p65
I1
sS'DLDM'
p66
I1
sS'VQIR'
p67
I1
sS'VNSM'
p68
I12
sS'GHRD'
p69
I1
sS'SPPT'
p70
I1
sS'SKHL'
p71
I1
sS'SPPP'
p72
I1
sS'PSSN'
p73
I1
sS'TASN'
p74
I12
sS'QVIL'
p75
I1
sS'TASS'
p76
I2
sS'ARTL'
p77
I1
sS'DIVI'
p78
I8
sS'AIGE'
p79
I3
sS'IAGT'
p80
I1
sS'KTAP'
p81
I3
sS'RYIG'
p82
I3
sS'AIGV'
p83
I12
sS'DIVT'
p84
I12
sS'LVQN'
p85
I1
sS'ALVS'
p86
I2
sS'HVSG'
p87
I1
sS'PDIL'
p88
I12
sS'IPID'
p89
I12
sS'NTAN'
p90
I1
sS'THGV'
p91
I6
sS'WRAL'
p92
I3
sS'SGIV'
p93
I3
sS'SGIS'
p94
I2
sS'LRVW'
p95
I1
sS'LFWG'
p96
I1
sS'VVIN'
p97
I12
sS'KGSG'
p98
I2
sS'KGSA'
p99
I11
sS'AGCA'
p100
I8
sS'PTSP'
p101
I2
sS'PTST'
p102
I1
sS'AGCG'
p103
I2
sS'AASK'
p104
I5
sS'KEKG'
p105
I3
sS'RSFG'
p106
I1
sS'RDFN'
p107
I7
sS'PVKR'
p108
I12
sS'EQNG'
p109
I12
sS'CLHR'
p110
I1
sS'NKLN'
p111
I1
sS'NVGT'
p112
I1
sS'STNT'
p113
I1
sS'STNS'
p114
I1
sS'YVTP'
p115
I3
sS'NLDG'
p116
I15
sS'QIRR'
p117
I1
sS'SRNN'
p118
I1
sS'NLDI'
p119
I2
sS'MRLG'
p120
I7
sS'HKEK'
p121
I2
sS'AQLT'
p122
I1
sS'AAAR'
p123
I3
sS'PAKD'
p124
I1
sS'ELKS'
p125
I12
sS'KNKN'
p126
I1
sS'NNLE'
p127
I3
sS'ASTM'
p128
I2
sS'GVDP'
p129
I2
sS'NNLM'
p130
I2
sS'GAAY'
p131
I1
sS'NNLT'
p132
I1
sS'NNLP'
p133
I1
sS'RELM'
p134
I1
sS'NNLS'
p135
I7
sS'DGEV'
p136
I3
sS'GRRP'
p137
I1
sS'GRRR'
p138
I9
sS'LKGR'
p139
I2
sS'SKTL'
p140
I3
sS'RFFV'
p141
I8
sS'FELK'
p142
I12
sS'GRRN'
p143
I2
sS'LFEL'
p144
I12
sS'CSAL'
p145
I1
sS'VMML'
p146
I3
sS'LDIV'
p147
I8
sS'GFSW'
p148
I1
sS'RLQV'
p149
I1
sS'CSAP'
p150
I1
sS'GFSG'
p151
I1
sS'VLAA'
p152
I2
sS'ADNS'
p153
I6
sS'TPSF'
p154
I1
sS'TPSI'
p155
I2
sS'TPSL'
p156
I2
sS'LSNT'
p157
I12
sS'YCRH'
p158
I1
sS'VLAS'
p159
I1
sS'HDQQ'
p160
I1
sS'WLAV'
p161
I3
sS'EKKN'
p162
I3
sS'RPRL'
p163
I1
sS'AVGA'
p164
I1
sS'LPLG'
p165
I3
sS'WKVI'
p166
I12
sS'QNMP'
p167
I12
sS'ARRS'
p168
I1
sS'GEKK'
p169
I3
sS'GVLI'
p170
I3
sS'SSQL'
p171
I4
sS'ATGN'
p172
I1
sS'TNSA'
p173
I1
sS'ERHR'
p174
I1
sS'GKSS'
p175
I12
sS'QENN'
p176
I1
sS'LIER'
p177
I1
sS'EDVY'
p178
I2
sS'VIEQ'
p179
I6
sS'TNSS'
p180
I1
sS'SSQP'
p181
I1
sS'EDPM'
p182
I12
sS'GVLV'
p183
I12
sS'VPSP'
p184
I1
sS'SAAV'
p185
I2
sS'AWRA'
p186
I2
sS'ITTD'
p187
I1
sS'SAAR'
p188
I1
sS'VTIT'
p189
I10
sS'SAAI'
p190
I3
sS'MLTL'
p191
I15
sS'LRAG'
p192
I1
sS'PGTR'
p193
I1
sS'AIDF'
p194
I3
sS'TDDS'
p195
I1
sS'TPGP'
p196
I1
sS'YYSS'
p197
I1
sS'LNVF'
p198
I1
sS'LNVG'
p199
I1
sS'ALQN'
p200
I3
sS'YKTG'
p201
I10
sS'ITFG'
p202
I12
sS'LTLS'
p203
I1
sS'RVRV'
p204
I3
sS'RKGS'
p205
I1
sS'LTLY'
p206
I3
sS'YTGF'
p207
I1
sS'ETFL'
p208
I1
sS'LTLF'
p209
I1
sS'RVRL'
p210
I3
sS'RKGK'
p211
I1
sS'SPAH'
p212
I15
sS'IKNS'
p213
I12
sS'PPAV'
p214
I2
sS'DSVV'
p215
I12
sS'PPAS'
p216
I1
sS'QQNG'
p217
I5
sS'LGAV'
p218
I4
sS'LTPD'
p219
I14
sS'KPNT'
p220
I3
sS'SLRA'
p221
I2
sS'STMV'
p222
I2
sS'PDTR'
p223
I1
sS'LTPT'
p224
I8
sS'NKSG'
p225
I2
sS'DRLR'
p226
I3
sS'NKSA'
p227
I1
sS'RQGE'
p228
I3
sS'AGRG'
p229
I3
sS'SVIR'
p230
I1
sS'QRPA'
p231
I3
sS'IKRC'
p232
I1
sS'SKGS'
p233
I2
sS'IKRE'
p234
I3
sS'NLEI'
p235
I2
sS'NLEL'
p236
I1
sS'RACL'
p237
I1
sS'SDVY'
p238
I12
sS'DLEI'
p239
I2
sS'DLEL'
p240
I1
sS'VASC'
p241
I1
sS'VASD'
p242
I1
sS'GCGD'
p243
I3
sS'VQHG'
p244
I3
sS'RAQL'
p245
I1
sS'FIKR'
p246
I1
sS'VASS'
p247
I4
sS'DQTS'
p248
I12
sS'AIRF'
p249
I2
sS'PSRR'
p250
I1
sS'EFVV'
p251
I3
sS'HKVI'
p252
I3
sS'DTRH'
p253
I12
sS'DGRT'
p254
I12
sS'RCAT'
p255
I1
sS'AAPR'
p256
I1
sS'RFGW'
p257
I2
sS'EILG'
p258
I1
sS'EILD'
p259
I2
sS'ASCA'
p260
I1
sS'DTRT'
p261
I1
sS'LREP'
p262
I3
sS'LIVT'
p263
I3
sS'KDTR'
p264
I12
sS'AMSG'
p265
I1
sS'AVVL'
p266
I1
sS'LREF'
p267
I3
sS'VVTA'
p268
I2
sS'PEDP'
p269
I12
sS'PEDS'
p270
I1
sS'DRRQ'
p271
I1
sS'DRRR'
p272
I3
sS'PSDR'
p273
I3
sS'EELT'
p274
I3
sS'KGPL'
p275
I1
sS'RQQQ'
p276
I1
sS'TKLE'
p277
I1
sS'SGSS'
p278
I1
sS'MHGV'
p279
I3
sS'RRYI'
p280
I3
sS'SSNG'
p281
I1
sS'EDSG'
p282
I1
sS'SSNN'
p283
I2
sS'ISFA'
p284
I15
sS'VTNA'
p285
I3
sS'GDPN'
p286
I1
sS'GSAY'
p287
I9
sS'MGIT'
p288
I12
sS'VTNL'
p289
I1
sS'PRLT'
p290
I1
sS'LAQN'
p291
I1
sS'GSAH'
p292
I2
sS'VILA'
p293
I3
sS'VILG'
p294
I2
sS'VILD'
p295
I1
sS'VILK'
p296
I1
sS'AANR'
p297
I2
sS'AGNR'
p298
I2
sS'VILR'
p299
I11
sS'YSSI'
p300
I1
sS'NGSH'
p301
I1
sS'WSRF'
p302
I1
sS'SAPT'
p303
I3
sS'SAPS'
p304
I1
sS'VKLF'
p305
I1
sS'ITAK'
p306
I1
sS'GIVS'
p307
I3
sS'ITAS'
p308
I12
sS'RVSH'
p309
I1
sS'DLTP'
p310
I2
sS'DSQI'
p311
I1
sS'DLTS'
p312
I1
sS'ALLT'
p313
I3
sS'GQGR'
p314
I1
sS'DQEN'
p315
I1
sS'PPPT'
p316
I1
sS'GALV'
p317
I2
sS'CGDK'
p318
I1
sS'HPFS'
p319
I2
sS'HINK'
p320
I12
sS'HPFL'
p321
I1
sS'GALA'
p322
I3
sS'CGDS'
p323
I2
sS'IQTD'
p324
I3
sS'RPSG'
p325
I1
sS'QQQD'
p326
I1
sS'TDSS'
p327
I1
sS'SLPA'
p328
I1
sS'YCSN'
p329
I1
sS'RRKG'
p330
I1
sS'RRKK'
p331
I6
sS'QTKE'
p332
I3
sS'SQPA'
p333
I1
sS'LMHG'
p334
I3
sS'YNSS'
p335
I1
sS'SPVF'
p336
I1
sS'SDGR'
p337
I12
sS'LLWG'
p338
I2
sS'SPVL'
p339
I3
sS'TSDL'
p340
I13
sS'SDGL'
p341
I1
sS'QMHV'
p342
I9
sS'WGWG'
p343
I1
sS'GEPN'
p344
I1
sS'RGSE'
p345
I1
sS'VKRY'
p346
I12
sS'MPNN'
p347
I3
sS'RGSH'
p348
I5
sS'MPNT'
p349
I2
sS'AVTP'
p350
I1
sS'VKRC'
p351
I1
sS'YIGV'
p352
I3
sS'EAIG'
p353
I12
sS'ARDL'
p354
I2
sS'LGAL'
p355
I5
sS'LGAG'
p356
I2
sS'LGAA'
p357
I3
sS'PSGD'
p358
I2
sS'GPRA'
p359
I1
sS'PSGR'
p360
I1
sS'SSIR'
p361
I1
sS'PLLA'
p362
I1
sS'QPIT'
p363
I12
sS'QRED'
p364
I3
sS'QREE'
p365
I2
sS'PLLT'
p366
I1
sS'SRAW'
p367
I1
sS'RDDL'
p368
I1
sS'EVIF'
p369
I4
sS'EVIG'
p370
I3
sS'ANRR'
p371
I2
sS'QPGD'
p372
I12
sS'NKRF'
p373
I1
sS'AEKR'
p374
I5
sS'IDYV'
p375
I12
sS'SKDQ'
p376
I1
sS'LLYC'
p377
I1
sS'RSVI'
p378
I1
sS'RSVF'
p379
I1
sS'VADI'
p380
I3
sS'NNRR'
p381
I1
sS'EPRT'
p382
I1
sS'VADR'
p383
I3
sS'HGVL'
p384
I15
sS'SKDK'
p385
I1
sS'GWGR'
p386
I1
sS'PAIK'
p387
I1
sS'GPLL'
p388
I1
sS'VTYG'
p389
I2
sS'KNED'
p390
I1
sS'RDRR'
p391
I1
sS'DVIL'
p392
I3
sS'KAGR'
p393
I1
sS'NNND'
p394
I1
sS'NNNE'
p395
I1
sS'NGRR'
p396
I1
sS'NNNN'
p397
I6
sS'NNNS'
p398
I1
sS'AQVP'
p399
I1
sS'ASVL'
p400
I1
sS'NNNY'
p401
I1
sS'SAQR'
p402
I3
sS'STLR'
p403
I12
sS'EQLV'
p404
I1
sS'ASDG'
p405
I1
sS'MVTA'
p406
I1
sS'LIAG'
p407
I1
sS'PSIL'
p408
I3
sS'FLVP'
p409
I1
sS'FCVP'
p410
I2
sS'ILKR'
p411
I1
sS'LSHG'
p412
I3
sS'PFLG'
p413
I1
sS'HRGE'
p414
I3
sS'REPS'
p415
I3
sS'KLGK'
p416
I5
sS'VLGS'
p417
I1
sS'QNKS'
p418
I2
sS'EDDN'
p419
I1
sS'NSAS'
p420
I1
sS'GGAV'
p421
I3
sS'NMII'
p422
I1
sS'RRDF'
p423
I7
sS'ATTL'
p424
I1
sS'GVNS'
p425
I12
sS'GVNT'
p426
I3
sS'QELG'
p427
I12
sS'ISGS'
p428
I2
sS'IHVS'
p429
I1
sS'VFHS'
p430
I1
sS'NSSN'
p431
I1
sS'NSSD'
p432
I12
sS'PTIA'
p433
I5
sS'DDSN'
p434
I1
sS'PTIS'
p435
I6
sS'VYEA'
p436
I2
sS'LAPD'
p437
I1
sS'NSSR'
p438
I1
sS'PTIT'
p439
I1
sS'ERRK'
p440
I4
sS'AVSA'
p441
I3
sS'RGRE'
p442
I1
sS'ELMP'
p443
I1
sS'QTDA'
p444
I15
sS'VKQM'
p445
I12
sS'NTDN'
p446
I1
sS'RTFP'
p447
I12
sS'ALSG'
p448
I1
sS'LALS'
p449
I12
sS'LVNL'
p450
I15
sS'RVTY'
p451
I2
sS'IATL'
p452
I3
sS'YYCS'
p453
I1
sS'VEKT'
p454
I3
sS'FVVA'
p455
I6
sS'LTNN'
p456
I1
sS'RVTI'
p457
I3
sS'IVTN'
p458
I3
sS'RIQT'
p459
I3
sS'IVTH'
p460
I12
sS'RIQV'
p461
I11
sS'YYCL'
p462
I1
sS'EVTE'
p463
I3
sS'LTNA'
p464
I12
sS'DSPA'
p465
I1
sS'SPGS'
p466
I1
sS'WGKG'
p467
I1
sS'LLFW'
p468
I1
sS'DNRN'
p469
I1
sS'NNNK'
p470
I2
sS'PDVQ'
p471
I3
sS'KITP'
p472
I2
sS'GSSD'
p473
I1
sS'LDDF'
p474
I1
sS'LQVI'
p475
I1
sS'VGGC'
p476
I1
sS'SRSQ'
p477
I9
sS'LILT'
p478
I12
sS'VAGD'
p479
I1
sS'VAGC'
p480
I10
sS'FGWR'
p481
I3
sS'GHDQ'
p482
I1
sS'NNSN'
p483
I1
sS'TSGS'
p484
I2
sS'TSGT'
p485
I4
sS'LELF'
p486
I1
sS'TSGI'
p487
I4
sS'DNGS'
p488
I1
sS'DLGL'
p489
I3
sS'TAPT'
p490
I2
sS'AIPI'
p491
I12
sS'KTLT'
p492
I1
sS'GEQM'
p493
I1
sS'GEQL'
p494
I1
sS'GEQK'
p495
I2
sS'TAPA'
p496
I3
sS'FGIS'
p497
I1
sS'RASQ'
p498
I12
sS'KTLD'
p499
I3
sS'DIAT'
p500
I3
sS'AIPS'
p501
I3
sS'HFDY'
p502
I12
sS'YNNN'
p503
I1
sS'ASEN'
p504
I1
sS'EQMV'
p505
I1
sS'PSHL'
p506
I1
sS'FSLG'
p507
I12
sS'SGRE'
p508
I2
sS'PEPR'
p509
I1
sS'FLAS'
p510
I1
sS'PSFP'
p511
I3
sS'PSFR'
p512
I1
sS'ILGS'
p513
I2
sS'KGVD'
p514
I2
sS'RDEL'
p515
I2
sS'SGLP'
p516
I2
sS'QGRQ'
p517
I1
sS'SHLT'
p518
I1
sS'MTYG'
p519
I1
sS'SSLV'
p520
I2
sS'NGQN'
p521
I2
sS'EKTA'
p522
I3
sS'AMGS'
p523
I3
sS'ILDS'
p524
I1
sS'ILDR'
p525
I2
sS'IEGH'
p526
I1
sS'REAS'
p527
I1
sS'GDVI'
p528
I3
sS'GIFW'
p529
I1
sS'SETL'
p530
I1
sS'RNRD'
p531
I12
sS'VYDA'
p532
I12
sS'GSGG'
p533
I2
sS'GSGF'
p534
I15
sS'KPPL'
p535
I1
sS'VINK'
p536
I12
sS'DPVA'
p537
I3
sS'QFCV'
p538
I2
sS'PAHR'
p539
I3
sS'AALR'
p540
I1
sS'TLLY'
p541
I1
sS'KNDN'
p542
I1
sS'QYQQ'
p543
I3
sS'VRFF'
p544
I5
sS'TTDS'
p545
I1
sS'VLVW'
p546
I12
sS'SARA'
p547
I1
sS'SSAQ'
p548
I3
sS'QKAK'
p549
I1
sS'NRNN'
p550
I2
sS'SARS'
p551
I2
sS'LLAP'
p552
I1
sS'SART'
p553
I1
sS'NNYN'
p554
I1
sS'TRLR'
p555
I1
sS'SHNT'
p556
I1
sS'TLPL'
p557
I3
sS'IVSS'
p558
I3
sS'RKDL'
p559
I2
sS'IIMR'
p560
I1
sS'TFGN'
p561
I12
sS'SPFA'
p562
I3
sS'LNGR'
p563
I1
sS'QLTA'
p564
I1
sS'EIVI'
p565
I2
sS'GANW'
p566
I1
sS'KLFL'
p567
I1
sS'HRDE'
p568
I2
sS'SADV'
p569
I3
sS'FNFI'
p570
I12
sS'IQRE'
p571
I3
sS'SQRR'
p572
I3
sS'RREF'
p573
I3
sS'RGCH'
p574
I1
sS'LWGW'
p575
I1
sS'TMVA'
p576
I2
sS'ALGG'
p577
I2
sS'DQQN'
p578
I2
sS'LWGG'
p579
I2
sS'TMVQ'
p580
I12
sS'GERK'
p581
I1
sS'RARL'
p582
I2
sS'RARV'
p583
I1
sS'QAGN'
p584
I2
sS'TSTN'
p585
I1
sS'RGQE'
p586
I1
sS'QGEF'
p587
I3
sS'AVRI'
p588
I2
sS'LKAG'
p589
I1
sS'AVRT'
p590
I3
sS'QSQL'
p591
I3
sS'PGQG'
p592
I1
sS'LTAV'
p593
I1
sS'ITML'
p594
I12
sS'ALRS'
p595
I3
sS'GAAV'
p596
I3
sS'ALRA'
p597
I1
sS'ALRC'
p598
I2
sS'LGCG'
p599
I1
sS'ALRG'
p600
I6
sS'PNNL'
p601
I3
sS'GPPA'
p602
I2
sS'DINY'
p603
I12
sS'VVEK'
p604
I3
sS'NKFN'
p605
I1
sS'VPIS'
p606
I3
sS'PAVV'
p607
I3
sS'TEMA'
p608
I2
sS'KGWR'
p609
I5
sS'KRCI'
p610
I5
sS'YIEI'
p611
I15
sS'WRSA'
p612
I3
sS'NKLE'
p613
I1
sS'WRSL'
p614
I2
sS'KRCA'
p615
I1
sS'WRSV'
p616
I2
sS'NKPN'
p617
I3
sS'NKPH'
p618
I9
sS'KRCS'
p619
I1
sS'KGAA'
p620
I1
sS'LTSR'
p621
I1
sS'RSTQ'
p622
I1
sS'RALW'
p623
I1
sS'SRRV'
p624
I1
sS'RALS'
p625
I1
sS'SRRR'
p626
I1
sS'RALL'
p627
I3
sS'TSDP'
p628
I1
sS'RALG'
p629
I2
sS'EASE'
p630
I1
sS'MHVT'
p631
I7
sS'KNGY'
p632
I1
sS'TNAH'
p633
I15
sS'QYNF'
p634
I3
sS'HAAN'
p635
I2
sS'LDMV'
p636
I1
sS'AGIS'
p637
I14
sS'KNGF'
p638
I1
sS'MHVK'
p639
I2
sS'SASS'
p640
I1
sS'KEGD'
p641
I1
sS'DVYE'
p642
I2
sS'DVYD'
p643
I12
sS'MRVT'
p644
I3
sS'VIRF'
p645
I1
sS'AMVT'
p646
I1
sS'HWSR'
p647
I1
sS'SGSQ'
p648
I3
sS'KDQE'
p649
I1
sS'NGNS'
p650
I5
sS'KLEV'
p651
I1
sS'KLET'
p652
I1
sS'GQPI'
p653
I12
sS'EDFT'
p654
I3
sS'EPRA'
p655
I1
sS'RLIA'
p656
I1
sS'EKGW'
p657
I3
sS'RRFG'
p658
I1
sS'KQMR'
p659
I3
sS'LQTD'
p660
I12
sS'IEDV'
p661
I12
sS'KSAH'
p662
I1
sS'RGLS'
p663
I1
sS'ILGR'
p664
I1
sS'KSAP'
p665
I1
sS'GPLV'
p666
I15
sS'SQAG'
p667
I2
sS'GIGT'
p668
I1
sS'ITPE'
p669
I12
sS'SQAP'
p670
I1
sS'DLWA'
p671
I1
sS'TCLR'
p672
I1
sS'AVQI'
p673
I1
sS'MALR'
p674
I11
sS'PIDY'
p675
I12
sS'QNGE'
p676
I5
sS'QNGL'
p677
I12
sS'RGPP'
p678
I2
sS'GEAI'
p679
I12
sS'QHGV'
p680
I3
sS'RCIN'
p681
I2
sS'SHCG'
p682
I1
sS'RNEF'
p683
I2
sS'NSGG'
p684
I15
sS'NSGH'
p685
I1
sS'NSGQ'
p686
I4
sS'NSGT'
p687
I1
sS'FVPF'
p688
I9
sS'LSDG'
p689
I12
sS'SFFV'
p690
I1
sS'GWRR'
p691
I5
sS'GWRS'
p692
I3
sS'HRST'
p693
I1
sS'GWRA'
p694
I1
sS'DSSS'
p695
I1
sS'CNST'
p696
I1
sS'QDQQ'
p697
I1
sS'WRRL'
p698
I5
sS'RSSQ'
p699
I5
sS'SDRL'
p700
I3
sS'SFPD'
p701
I3
sS'FIAD'
p702
I15
sS'PDPR'
p703
I2
sS'WGGG'
p704
I2
sS'IFLR'
p705
I2
sS'IKDT'
p706
I12
sS'WGGR'
p707
I1
sS'LERA'
p708
I12
sS'ADVV'
p709
I15
sS'ADVR'
p710
I3
sS'MPET'
p711
I1
sS'HLTH'
p712
I1
sS'VSHC'
p713
I1
sS'DGEA'
p714
I12
sS'NSSS'
p715
I1
sS'EGDP'
p716
I1
sS'RSAI'
p717
I2
sS'RSAF'
p718
I1
sS'DVVE'
p719
I3
sS'RSAD'
p720
I3
sS'DVVG'
p721
I1
sS'DVVA'
p722
I11
sS'SNLT'
p723
I4
sS'SNLS'
p724
I1
sS'SNLM'
p725
I1
sS'ILTN'
p726
I12
sS'LIRF'
p727
I1
sS'PASP'
p728
I1
sS'FLGR'
p729
I1
sS'FAIP'
p730
I15
sS'GNSG'
p731
I20
sS'SVVY'
p732
I12
sS'MTGR'
p733
I5
sS'IIQR'
p734
I3
sS'MRGV'
p735
I1
sS'PQTN'
p736
I2
sS'KGTD'
p737
I1
sS'PVLH'
p738
I3
sS'IHKV'
p739
I3
sS'ILFE'
p740
I12
sS'LEIV'
p741
I2
sS'FHSQ'
p742
I1
sS'RPAR'
p743
I2
sS'QESG'
p744
I1
sS'RPAK'
p745
I1
sS'CVPF'
p746
I2
sS'GDTY'
p747
I3
sS'ADIA'
p748
I3
sS'GTSD'
p749
I1
sS'GTSG'
p750
I2
sS'ITSG'
p751
I3
sS'TVTA'
p752
I12
sS'GFVI'
p753
I6
sS'YSWR'
p754
I1
sS'YDAL'
p755
I12
sS'LRIH'
p756
I1
sS'DPPG'
p757
I1
sS'LTPS'
p758
I2
sS'AERR'
p759
I4
sS'IRRG'
p760
I3
sS'TLNG'
p761
I1
sS'IRRC'
p762
I1
sS'TNNR'
p763
I1
sS'GFVV'
p764
I3
sS'EQQE'
p765
I1
sS'SATQ'
p766
I2
sS'ENNG'
p767
I2
sS'EIFL'
p768
I2
sS'RHPF'
p769
I3
sS'GIRW'
p770
I1
sS'IASP'
p771
I5
sS'ERAA'
p772
I12
sS'TLRI'
p773
I15
sS'KVIL'
p774
I3
sS'LFIK'
p775
I1
sS'TLRS'
p776
I12
sS'RRGQ'
p777
I1
sS'KVIV'
p778
I12
sS'RRGR'
p779
I1
sS'RIRR'
p780
I2
sS'LVMK'
p781
I1
sS'PFAL'
p782
I3
sS'SAHG'
p783
I1
sS'LSGD'
p784
I1
sS'RVWL'
p785
I1
sS'SAHK'
p786
I2
sS'LSGR'
p787
I1
sS'VLHS'
p788
I3
sS'GWSL'
p789
I2
sS'VNLD'
p790
I15
sS'LNTN'
p791
I1
sS'LGSP'
p792
I15
sS'YFSG'
p793
I12
sS'ADGL'
p794
I2
sS'CRHK'
p795
I1
sS'PPTS'
p796
I2
sS'PFSG'
p797
I2
sS'GSET'
p798
I1
sS'PFSL'
p799
I12
sS'SAFQ'
p800
I1
sS'EDIY'
p801
I1
sS'KDLE'
p802
I2
sS'KDLD'
p803
I1
sS'ATQR'
p804
I2
sS'YMGI'
p805
I12
sS'RGAG'
p806
I2
sS'GGLQ'
p807
I12
sS'RGAN'
p808
I1
sS'QEAR'
p809
I1
sS'IFKR'
p810
I4
sS'CLTS'
p811
I1
sS'TPDL'
p812
I3
sS'TPDI'
p813
I12
sS'TPDT'
p814
I1
sS'TPDP'
p815
I2
sS'TPDS'
p816
I1
sS'VGVT'
p817
I1
sS'IKEG'
p818
I1
sS'VAVG'
p819
I1
sS'VGVP'
p820
I1
sS'QNTI'
p821
I3
sS'QTSD'
p822
I12
sS'GNNY'
p823
I1
sS'AVPA'
p824
I1
sS'QSST'
p825
I1
sS'TSRT'
p826
I1
sS'QLVQ'
p827
I1
sS'RGWR'
p828
I1
sS'RKPP'
p829
I1
sS'VKVF'
p830
I11
sS'NITT'
p831
I1
sS'LAIG'
p832
I3
sS'PGSR'
p833
I1
sS'IAAS'
p834
I5
sS'LAIK'
p835
I4
sS'DILF'
p836
I12
sS'LKSR'
p837
I12
sS'SILA'
p838
I2
sS'FGTS'
p839
I1
sS'SILI'
p840
I1
sS'GNRR'
p841
I2
sS'QMRV'
p842
I3
sS'PVMR'
p843
I1
sS'PVMK'
p844
I2
sS'FPAT'
p845
I12
sS'NTIT'
p846
I3
sS'QDPP'
p847
I1
sS'GYTG'
p848
I1
sS'KRED'
p849
I2
sS'KREE'
p850
I1
sS'KGGE'
p851
I1
sS'RSRT'
p852
I1
sS'SRTS'
p853
I1
sS'SRTQ'
p854
I3
sS'SRTP'
p855
I1
sS'RSRA'
p856
I1
sS'SDQE'
p857
I1
sS'SRTA'
p858
I2
sS'ARLS'
p859
I2
sS'VISS'
p860
I10
sS'CVAS'
p861
I2
sS'GKGW'
p862
I1
sS'KRYM'
p863
I12
sS'GVPE'
p864
I1
sS'VPEP'
p865
I1
sS'LRNR'
p866
I12
sS'VISA'
p867
I2
sS'SGQP'
p868
I12
sS'KRYS'
p869
I2
sS'SLWA'
p870
I1
sS'SGQY'
p871
I3
sS'GFII'
p872
I6
sS'GEFV'
p873
I3
sS'AGWS'
p874
I2
sS'AQRE'
p875
I2
sS'DGKK'
p876
I3
sS'DTYE'
p877
I3
sS'TKEP'
p878
I3
sS'HTAS'
p879
I2
sS'KSST'
p880
I12
sS'VRIR'
p881
I2
sS'RFLV'
p882
I1
sS'NVEY'
p883
I3
sS'SRFG'
p884
I1
sS'RTAH'
p885
I2
sS'FIRR'
p886
I1
sS'VMKR'
p887
I1
sS'VSSA'
p888
I3
sS'PNRR'
p889
I1
sS'CATT'
p890
I1
sS'VMKL'
p891
I5
sS'LSTV'
p892
I1
sS'VYIE'
p893
I15
sS'HRCC'
p894
I2
sS'EPLP'
p895
I3
sS'AVAV'
p896
I1
sS'NGLI'
p897
I12
sS'AVAS'
p898
I2
sS'RETL'
p899
I1
sS'AVAL'
p900
I2
sS'RLGK'
p901
I7
sS'PITA'
p902
I12
sS'SLKG'
p903
I2
sS'ILAI'
p904
I3
sS'KAKG'
p905
I1
sS'TITS'
p906
I3
sS'EWVV'
p907
I12
sS'VDPN'
p908
I2
sS'ILAE'
p909
I2
sS'FSGY'
p910
I1
sS'VDPV'
p911
I3
sS'GEKL'
p912
I1
sS'FSGQ'
p913
I12
sS'FSGR'
p914
I2
sS'SSKG'
p915
I2
sS'GTRS'
p916
I1
sS'EDVD'
p917
I12
sS'VTSG'
p918
I1
sS'NSWF'
p919
I2
sS'RRVR'
p920
I3
sS'RRVS'
p921
I1
sS'GTRL'
p922
I1
sS'RGVK'
p923
I12
sS'TCNS'
p924
I1
sS'LPTL'
p925
I3
sS'SNRN'
p926
I1
sS'LIEG'
p927
I1
sS'NSKD'
p928
I2
sS'SHAP'
p929
I1
sS'HLDI'
p930
I1
sS'TANI'
p931
I1
sS'NSKN'
p932
I2
sS'NSKH'
p933
I1
sS'NSKT'
p934
I3
sS'SHAA'
p935
I2
sS'TGNN'
p936
I1
sS'QVTN'
p937
I1
sS'ETLS'
p938
I1
sS'TLSH'
p939
I3
sS'ETLT'
p940
I3
sS'VTAG'
p941
I26
sS'PAQV'
p942
I1
sS'HSQA'
p943
I3
sS'GISG'
p944
I2
sS'GISF'
p945
I15
sS'VTAV'
p946
I3
sS'TLSP'
p947
I1
sS'PPGQ'
p948
I1
sS'VLIH'
p949
I3
sS'LGRS'
p950
I3
sS'VLIE'
p951
I2
sS'LGRE'
p952
I1
sS'SAIR'
p953
I2
sS'LGRH'
p954
I1
sS'NTNY'
p955
I1
sS'NTNS'
p956
I1
sS'SVGV'
p957
I2
sS'AELQ'
p958
I2
sS'KRDD'
p959
I1
sS'GLST'
p960
I1
sS'SDPR'
p961
I1
sS'RSQY'
p962
I3
sS'RSQN'
p963
I9
sS'HVVA'
p964
I3
sS'AKGW'
p965
I1
sS'HVVI'
p966
I12
sS'KEPL'
p967
I3
sS'TPED'
p968
I13
sS'SFRA'
p969
I1
sS'GQNK'
p970
I2
sS'LLLW'
p971
I2
sS'TPEV'
p972
I3
sS'LLLL'
p973
I1
sS'LLLF'
p974
I1
sS'VQNA'
p975
I2
sS'MKVT'
p976
I15
sS'TQSQ'
p977
I3
sS'TQSS'
p978
I1
sS'DYVK'
p979
I12
sS'WRKP'
p980
I1
sS'VSNL'
p981
I1
sS'NNYS'
p982
I1
sS'VAMG'
p983
I3
sS'EGFL'
p984
I1
sS'GLPV'
p985
I2
sS'AHSG'
p986
I12
sS'APRA'
p987
I1
sS'HAPN'
p988
I1
sS'KFNW'
p989
I1
sS'FLKR'
p990
I2
sS'PNSN'
p991
I4
sS'PSLP'
p992
I1
sS'PSLW'
p993
I1
sS'LFLE'
p994
I1
sS'LKRY'
p995
I2
sS'QAPS'
p996
I1
sS'FLER'
p997
I12
sS'FVIE'
p998
I6
sS'LKRC'
p999
I1
sS'ARSL'
p1000
I2
sS'ALKA'
p1001
I1
sS'NKKE'
p1002
I12
sS'TGRR'
p1003
I5
sS'CLRS'
p1004
I1
sS'RCIA'
p1005
I5
sS'QKEK'
p1006
I1
sS'DFTP'
p1007
I3
sS'QEQQ'
p1008
I1
sS'VDQT'
p1009
I12
sS'REEL'
p1010
I3
sS'RPGD'
p1011
I3
sS'LELT'
p1012
I1
sS'VTPD'
p1013
I1
sS'VTPE'
p1014
I3
sS'RLVR'
p1015
I4
sS'RLVS'
p1016
I1
sS'DPRT'
p1017
I2
sS'IADV'
p1018
I15
sS'SNNN'
p1019
I3
sS'LYYC'
p1020
I2
sS'AGDR'
p1021
I1
sS'SNNT'
p1022
I1
sS'DDFI'
p1023
I1
sS'TNLS'
p1024
I1
sS'FHSH'
p1025
I2
sS'LYYS'
p1026
I1
sS'AYKT'
p1027
I10
sS'KELD'
p1028
I2
sS'EGHR'
p1029
I1
sS'KELN'
p1030
I1
sS'NLSV'
p1031
I9
sS'SAVL'
p1032
I2
sS'PGPR'
p1033
I1
sS'NNKF'
p1034
I1
sS'ESGG'
p1035
I1
sS'NNKN'
p1036
I4
sS'ISNG'
p1037
I3
sS'TLTL'
p1038
I3
sS'TLTN'
p1039
I1
sS'TLTP'
p1040
I14
sS'PAPP'
p1041
I1
sS'TITA'
p1042
I1
sS'LGKS'
p1043
I12
sS'GATN'
p1044
I1
sS'TITP'
p1045
I10
sS'VNNL'
p1046
I8
sS'TPTI'
p1047
I11
sS'VMRL'
p1048
I7
sS'DVDQ'
p1049
I12
sS'FDYF'
p1050
I12
sS'REWL'
p1051
I1
sS'SSVV'
p1052
I1
sS'ILIE'
p1053
I1
sS'IEIL'
p1054
I3
sS'IEIK'
p1055
I12
sS'LRIQ'
p1056
I14
sS'RLDD'
p1057
I1
sS'ADSV'
p1058
I10
sS'VGTS'
p1059
I1
sS'LGGI'
p1060
I2
sS'GAVL'
p1061
I2
sS'NMPN'
p1062
I5
sS'IKGG'
p1063
I1
sS'ELNM'
p1064
I1
sS'NMPE'
p1065
I1
sS'APPP'
p1066
I1
sS'IKGT'
p1067
I1
sS'IKGV'
p1068
I2
sS'NMPS'
p1069
I6
sS'TQRA'
p1070
I12
sS'GEVI'
p1071
I3
sS'TSPR'
p1072
I2
sS'EKLA'
p1073
I1
sS'NAED'
p1074
I3
sS'MPTI'
p1075
I1
sS'RTCL'
p1076
I1
sS'KKGA'
p1077
I1
sS'KMTG'
p1078
I5
sS'QVSG'
p1079
I1
sS'KKGS'
p1080
I10
sS'QVSN'
p1081
I1
sS'SKNL'
p1082
I2
sS'GRHP'
p1083
I1
sS'YGTP'
p1084
I3
sS'FKRC'
p1085
I4
sS'SINK'
p1086
I2
sS'LTLT'
p1087
I14
sS'VVAS'
p1088
I2
sS'ARRK'
p1089
I2
sS'VVAA'
p1090
I2
sS'VVAG'
p1091
I11
sS'ARRR'
p1092
I1
sS'VVAD'
p1093
I3
sS'VVAM'
p1094
I3
sS'VVAL'
p1095
I12
sS'GLRN'
p1096
I12
sS'AKAM'
p1097
I1
sS'LVWK'
p1098
I12
sS'KTGY'
p1099
I12
sS'GLRP'
p1100
I3
sS'TYEA'
p1101
I3
sS'SVFQ'
p1102
I1
sS'TNGI'
p1103
I1
sS'PDSQ'
p1104
I1
sS'STVL'
p1105
I1
sS'RSPG'
p1106
I1
sS'DFGN'
p1107
I3
sS'DPSS'
p1108
I1
sS'VVSA'
p1109
I2
sS'PARD'
p1110
I2
sS'SGRR'
p1111
I3
sS'PVAD'
p1112
I3
sS'AAII'
p1113
I3
sS'WMTY'
p1114
I1
sS'RSLI'
p1115
I1
sS'RSLK'
p1116
I2
sS'IRWG'
p1117
I1
sS'GDKE'
p1118
I1
sS'AAID'
p1119
I3
sS'HVKI'
p1120
I2
sS'NNDN'
p1121
I1
sS'ENSG'
p1122
I1
sS'NLPV'
p1123
I1
sS'RSLV'
p1124
I1
sS'PHTM'
p1125
I9
sS'DAAI'
p1126
I15
sS'ELQL'
p1127
I3
sS'VALG'
p1128
I14
sS'NYNN'
p1129
I1
sS'NYNS'
p1130
I1
sS'HCGR'
p1131
I1
sS'FRAR'
p1132
I1
sS'FWGG'
p1133
I1
sS'AHRA'
p1134
I3
sS'CCVA'
p1135
I2
sS'FLHR'
p1136
I3
sS'FSWR'
p1137
I2
sS'THIN'
p1138
I12
sS'GSHN'
p1139
I1
sS'RRGS'
p1140
I1
sS'KLAQ'
p1141
I1
sS'TIED'
p1142
I12
sS'LSVM'
p1143
I9
sS'CTAP'
p1144
I2
sS'GSHR'
p1145
I5
sS'LSVG'
p1146
I2
sS'SAYK'
p1147
I9
sS'TRSR'
p1148
I1
sS'HRAG'
p1149
I3
sS'NWSL'
p1150
I1
sS'QLAV'
p1151
I3
sS'DNKR'
p1152
I1
sS'EPNS'
p1153
I1
sS'APNR'
p1154
I1
sS'QLAI'
p1155
I4
sS'GRTF'
p1156
I12
sS'RDLG'
p1157
I2
sS'KAMS'
p1158
I1
sS'REDF'
p1159
I3
sS'SIRT'
p1160
I1
sS'REDL'
p1161
I2
sS'VIGV'
p1162
I3
sS'RRPR'
p1163
I1
sS'QMVQ'
p1164
I1
sS'PLVN'
p1165
I15
sS'GTPS'
p1166
I3
sS'GKKE'
p1167
I2
sS'LYVT'
p1168
I3
sS'GTPD'
p1169
I3
sS'GTPG'
p1170
I2
sS'SQEL'
p1171
I12
sS'EWLA'
p1172
I1
sS'ATLR'
p1173
I15
sS'AVIK'
p1174
I2
sS'EMAA'
p1175
I1
sS'CADS'
p1176
I10
sS'LPVM'
p1177
I3
sS'TMKV'
p1178
I3
sS'EMAL'
p1179
I1
sS'KKDL'
p1180
I1
sS'SQYN'
p1181
I3
sS'SHGV'
p1182
I3
sS'RRLV'
p1183
I5
sS'APAV'
p1184
I3
sS'DYFS'
p1185
I12
sS'QVRL'
p1186
I12
sS'RTRV'
p1187
I1
sS'LMPT'
p1188
I1
sS'RLEV'
p1189
I4
sS'SLIR'
p1190
I1
sS'ADGK'
p1191
I3
sS'YSNN'
p1192
I1
sS'RTRE'
p1193
I1
sS'TISA'
p1194
I6
sS'DNSK'
p1195
I8
sS'DSNN'
p1196
I1
sS'FPDV'
p1197
I3
sS'EARR'
p1198
I1
sS'RADL'
p1199
I1
sS'WVVA'
p1200
I12
sS'KRFS'
p1201
I1
sS'RDIN'
p1202
I12
sS'IFWR'
p1203
I1
sS'GLQP'
p1204
I12
sS'PDLW'
p1205
I1
sS'PDLR'
p1206
I3
sS'VGAG'
p1207
I1
sS'LQPG'
p1208
I12
sS'NLMH'
p1209
I3
sS'IMRG'
p1210
I1
sS'NTLS'
p1211
I2
sS'HVTI'
p1212
I7
sS'VGSP'
p1213
I12
sS'ADRR'
p1214
I3
sS'KDKE'
p1215
I1
sS'LEVI'
p1216
I4
sS'TPGT'
p1217
I1
sS'VWLA'
p1218
I1
sS'LEVF'
p1219
I1
sS'GEWV'
p1220
I12
sS'APSR'
p1221
I1
sS'TDNG'
p1222
I1
sS'QQDP'
p1223
I1
sS'APSA'
p1224
I1
sS'EFNF'
p1225
I5
sS'DVRQ'
p1226
I3
sS'STCN'
p1227
I1
sS'NGIG'
p1228
I1
sS'ANIT'
p1229
I1
sS'AGTP'
p1230
I1
sS'GRET'
p1231
I1
sS'GREV'
p1232
I3
sS'KHLD'
p1233
I1
sS'FQFC'
p1234
I2
sS'NRRD'
p1235
I1
sS'RHFD'
p1236
I12
sS'ASKM'
p1237
I5
sS'NRRS'
p1238
I5
sS'PSNL'
p1239
I5
sS'PRAQ'
p1240
I1
sS'YEAM'
p1241
I1
sS'YRSF'
p1242
I1
sS'YEAV'
p1243
I5
sS'GHWS'
p1244
I1
sS'GRKD'
p1245
I2
sS'SGFV'
p1246
I9
sS'QVNN'
p1247
I8
sS'AKTL'
p1248
I1
sS'SGFI'
p1249
I6
sS'KDLG'
p1250
I1
sS'GRWG'
p1251
I1
sS'NRDI'
p1252
I12
sS'DGLI'
p1253
I3
sS'EKRK'
p1254
I5
sS'RRQQ'
p1255
I1
sS'PRAC'
p1256
I1
sS'LRCI'
p1257
I2
sS'TLDI'
p1258
I3
sS'NSTN'
p1259
I1
sS'VIFK'
p1260
I4
sS'MVIL'
p1261
I1
sS'PQNN'
p1262
I1
sS'PVFH'
p1263
I1
sS'NYSN'
p1264
I1
sS'VVLL'
p1265
I1
sS'LDRH'
p1266
I2
sS'SGTR'
p1267
I1
sS'SGTS'
p1268
I1
sS'SGTP'
p1269
I4
sS'VRLP'
p1270
I2
sS'VRLS'
p1271
I12
sS'AAVP'
p1272
I2
sS'AAVS'
p1273
I3
sS'KENN'
p1274
I1
sS'AHGA'
p1275
I1
sS'NNED'
p1276
I1
sS'VRLL'
p1277
I1
sS'AAVI'
p1278
I2
sS'TNVE'
p1279
I2
sS'PAVL'
p1280
I2
sS'QQES'
p1281
I1
sS'RGEK'
p1282
I3
sS'FWRK'
p1283
I1
sS'LVIK'
p1284
I1
sS'RINN'
p1285
I1
sS'GVIS'
p1286
I12
sS'RRCS'
p1287
I1
sS'RRCT'
p1288
I2
sS'RTSD'
p1289
I1
sS'HRLQ'
p1290
I1
sS'SALN'
p1291
I1
sS'WGRR'
p1292
I1
sS'GAVV'
p1293
I3
sS'GCHR'
p1294
I1
sS'HRLD'
p1295
I1
sS'HRLE'
p1296
I4
sS'VLLL'
p1297
I3
sS'GAVA'
p1298
I2
sS'SALT'
p1299
I1
sS'WGRG'
p1300
I1
sS'PRTR'
p1301
I1
sS'PRTP'
p1302
I1
sS'KNLD'
p1303
I2
sS'AADG'
p1304
I2
sS'PRTC'
p1305
I1
sS'TTLL'
p1306
I1
sS'RFSW'
p1307
I1
sS'PMAF'
p1308
I1
sS'PMAA'
p1309
I1
sS'GGHW'
p1310
I1
sS'PMAL'
p1311
I10
sS'SSTQ'
p1312
I10
sS'SSTL'
p1313
I12
sS'NWRS'
p1314
I1
sS'SSTC'
p1315
I1
sS'GGIF'
p1316
I1
sS'IIEQ'
p1317
I6
sS'VWKV'
p1318
I12
sS'DNNN'
p1319
I1
sS'SVVA'
p1320
I1
sS'YIQT'
p1321
I3
sS'IPSD'
p1322
I3
sS'DNNK'
p1323
I1
sS'PAHS'
p1324
I12
sS'VPFS'
p1325
I12
sS'AIKG'
p1326
I4
sS'AIKE'
p1327
I1
sS'QLRE'
p1328
I3
sS'SLVR'
p1329
I1
sS'AVLL'
p1330
I2
sS'SLVM'
p1331
I1
sS'AVLI'
p1332
I2
sS'DELT'
p1333
I2
sS'SLVI'
p1334
I1
sS'AVLA'
p1335
I2
sS'RTAT'
p1336
I1
sS'AALK'
p1337
I1
sS'FFVP'
p1338
I9
sS'ARLI'
p1339
I1
sS'TAKA'
p1340
I1
sS'EYIQ'
p1341
I3
sS'LAEL'
p1342
I2
sS'ARLN'
p1343
I1
sS'KKEL'
p1344
I2
sS'ITKL'
p1345
I1
sS'KKEI'
p1346
I12
sS'LAEG'
p1347
I2
sS'VSAV'
p1348
I2
sS'YRRF'
p1349
I1
sS'FALQ'
p1350
I3
sS'TQNM'
p1351
I3
sS'VSAA'
p1352
I5
sS'EVFL'
p1353
I1
sS'SGGP'
p1354
I15
sS'SGGG'
p1355
I1
sS'QPAI'
p1356
I1
sS'SGGD'
p1357
I2
sS'KRKK'
p1358
I5
sS'ARPS'
p1359
I1
sS'SGGL'
p1360
I12
sS'RYMG'
p1361
I12
sS'GLPQ'
p1362
I3
sS'GYPV'
p1363
I12
sS'DREL'
p1364
I1
sS'KGKG'
p1365
I1
sS'NTMK'
p1366
I3
sS'RRRV'
p1367
I3
sS'NTMV'
p1368
I3
sS'VFVK'
p1369
I1
sS'NDNK'
p1370
I1
sS'NDNN'
p1371
I1
sS'RLTP'
p1372
I1
sS'LDSP'
p1373
I1
sS'GVTE'
p1374
I1
sS'LRRC'
p1375
I2
sS'PLFH'
p1376
I1
sS'SNKS'
p1377
I1
sS'SWRS'
p1378
I3
sS'AGGA'
p1379
I3
sS'HTMV'
p1380
I9
sS'VPAP'
p1381
I1
sS'HKSA'
p1382
I1
sS'GDIV'
p1383
I12
sS'KNSW'
p1384
I2
sS'KNSS'
p1385
I13
sS'RHRD'
p1386
I1
sS'AAYK'
p1387
I1
sS'MVAQ'
p1388
I2
sS'AWLA'
p1389
I1
sS'AHTA'
p1390
I2
sS'GRDR'
p1391
I1
sS'IWMT'
p1392
I1
sS'NNTA'
p1393
I1
sS'PSAL'
p1394
I1
sS'AAEK'
p1395
I5
sS'LSPS'
p1396
I1
sS'NEDN'
p1397
I1
sS'NEDD'
p1398
I1
sS'AVPS'
p1399
I1
sS'AAER'
p1400
I4
sS'RCTA'
p1401
I2
sS'ASPL'
p1402
I1
sS'GGIR'
p1403
I1
sS'YCLH'
p1404
I1
sS'ASPV'
p1405
I4
sS'ASPR'
p1406
I1
sS'TFPA'
p1407
I12
sS'EIKN'
p1408
I12
sS'SITK'
p1409
I1
sS'EIKD'
p1410
I12
sS'REFL'
p1411
I3
sS'REFN'
p1412
I3
sS'INNL'
p1413
I3
sS'SSGI'
p1414
I1
sS'TNYN'
p1415
I1
sS'TYGT'
p1416
I3
sS'QETL'
p1417
I1
sS'EAMV'
p1418
I1
sS'AAIT'
p1419
I12
sS'RRRK'
p1420
I1
sS'IERH'
p1421
I1
sS'RRRD'
p1422
I6
sS'RRRE'
p1423
I4
sS'PLPT'
p1424
I3
sS'AFRR'
p1425
I1
sS'GGGR'
p1426
I2
sS'NGFS'
p1427
I1
sS'GGGH'
p1428
I1
sS'KVFL'
p1429
I11
sS'ATNG'
p1430
I1
sS'QNAE'
p1431
I3
sS'VKIT'
p1432
I2
sS'RRNE'
p1433
I2
sS'ISST'
p1434
I10
sS'QVPE'
p1435
I1
sS'SQIW'
p1436
I1
sS'GTDP'
p1437
I1
sS'KVTS'
p1438
I1
sS'DPRA'
p1439
I1
sS'SLGA'
p1440
I12
sS'ISAA'
p1441
I1
sS'MAAP'
p1442
I1
sS'GTDD'
p1443
I1
sS'KVTA'
p1444
I14
sS'EDLT'
p1445
I2
sS'ISAT'
p1446
I2
sS'VTEM'
p1447
I2
sS'ISAR'
p1448
I4
sS'VRQG'
p1449
I3
sS'RTPD'
p1450
I1
sS'RTPE'
p1451
I1
sS'MAAL'
p1452
I2
sS'LAVA'
p1453
I3
sS'LAVR'
p1454
I2
sS'LAVQ'
p1455
I1
sS'IGTD'
p1456
I1
sS'MKRD'
p1457
I1
sS'DIYE'
p1458
I1
sS'EFLH'
p1459
I3
sS'LVRF'
p1460
I5
sS'ALAD'
p1461
I9
sS'AKDL'
p1462
I1
sS'ARAL'
p1463
I1
sS'RQEQ'
p1464
I1
sS'LQNT'
p1465
I3
sS'GGCA'
p1466
I1
sS'HSGG'
p1467
I12
sS'SPSI'
p1468
I1
sS'FRRI'
p1469
I1
sS'LADG'
p1470
I3
sS'YVKV'
p1471
I11
sS'LTHG'
p1472
I6
sS'IDFG'
p1473
I3
sS'GSRR'
p1474
I1
sS'YVKL'
p1475
I1
sS'LETF'
p1476
I1
sS'TFLK'
p1477
I1
sS'SFGW'
p1478
I1
sS'DKEL'
p1479
I1
sS'DKEN'
p1480
I1
sS'AGVI'
p1481
I12
sS'VTEP'
p1482
I1
sS'SVMK'
p1483
I3
sS'IRFF'
p1484
I3
sS'SVMR'
p1485
I6
sS'VAAD'
p1486
I2
sS'ISAK'
p1487
I1
sS'IRFL'
p1488
I1
sS'GRGP'
p1489
I2
sS'RAGL'
p1490
I3
sS'RAGR'
p1491
I2
sS'GRGA'
p1492
I3
sS'GRGL'
p1493
I1
sS'LHRG'
p1494
I3
sS'LHRC'
p1495
I2
sS'DLAT'
p1496
I12
sS'LHRS'
p1497
I1
sS'SENS'
p1498
I1
sS'MKLG'
p1499
I5
sS'DRHP'
p1500
I2
sS'TAVD'
p1501
I3
sS'ALGS'
p1502
I12
sS'SGDT'
p1503
I3
sS'TAVT'
p1504
I1
sS'ALGC'
p1505
I1
sS'ALGA'
p1506
I2
sS'NYLQ'
p1507
I12
sS'NGYT'
p1508
I1
sS'PEVT'
p1509
I3
sS'GRQE'
p1510
I1
sS'NNGQ'
p1511
I2
sS'LRAL'
p1512
I3
sS'RLRV'
p1513
I1
sS'RRSP'
p1514
I1
sS'RRSS'
p1515
I5
sS'VVGG'
p1516
I1
sS'RLRE'
p1517
I3
sS'LRAW'
p1518
I2
sS'SSDQ'
p1519
I1
sS'SSDV'
p1520
I12
sS'DDLE'
p1521
I1
sS'LRAR'
p1522
I1
sS'LRSR'
p1523
I1
sS'ILRG'
p1524
I11
sS'PLGR'
p1525
I3
sS'LRSG'
p1526
I12
sS'YQQN'
p1527
I3
sS'GFLA'
p1528
I1
sS'LFHS'
p1529
I2
sS'LRSI'
p1530
I3
sS'AVDP'
p1531
I3
sS'RSIT'
p1532
I1
sS'VIVG'
p1533
I12
sS'IRTA'
p1534
I1
sS'ELDI'
p1535
I2
sS'EPSF'
p1536
I3
sS'EQKE'
p1537
I1
sS'EQKA'
p1538
I1
sS'RSIN'
p1539
I2
sS'RREW'
p1540
I1
sS'TNTD'
p1541
I1
sS'LIEL'
p1542
I1
sS'RIHV'
p1543
I1
sS'SSRN'
p1544
I1
sS'YSAP'
p1545
I2
sS'GVKQ'
p1546
I12
sS'SSRT'
p1547
I2
sS'ERKG'
p1548
I1
sS'PATI'
p1549
I12
sS'RYSA'
p1550
I2
sS'GQYQ'
p1551
I3
sS'PTLH'
p1552
I2
sS'RTQN'
p1553
I3
sS'RTQS'
p1554
I3
sS'PTLP'
p1555
I3
sS'GCAD'
p1556
I9
sS'FNWR'
p1557
I1
sS'PTLY'
p1558
I3
sS'TRVT'
p1559
I1
sS'MSGR'
p1560
I1
sS'KLNV'
p1561
I1
sS'MGSP'
p1562
I3
sS'TLFH'
p1563
I1
sS'WARL'
p1564
I2
sS'VRVR'
p1565
I3
sS'RCSA'
p1566
I2
sS'ASQE'
p1567
I12
sS'RWGK'
p1568
I1
sS'CGRD'
p1569
I1
sS'RWGR'
p1570
I1
sS'IVIL'
p1571
I10
sS'SQNM'
p1572
I9
sS'KQMH'
p1573
I9
sS'LNMI'
p1574
I1
sS'SPLA'
p1575
I12
sS'SPLF'
p1576
I1
sS'GGRG'
p1577
I2
sS'RAWL'
p1578
I1
sS'TDAA'
p1579
I15
sS'GGRW'
p1580
I1
sS'NGEH'
p1581
I2
sS'PPLL'
p1582
I1
sS'NGER'
p1583
I1
sS'NGEQ'
p1584
I2
sS'REVP'
p1585
I3
sS'AFQF'
p1586
I1
sS'GGDN'
p1587
I2
sS'MAFR'
p1588
I1
sS'ATIE'
p1589
I12
sS'GEHK'
p1590
I2
sS'NSNG'
p1591
I4
sS'LPQN'
p1592
I1
sS'RLNV'
p1593
I1
sS'LPQT'
p1594
I2
sS'RNNN'
p1595
I1
sS'NSNR'
p1596
I1
sS'RNNK'
p1597
I2
sS'MIIM'
p1598
I1
sS'LLSG'
p1599
I1
sS'FGNS'
p1600
I15
sS'MMLT'
p1601
I3
sS'LHSH'
p1602
I1
sS'LHSQ'
p1603
I2
sS'VSGL'
p1604
I2
sS'SPTS'
p1605
I1
sS'LWAR'
p1606
I2
sS'AEGR'
p1607
I2
sS'TGYP'
p1608
I12
sS'SGEW'
p1609
I12
sS'DMVI'
p1610
I1
sS'ARVT'
p1611
I1
sS'TAGV'
p1612
I12
sS'FVKR'
p1613
I1
sS'HGAT'
p1614
I1
sS'LVSA'
p1615
I2
sS'LVSF'
p1616
I1
sS'APTL'
p1617
I5
sS'AIIQ'
p1618
I3
sS'EHKE'
p1619
I2
sS'TAGI'
p1620
I14
sS'ALTL'
p1621
I1
sS'EGRK'
p1622
I2
sS'TEPR'
p1623
I1
sS'SPRS'
p1624
I3
sS'GYRR'
p1625
I1
sS'GYRS'
p1626
I1
sS'IVGS'
p1627
I12
sS'LEIF'
p1628
I2
sS'PNTL'
p1629
I2
sS'PNTM'
p1630
I3
sS'SGQD'
p1631
I1
sS'PEGF'
p1632
I1
sS'GKGP'
p1633
I1
sS'LRPG'
p1634
I3
sS'DALA'
p1635
I11
sS'KEIK'
p1636
I12
sS'ELGL'
p1637
I12
sS'QRAS'
p1638
I12
sS'NLTH'
p1639
I5
sS'SVLG'
p1640
I1
sS'NKNG'
p1641
I2
sS'NKNE'
p1642
I1
sS'NKND'
p1643
I1
sS'NKNK'
p1644
I1
sS'DPMA'
p1645
I12
sS'DVQH'
p1646
I3
sS'YPVK'
p1647
I12
sS'YLQT'
p1648
I12
sS'AQNA'
p1649
I1
sS'NNVE'
p1650
I1
sS'DFIR'
p1651
I1
sS'AHVV'
p1652
I15
sS'ASNG'
p1653
I12
sS'CHRL'
p1654
I1
sS'PRSQ'
p1655
I3
sS'SCAD'
p1656
I1
sS'VPEG'
p1657
I1
sS'TIAA'
p1658
I5
sS'GAGW'
p1659
I2
sS'ASRA'
p1660
I1
sS'NEFN'
p1661
I2
sS'KSGY'
p1662
I2
sS'GAGG'
p1663
I3
sS'GKKD'
p1664
I1
sS'LADN'
p1665
I6
sS'RHKS'
p1666
I1
sS'FLRR'
p1667
I2
sS'VVYI'
p1668
I15
sS'RLSV'
p1669
I2
sS'SWFG'
p1670
I2
sS'VIKR'
p1671
I3
sS'SNGN'
p1672
I5
sS'SNGS'
p1673
I15
sS'LDGE'
p1674
I15
sS'RLSD'
p1675
I12
sS'NGSG'
p1676
I15
sS'SGYS'
p1677
I1
sS'SGYR'
p1678
I2
sS'NAHV'
p1679
I15
sS'GGEP'
p1680
I1
sS'ADLT'
p1681
I1
sS'QTNV'
p1682
I2
sS'MPSN'
p1683
I5
sS'TAHT'
p1684
I2
sS'MPSH'
p1685
I1
sS'RTLN'
p1686
I1
sS'NSMK'
p1687
I12
sS'TDPS'
p1688
I1
sS'VFLE'
p1689
I11
sS'SSSG'
p1690
I1
sS'TLYY'
p1691
I3
sS'EDNN'
p1692
I1
sS'SSSK'
p1693
I2
sS'TLYV'
p1694
I3
sS'SSSN'
p1695
I1
sS'VFLK'
p1696
I1
sS'SSSS'
p1697
I2
sS'AQRP'
p1698
I3
sS'CINN'
p1699
I2
sS'EAVR'
p1700
I3
sS'PRAR'
p1701
I1
sS'EAVV'
p1702
I2
sS'TREA'
p1703
I1
sS'GDSV'
p1704
I2
sS'PRAG'
p1705
I1
sS'RKKG'
p1706
I11
sS'LATL'
p1707
I12
sS'KKNS'
p1708
I3
sS'IGVN'
p1709
I15
sS'IGVM'
p1710
I3
sS'LVPF'
p1711
I1
sS'FTPT'
p1712
I3
sS'VEYI'
p1713
I3
sS'ALWG'
p1714
I1
sS'LQLR'
p1715
I3
sS'TGFS'
p1716
I1
sS'GYSW'
p1717
I1
sS'LGLR'
p1718
I12
sS'LGLP'
p1719
I3
sS'GSPA'
p1720
I14
sS'GSPF'
p1721
I3
sS'GQDQ'
p1722
I1
sS'GSPL'
p1723
I12
sS'GSPP'
p1724
I1
sS'EVPI'
p1725
I3
sS'SDLR'
p1726
I1
sS'SDLA'
p1727
I12
sS'KPHT'
p1728
I9
sS'ELTP'
p1729
I6
sS'NVFV'
p1730
I1
sS'ALAE'
p1731
I2
sS'IELQ'
p1732
I1
sS'IYEA'
p1733
I1
sS'QRRY'
p1734
I3
sS'AEDI'
p1735
I1
sS'AEDV'
p1736
I2
sS'ALAS'
p1737
I3
sS'NTVT'
p1738
I12
sS'DPNS'
p1739
I3
sS'RAAA'
p1740
I3
sS'ANWS'
p1741
I1
sS'RAAE'
p1742
I9
sS'DQEA'
p1743
I1
sS'RAWR'
p1744
I2
sS'ELFI'
p1745
I1
sS'FIIE'
p1746
I6
sS'LLTP'
p1747
I1
sS'LLTS'
p1748
I3
sS'STQR'
p1749
I10
sS'STQS'
p1750
I1
sS'SMKV'
p1751
I12
sS'VQVR'
p1752
I12
sS'AITF'
p1753
I12
sS'VSFF'
p1754
I1
sS'VAQR'
p1755
I2
sS'WFGI'
p1756
I1
sS'TATG'
p1757
I1
sS'PGDI'
p1758
I12
sS'PGDV'
p1759
I3
sS'WFGT'
p1760
I1
sS'PSPP'
p1761
I1
sS'SRAD'
p1762
I1
sS'DALG'
p1763
I1
sS'HKTG'
p1764
I2
sS'YNFI'
p1765
I3
sS'RCCV'
p1766
I2
sS'INKP'
p1767
I12
sS'INKK'
p1768
I12
sS'INKL'
p1769
I2
sS'GRSA'
p1770
I3
sS'LIHK'
p1771
I3
sS'LRGC'
p1772
I1
sS'PETL'
p1773
I1
sS'RLPS'
p1774
I2
sS'DFNF'
p1775
I7
sS'LRGS'
p1776
I5
sS'LRGW'
p1777
I1
sS'LRGV'
p1778
I11
sS'SNTV'
p1779
I12
sS'LYCR'
p1780
I1
sS'QIWM'
p1781
I1
sS'GLIL'
p1782
I12
sS'TMLT'
p1783
I12
sS'GLIV'
p1784
I3
sS'VFQF'
p1785
I1
sS'SGHD'
p1786
I1
sS'PLAL'
p1787
I12
sS'GDNS'
p1788
I2
sS'NFIA'
p1789
I15
sS'IQTK'
p1790
I3
sS'AARP'
p1791
I1
sS'AARR'
p1792
I3
sS'AHKT'
p1793
I2
sS'KGRR'
p1794
I2
sS'RSGE'
p1795
I12
sS'PPPA'
p1796
I1
s.