(dp1
S'EMEM'
p2
I1
sS'DGDN'
p3
I1
sS'EDQE'
p4
I3
sS'EPEK'
p5
I1
sS'EPED'
p6
I2
sS'EGYN'
p7
I5
sS'NDSE'
p8
I1
sS'NDSD'
p9
I1
sS'AEHG'
p10
I1
sS'EGYV'
p11
I6
sS'YLNL'
p12
I2
sS'DELD'
p13
I2
sS'SLDL'
p14
I15
sS'TNRS'
p15
I2
sS'KPLE'
p16
I2
sS'LDNS'
p17
I1
sS'LSTI'
p18
I14
sS'KRKR'
p19
I14
sS'TINV'
p20
I7
sS'AEAY'
p21
I1
sS'DLDE'
p22
I1
sS'VDKE'
p23
I2
sS'NLKH'
p24
I2
sS'SLKS'
p25
I1
sS'KDKD'
p26
I1
sS'ANQI'
p27
I1
sS'GLFS'
p28
I2
sS'DPED'
p29
I1
sS'RETV'
p30
I2
sS'DEGQ'
p31
I1
sS'KRKH'
p32
I2
sS'QVMY'
p33
I2
sS'EPLK'
p34
I15
sS'YDRD'
p35
I6
sS'KHDG'
p36
I2
sS'SGGL'
p37
I8
sS'SLEF'
p38
I1
sS'DNGE'
p39
I1
sS'GKLE'
p40
I1
sS'DPEA'
p41
I3
sS'DEYE'
p42
I1
sS'PDDE'
p43
I2
sS'LINY'
p44
I1
sS'WEEG'
p45
I1
sS'QGEK'
p46
I2
sS'ASVN'
p47
I1
sS'SDFE'
p48
I1
sS'LTYL'
p49
I9
sS'DEYT'
p50
I2
sS'PADV'
p51
I1
sS'DREA'
p52
I2
sS'KIKD'
p53
I9
sS'LELS'
p54
I17
sS'LELR'
p55
I15
sS'VYND'
p56
I2
sS'EFES'
p57
I1
sS'EDVE'
p58
I5
sS'DEYA'
p59
I2
sS'EDVG'
p60
I1
sS'LECL'
p61
I3
sS'EDVP'
p62
I3
sS'EDVS'
p63
I5
sS'GEAD'
p64
I1
sS'KLLP'
p65
I10
sS'RKVN'
p66
I1
sS'YLEL'
p67
I2
sS'RICG'
p68
I2
sS'KLPH'
p69
I2
sS'EDDY'
p70
I1
sS'PKLK'
p71
I7
sS'GKIV'
p72
I1
sS'ADDQ'
p73
I2
sS'GSQK'
p74
I2
sS'RSDD'
p75
I3
sS'NLHS'
p76
I1
sS'NESS'
p77
I1
sS'FNND'
p78
I2
sS'LFKL'
p79
I1
sS'DFEE'
p80
I1
sS'SEGD'
p81
I1
sS'ICGG'
p82
I2
sS'LNKL'
p83
I8
sS'FKML'
p84
I2
sS'EDEG'
p85
I5
sS'LRNR'
p86
I14
sS'NESA'
p87
I1
sS'NYRE'
p88
I5
sS'DEVG'
p89
I1
sS'ELEF'
p90
I6
sS'EDEY'
p91
I1
sS'DEVN'
p92
I1
sS'DDGD'
p93
I1
sS'DEVS'
p94
I4
sS'EGKL'
p95
I1
sS'ELER'
p96
I2
sS'LRKL'
p97
I1
sS'EGKI'
p98
I6
sS'VEDE'
p99
I5
sS'VEVD'
p100
I2
sS'THLN'
p101
I13
sS'LTDE'
p102
I11
sS'NLVV'
p103
I1
sS'GVDD'
p104
I1
sS'EEEV'
p105
I2
sS'GEVK'
p106
I1
sS'CEVT'
p107
I15
sS'EEER'
p108
I4
sS'DSEE'
p109
I1
sS'NKEA'
p110
I2
sS'EEEY'
p111
I5
sS'ELSD'
p112
I12
sS'ELSE'
p113
I5
sS'EEEE'
p114
I60
sS'GKIE'
p115
I11
sS'EEEG'
p116
I12
sS'EEEF'
p117
I10
sS'DVSG'
p118
I5
sS'PQVM'
p119
I2
sS'ETLK'
p120
I2
sS'EEEL'
p121
I3
sS'VANL'
p122
I4
sS'NAKD'
p123
I1
sS'APDS'
p124
I17
sS'SVSN'
p125
I3
sS'PRGE'
p126
I1
sS'RRIH'
p127
I7
sS'ERGQ'
p128
I3
sS'RKAA'
p129
I2
sS'SGLN'
p130
I2
sS'ISVG'
p131
I1
sS'RETD'
p132
I5
sS'KRRI'
p133
I5
sS'DAQV'
p134
I3
sS'NDAT'
p135
I2
sS'RLLP'
p136
I2
sS'PPGE'
p137
I1
sS'ERGL'
p138
I1
sS'DNSD'
p139
I2
sS'ISVS'
p140
I3
sS'ASLN'
p141
I1
sS'MGRR'
p142
I2
sS'KRDQ'
p143
I1
sS'EESG'
p144
I4
sS'EHLK'
p145
I1
sS'RTPN'
p146
I3
sS'LVVL'
p147
I1
sS'ENGE'
p148
I3
sS'FVNL'
p149
I5
sS'EVLA'
p150
I10
sS'NEDK'
p151
I1
sS'SVGL'
p152
I1
sS'VNLL'
p153
I3
sS'IEGK'
p154
I3
sS'FGLD'
p155
I1
sS'REAP'
p156
I2
sS'IEGL'
p157
I11
sS'DIDD'
p158
I2
sS'PKLQ'
p159
I2
sS'PKLP'
p160
I9
sS'LLSV'
p161
I2
sS'NVNL'
p162
I3
sS'LEFL'
p163
I15
sS'NCEV'
p164
I13
sS'NCKS'
p165
I4
sS'DGDD'
p166
I1
sS'KSND'
p167
I3
sS'RIFG'
p168
I3
sS'SDPE'
p169
I3
sS'KEPE'
p170
I1
sS'EHGE'
p171
I1
sS'DNNI'
p172
I1
sS'KDGE'
p173
I1
sS'VTML'
p174
I3
sS'NSRS'
p175
I1
sS'PKLN'
p176
I8
sS'GYND'
p177
I5
sS'DNCK'
p178
I6
sS'KKRK'
p179
I2
sS'HLMS'
p180
I2
sS'LDLF'
p181
I17
sS'GLTS'
p182
I8
sS'KMLP'
p183
I2
sS'GLTT'
p184
I2
sS'LEPL'
p185
I8
sS'GEAN'
p186
I1
sS'VTNR'
p187
I2
sS'GLTA'
p188
I3
sS'DNCR'
p189
I10
sS'LKKL'
p190
I29
sS'ELLP'
p191
I2
sS'GLTD'
p192
I11
sS'KLQY'
p193
I2
sS'DRDN'
p194
I2
sS'SNEG'
p195
I3
sS'RLDC'
p196
I2
sS'VDSV'
p197
I2
sS'NLKS'
p198
I5
sS'TLEP'
p199
I8
sS'LDEE'
p200
I3
sS'DWEE'
p201
I1
sS'GKII'
p202
I2
sS'DGFD'
p203
I5
sS'DNSR'
p204
I1
sS'TLEL'
p205
I1
sS'DDKE'
p206
I4
sS'DWEG'
p207
I1
sS'LSYL'
p208
I2
sS'LNYL'
p209
I2
sS'NLKK'
p210
I2
sS'NNIS'
p211
I1
sS'GEDE'
p212
I7
sS'EEFK'
p213
I2
sS'EEFD'
p214
I3
sS'EDKV'
p215
I1
sS'EAYV'
p216
I1
sS'DATQ'
p217
I2
sS'FEDE'
p218
I2
sS'DKRI'
p219
I3
sS'VFRL'
p220
I2
sS'GGGD'
p221
I1
sS'NCKA'
p222
I2
sS'IKEI'
p223
I2
sS'GGLD'
p224
I5
sS'ISSG'
p225
I2
sS'GEGE'
p226
I1
sS'PSLN'
p227
I2
sS'QLTY'
p228
I9
sS'ADES'
p229
I1
sS'LSEN'
p230
I5
sS'GCEV'
p231
I2
sS'NCRS'
p232
I10
sS'AASV'
p233
I1
sS'SLTH'
p234
I2
sS'DYDE'
p235
I2
sS'LSEV'
p236
I2
sS'GEGR'
p237
I1
sS'QLTF'
p238
I1
sS'DESQ'
p239
I2
sS'SGNR'
p240
I1
sS'FLSM'
p241
I3
sS'PSLT'
p242
I2
sS'VLDN'
p243
I15
sS'EVKE'
p244
I1
sS'NKLK'
p245
I10
sS'IELE'
p246
I2
sS'AEEE'
p247
I1
sS'EDLE'
p248
I2
sS'EEAQ'
p249
I1
sS'EEAP'
p250
I2
sS'SVNA'
p251
I1
sS'QDDE'
p252
I1
sS'DEDV'
p253
I8
sS'NVGL'
p254
I12
sS'LKRK'
p255
I1
sS'LKRL'
p256
I2
sS'EEAN'
p257
I1
sS'DEDA'
p258
I5
sS'LQYL'
p259
I2
sS'NKLR'
p260
I1
sS'DEDE'
p261
I42
sS'DEDD'
p262
I13
sS'DEDG'
p263
I6
sS'ADEQ'
p264
I1
sS'EDGV'
p265
I1
sS'SDWE'
p266
I2
sS'LAVL'
p267
I1
sS'MLPS'
p268
I2
sS'GEGG'
p269
I1
sS'RTPA'
p270
I6
sS'NLDN'
p271
I2
sS'NDEE'
p272
I2
sS'EAPD'
p273
I17
sS'DEDK'
p274
I2
sS'SLNF'
p275
I2
sS'EDGD'
p276
I2
sS'EDGE'
p277
I9
sS'RTPS'
p278
I6
sS'SLNA'
p279
I1
sS'RNRK'
p280
I2
sS'NGEV'
p281
I2
sS'EDKE'
p282
I3
sS'AQLV'
p283
I2
sS'EEES'
p284
I4
sS'SDEV'
p285
I1
sS'GGDD'
p286
I1
sS'DYRE'
p287
I10
sS'MLAE'
p288
I3
sS'IGTL'
p289
I1
sS'LINV'
p290
I6
sS'KSLA'
p291
I1
sS'DVKE'
p292
I8
sS'KTDE'
p293
I1
sS'KIKE'
p294
I2
sS'EFLS'
p295
I15
sS'VFEL'
p296
I2
sS'MKRR'
p297
I5
sS'SDEG'
p298
I1
sS'SDED'
p299
I2
sS'SDEE'
p300
I1
sS'LESL'
p301
I3
sS'EGQE'
p302
I1
sS'AKDK'
p303
I1
sS'LDML'
p304
I3
sS'ADED'
p305
I1
sS'DGEK'
p306
I1
sS'KLKD'
p307
I3
sS'VNLE'
p308
I5
sS'EFKS'
p309
I1
sS'EDYD'
p310
I1
sS'DGEA'
p311
I2
sS'RARK'
p312
I2
sS'KLKK'
p313
I14
sS'DGED'
p314
I2
sS'RELV'
p315
I4
sS'VIDE'
p316
I1
sS'DCND'
p317
I2
sS'YLDG'
p318
I13
sS'STSI'
p319
I2
sS'TQVD'
p320
I2
sS'SMIN'
p321
I3
sS'IDEE'
p322
I1
sS'HDGE'
p323
I4
sS'LEDE'
p324
I2
sS'EFKN'
p325
I1
sS'MKKR'
p326
I5
sS'DGDS'
p327
I1
sS'DGEV'
p328
I11
sS'RELD'
p329
I1
sS'LTHL'
p330
I13
sS'LNLS'
p331
I17
sS'FNCE'
p332
I13
sS'DAKE'
p333
I1
sS'AVRE'
p334
I4
sS'RESV'
p335
I6
sS'RGQK'
p336
I3
sS'TPAA'
p337
I5
sS'CRSI'
p338
I2
sS'CRSN'
p339
I2
sS'EELP'
p340
I2
sS'GVSD'
p341
I1
sS'QIQE'
p342
I1
sS'EFEN'
p343
I1
sS'NLKD'
p344
I2
sS'FELL'
p345
I2
sS'DASR'
p346
I1
sS'CRST'
p347
I2
sS'SEFE'
p348
I2
sS'GRRI'
p349
I2
sS'EFEG'
p350
I1
sS'TNLP'
p351
I1
sS'EFEE'
p352
I6
sS'LKGF'
p353
I2
sS'DEQE'
p354
I1
sS'NLSG'
p355
I17
sS'SDNN'
p356
I1
sS'ENLK'
p357
I5
sS'SEVY'
p358
I2
sS'TMLN'
p359
I2
sS'GDDD'
p360
I4
sS'TFLD'
p361
I2
sS'EEVI'
p362
I1
sS'ENLE'
p363
I2
sS'LETL'
p364
I2
sS'RKRE'
p365
I11
sS'ENLF'
p366
I1
sS'DKED'
p367
I1
sS'DKEE'
p368
I4
sS'KELV'
p369
I10
sS'VEDD'
p370
I2
sS'DKEA'
p371
I5
sS'ESGK'
p372
I4
sS'KLTF'
p373
I1
sS'EVYN'
p374
I2
sS'SDNR'
p375
I11
sS'EENG'
p376
I2
sS'VLAE'
p377
I9
sS'FKSL'
p378
I1
sS'VLAG'
p379
I1
sS'PEAE'
p380
I2
sS'TPSD'
p381
I6
sS'DSDI'
p382
I2
sS'DSDG'
p383
I2
sS'VDNY'
p384
I2
sS'DSDE'
p385
I3
sS'DSDD'
p386
I2
sS'LPKL'
p387
I23
sS'DSDA'
p388
I8
sS'CGGL'
p389
I2
sS'RRAR'
p390
I2
sS'DINT'
p391
I1
sS'DEGD'
p392
I1
sS'DEGE'
p393
I12
sS'NVFK'
p394
I6
sS'EQEA'
p395
I1
sS'DSDV'
p396
I4
sS'PEAD'
p397
I1
sS'ELRN'
p398
I15
sS'SQVR'
p399
I1
sS'REPE'
p400
I2
sS'NSDW'
p401
I2
sS'DSDP'
p402
I3
sS'NRTP'
p403
I12
sS'RLML'
p404
I2
sS'REPD'
p405
I2
sS'GEKR'
p406
I8
sS'EMKK'
p407
I2
sS'EGRK'
p408
I1
sS'VVED'
p409
I3
sS'VDGV'
p410
I5
sS'DNRV'
p411
I1
sS'GYDK'
p412
I1
sS'GEKE'
p413
I1
sS'DNRI'
p414
I10
sS'ADDD'
p415
I1
sS'SYLD'
p416
I2
sS'GYDR'
p417
I11
sS'ESLE'
p418
I1
sS'APGE'
p419
I1
sS'EELG'
p420
I2
sS'LNAY'
p421
I2
sS'DGME'
p422
I2
sS'LTSI'
p423
I3
sS'PQLT'
p424
I10
sS'DIGT'
p425
I1
sS'TSIA'
p426
I1
sS'ESQA'
p427
I1
sS'KEDK'
p428
I1
sS'NDDL'
p429
I2
sS'EEVQ'
p430
I1
sS'EDPE'
p431
I1
sS'SDAE'
p432
I8
sS'DDQE'
p433
I2
sS'LTSV'
p434
I3
sS'EEAE'
p435
I1
sS'ESQV'
p436
I1
sS'TSIV'
p437
I2
sS'GEVS'
p438
I2
sS'RIEL'
p439
I2
sS'AERT'
p440
I3
sS'PNLH'
p441
I1
sS'RSTS'
p442
I2
sS'GLEF'
p443
I1
sS'GDLE'
p444
I2
sS'GLED'
p445
I1
sS'SAAS'
p446
I1
sS'NVCL'
p447
I1
sS'AEFV'
p448
I3
sS'NDYR'
p449
I8
sS'MSLD'
p450
I2
sS'SGDL'
p451
I2
sS'GLEV'
p452
I8
sS'NASK'
p453
I1
sS'SGDD'
p454
I1
sS'DDDE'
p455
I15
sS'SVTN'
p456
I1
sS'KKLP'
p457
I3
sS'GNKI'
p458
I11
sS'CLKS'
p459
I5
sS'TDDE'
p460
I5
sS'GNKL'
p461
I3
sS'CPNL'
p462
I7
sS'SSDF'
p463
I1
sS'KLPK'
p464
I7
sS'KLPN'
p465
I6
sS'GDGL'
p466
I1
sS'EEYD'
p467
I5
sS'KKLE'
p468
I26
sS'EEAG'
p469
I1
sS'DVGE'
p470
I1
sS'NYLT'
p471
I2
sS'ERTP'
p472
I3
sS'HLNL'
p473
I15
sS'SNDG'
p474
I3
sS'DAEA'
p475
I1
sS'DAEG'
p476
I4
sS'DDLP'
p477
I1
sS'EYAQ'
p478
I2
sS'VRGK'
p479
I1
sS'NAYR'
p480
I2
sS'EVDE'
p481
I3
sS'EVDD'
p482
I6
sS'EVDG'
p483
I5
sS'DDDM'
p484
I5
sS'IANL'
p485
I2
sS'GEVD'
p486
I11
sS'DAEV'
p487
I3
sS'YVEG'
p488
I5
sS'YVED'
p489
I2
sS'ECLK'
p490
I3
sS'SASL'
p491
I1
sS'EVDS'
p492
I2
sS'DDLD'
p493
I1
sS'DDLE'
p494
I3
sS'CKSN'
p495
I3
sS'MDGK'
p496
I1
sS'GRKR'
p497
I1
sS'LLSI'
p498
I1
sS'KEGK'
p499
I1
sS'NISG'
p500
I1
sS'FDDE'
p501
I2
sS'EKLP'
p502
I3
sS'LTLE'
p503
I1
sS'GLKR'
p504
I1
sS'TSPK'
p505
I2
sS'PQLS'
p506
I2
sS'DMEM'
p507
I4
sS'GEDD'
p508
I13
sS'DMEK'
p509
I1
sS'MEMD'
p510
I2
sS'GEDG'
p511
I2
sS'DSVE'
p512
I2
sS'HLEL'
p513
I10
sS'ELDE'
p514
I1
sS'ELDD'
p515
I2
sS'GMEK'
p516
I1
sS'DLST'
p517
I7
sS'EGLT'
p518
I12
sS'GMEM'
p519
I1
sS'YRES'
p520
I6
sS'ANES'
p521
I2
sS'RSIE'
p522
I2
sS'LAGK'
p523
I1
sS'GQED'
p524
I1
sS'DANE'
p525
I1
sS'FRLL'
p526
I2
sS'EGLD'
p527
I5
sS'DADG'
p528
I2
sS'QELN'
p529
I1
sS'ESVF'
p530
I6
sS'KLEG'
p531
I1
sS'RGKK'
p532
I2
sS'NKKP'
p533
I1
sS'KLEH'
p534
I1
sS'DNYR'
p535
I2
sS'KLEN'
p536
I5
sS'KRNL'
p537
I1
sS'KLEL'
p538
I17
sS'KLES'
p539
I1
sS'VNQI'
p540
I1
sS'DVPQ'
p541
I2
sS'ELVL'
p542
I15
sS'RIHL'
p543
I10
sS'NGND'
p544
I2
sS'CKAM'
p545
I1
sS'CKAN'
p546
I1
sS'SDVE'
p547
I4
sS'QSEG'
p548
I1
sS'EEEA'
p549
I1
sS'NLED'
p550
I1
sS'EAQS'
p551
I1
sS'NLEF'
p552
I7
sS'LSVA'
p553
I2
sS'SDVK'
p554
I6
sS'KRIY'
p555
I2
sS'RKLE'
p556
I1
sS'KRIE'
p557
I2
sS'EDFE'
p558
I1
sS'LSMI'
p559
I3
sS'EDEL'
p560
I2
sS'VSGG'
p561
I1
sS'KRIH'
p562
I3
sS'LSDE'
p563
I1
sS'INYR'
p564
I1
sS'HGEK'
p565
I1
sS'INTL'
p566
I3
sS'DLEG'
p567
I1
sS'DLEE'
p568
I4
sS'LENL'
p569
I5
sS'KIIG'
p570
I2
sS'MEKR'
p571
I2
sS'RGLK'
p572
I1
sS'KLNK'
p573
I8
sS'GYVE'
p574
I6
sS'IQEL'
p575
I1
sS'TSEF'
p576
I2
sS'DLEV'
p577
I2
sS'DLET'
p578
I2
sS'SVFE'
p579
I2
sS'LSSD'
p580
I1
sS'GENE'
p581
I1
sS'VSDE'
p582
I1
sS'YAQL'
p583
I2
sS'EPDD'
p584
I2
sS'KAAD'
p585
I2
sS'KGEK'
p586
I4
sS'GTLE'
p587
I1
sS'PDSD'
p588
I17
sS'SVFK'
p589
I3
sS'LSSI'
p590
I1
sS'LEEF'
p591
I2
sS'SVFT'
p592
I1
sS'LEED'
p593
I2
sS'IFGG'
p594
I3
sS'DRLA'
p595
I2
sS'TVFR'
p596
I2
sS'SGNN'
p597
I2
sS'REKI'
p598
I2
sS'SQAR'
p599
I1
sS'VQSD'
p600
I1
sS'VFTL'
p601
I1
sS'AAPG'
p602
I1
sS'GQKR'
p603
I3
sS'MLEL'
p604
I2
sS'EAGE'
p605
I2
sS'FDAD'
p606
I3
sS'NRSD'
p607
I2
sS'SREG'
p608
I1
sS'VNGN'
p609
I2
sS'QELV'
p610
I1
sS'DDGK'
p611
I3
sS'EYDE'
p612
I5
sS'GKGE'
p613
I5
sS'NFLD'
p614
I2
sS'EVQS'
p615
I1
sS'AGEE'
p616
I2
sS'EFDE'
p617
I1
sS'EFDD'
p618
I2
sS'MDMK'
p619
I8
sS'YDEY'
p620
I2
sS'DAAP'
p621
I1
sS'KDIG'
p622
I1
sS'NLPK'
p623
I13
sS'QVVE'
p624
I3
sS'VEGY'
p625
I2
sS'MDMD'
p626
I1
sS'PGEV'
p627
I1
sS'DEME'
p628
I1
sS'FKLL'
p629
I10
sS'DKDG'
p630
I1
sS'DAAE'
p631
I1
sS'MINV'
p632
I3
sS'VEGD'
p633
I1
sS'VEGE'
p634
I4
sS'YDED'
p635
I5
sS'VQEL'
p636
I1
sS'NNDA'
p637
I2
sS'VEGL'
p638
I5
sS'KIFK'
p639
I2
sS'LMLE'
p640
I2
sS'EEDA'
p641
I1
sS'NGEG'
p642
I1
sS'NGED'
p643
I2
sS'RDNK'
p644
I2
sS'EEGG'
p645
I1
sS'RISG'
p646
I8
sS'EEGE'
p647
I19
sS'EEGD'
p648
I1
sS'LVLD'
p649
I15
sS'DEAG'
p650
I1
sS'PEDE'
p651
I3
sS'EGGK'
p652
I1
sS'SGNK'
p653
I14
sS'KVNQ'
p654
I1
sS'PSDV'
p655
I6
sS'EEGY'
p656
I5
sS'ETVF'
p657
I2
sS'EEGS'
p658
I2
sS'RISS'
p659
I2
sS'EGGG'
p660
I1
sS'FLDG'
p661
I4
sS'MYLD'
p662
I2
sS'EDAA'
p663
I2
sS'CRSK'
p664
I1
sS'LSDN'
p665
I12
sS'SDGE'
p666
I2
sS'GVDK'
p667
I2
sS'PEKT'
p668
I1
sS'LNDG'
p669
I1
sS'LPQL'
p670
I12
sS'ITEL'
p671
I1
sS'LNDY'
p672
I8
sS'EDAQ'
p673
I3
sS'EELE'
p674
I6
sS'SENR'
p675
I5
sS'LVED'
p676
I2
sS'EELN'
p677
I1
sS'GHDG'
p678
I4
sS'LTTL'
p679
I2
sS'VREL'
p680
I4
sS'KGFP'
p681
I2
sS'KIVG'
p682
I1
sS'QVDN'
p683
I2
sS'EVNG'
p684
I2
sS'LHSL'
p685
I1
sS'DDYD'
p686
I1
sS'LISV'
p687
I4
sS'EDSD'
p688
I2
sS'SVEE'
p689
I2
sS'TIEP'
p690
I7
sS'LTTS'
p691
I2
sS'VSGD'
p692
I1
sS'VSGE'
p693
I10
sS'SEEE'
p694
I2
sS'VGEE'
p695
I1
sS'STIN'
p696
I7
sS'PGEE'
p697
I2
sS'AEGY'
p698
I4
sS'EEFE'
p699
I2
sS'GLDM'
p700
I3
sS'KDIS'
p701
I4
sS'ELPS'
p702
I2
sS'STIE'
p703
I7
sS'VTNL'
p704
I11
sS'GLDD'
p705
I5
sS'EEFG'
p706
I5
sS'QEDD'
p707
I1
sS'GGKG'
p708
I1
sS'AAVQ'
p709
I1
sS'EGED'
p710
I17
sS'KDIN'
p711
I1
sS'EKCP'
p712
I6
sS'GLDR'
p713
I2
sS'SGEE'
p714
I11
sS'RKHD'
p715
I2
sS'REDR'
p716
I2
sS'REDQ'
p717
I3
sS'LERR'
p718
I2
sS'ADVK'
p719
I2
sS'KAMD'
p720
I1
sS'SDDS'
p721
I2
sS'YDRE'
p722
I5
sS'IKDI'
p723
I1
sS'IKDL'
p724
I9
sS'ADAK'
p725
I1
sS'DLSD'
p726
I1
sS'SPKL'
p727
I2
sS'SDDG'
p728
I3
sS'RDLE'
p729
I1
sS'IHLE'
p730
I10
sS'FGHD'
p731
I4
sS'SSIA'
p732
I1
sS'LDCL'
p733
I2
sS'AEEL'
p734
I2
sS'PAAV'
p735
I5
sS'GKKR'
p736
I2
sS'GVDE'
p737
I3
sS'EEED'
p738
I33
sS'IVGL'
p739
I3
sS'DGDA'
p740
I1
sS'DGDG'
p741
I1
sS'DGDE'
p742
I1
sS'FPKL'
p743
I2
sS'DXGE'
p744
I1
sS'FSVS'
p745
I2
sS'DFEN'
p746
I1
sS'EVGV'
p747
I1
sS'NQIT'
p748
I1
sS'WEGE'
p749
I1
sS'KRLD'
p750
I2
sS'NQIQ'
p751
I1
sS'VDDE'
p752
I7
sS'RVSG'
p753
I1
sS'KLEC'
p754
I3
sS'SLSL'
p755
I2
sS'EPXD'
p756
I1
sS'SGKG'
p757
I4
sS'IGLT'
p758
I2
sS'MLIN'
p759
I1
sS'GLDE'
p760
I1
sS'EGDD'
p761
I1
sS'EGDE'
p762
I3
sS'TPNL'
p763
I3
sS'QLSY'
p764
I2
sS'EINT'
p765
I2
sS'DMDK'
p766
I1
sS'NNLK'
p767
I2
sS'DMDM'
p768
I8
sS'GEEE'
p769
I34
sS'GEED'
p770
I10
sS'HDGM'
p771
I2
sS'RIYL'
p772
I2
sS'DGVD'
p773
I6
sS'RNKK'
p774
I1
sS'VPPG'
p775
I1
sS'ANDG'
p776
I1
sS'ELGE'
p777
I2
sS'SNLP'
p778
I6
sS'TALE'
p779
I2
sS'LFNN'
p780
I2
sS'DQEA'
p781
I5
sS'QVRG'
p782
I1
sS'EVSE'
p783
I1
sS'KSLD'
p784
I12
sS'AKEL'
p785
I1
sS'NLTH'
p786
I11
sS'LFNC'
p787
I13
sS'FGGL'
p788
I3
sS'EVSG'
p789
I5
sS'VGLI'
p790
I3
sS'NRVS'
p791
I1
sS'SLIN'
p792
I6
sS'AYVE'
p793
I1
sS'VGLF'
p794
I2
sS'QARG'
p795
I1
sS'TMLI'
p796
I1
sS'VKEL'
p797
I9
sS'NLFK'
p798
I1
sS'SLIS'
p799
I1
sS'DEFE'
p800
I7
sS'SIAN'
p801
I2
sS'VGLT'
p802
I10
sS'DLPR'
p803
I1
sS'KEEE'
p804
I2
sS'VGLS'
p805
I1
sS'LKPL'
p806
I2
sS'DDDL'
p807
I2
sS'NDGE'
p808
I6
sS'MLNN'
p809
I2
sS'NDGK'
p810
I4
sS'EDEA'
p811
I1
sS'NLLS'
p812
I3
sS'EDED'
p813
I47
sS'EDEE'
p814
I49
sS'QITE'
p815
I1
sS'GFDC'
p816
I2
sS'RKAN'
p817
I1
sS'GFDA'
p818
I3
sS'FLSL'
p819
I5
sS'XDXG'
p820
I1
sS'VCLS'
p821
I1
sS'LPHL'
p822
I2
sS'EDEV'
p823
I3
sS'TELN'
p824
I1
sS'FEEE'
p825
I1
sS'LKDI'
p826
I5
sS'FEEL'
p827
I6
sS'KKRI'
p828
I2
sS'DISG'
p829
I1
sS'KKRL'
p830
I3
sS'SDGD'
p831
I1
sS'DLFG'
p832
I2
sS'ENED'
p833
I1
sS'DLFN'
p834
I15
sS'TNLN'
p835
I10
sS'DRDD'
p836
I4
sS'QSDG'
p837
I1
sS'VFKL'
p838
I9
sS'LPQV'
p839
I2
sS'NNYR'
p840
I2
sS'NRIF'
p841
I3
sS'GDED'
p842
I1
sS'NTLE'
p843
I3
sS'NRIC'
p844
I2
sS'CRSD'
p845
I3
sS'ASRE'
p846
I1
sS'TYLD'
p847
I9
sS'DGEE'
p848
I7
sS'NRIK'
p849
I1
sS'LLPQ'
p850
I14
sS'SVAN'
p851
I4
sS'NRIS'
p852
I10
sS'LEDD'
p853
I1
sS'EMDK'
p854
I2
sS'LNNY'
p855
I2
sS'ALES'
p856
I2
sS'DDDS'
p857
I1
sS'TDEF'
p858
I9
sS'ESLK'
p859
I1
sS'RLAE'
p860
I2
sS'LTFL'
p861
I2
sS'LDNC'
p862
I16
sS'IDDA'
p863
I2
sS'EEVS'
p864
I2
sS'TDES'
p865
I1
sS'SIVG'
p866
I2
sS'EEVN'
p867
I1
sS'GDEE'
p868
I3
sS'DDDD'
p869
I3
sS'ELND'
p870
I1
sS'LEVL'
p871
I10
sS'EFGH'
p872
I4
sS'RDLS'
p873
I1
sS'TDEY'
p874
I2
sS'TPAD'
p875
I1
sS'KSIE'
p876
I1
sS'ELNL'
p877
I2
sS'EYTA'
p878
I2
sS'ESLS'
p879
I2
sS'VSNL'
p880
I3
sS'LFGC'
p881
I2
sS'LDGY'
p882
I12
sS'DADD'
p883
I2
sS'VSLS'
p884
I2
sS'LFSV'
p885
I2
sS'YLTT'
p886
I2
sS'CNDE'
p887
I2
sS'KKPG'
p888
I1
sS'FGCE'
p889
I2
sS'LDGF'
p890
I5
sS'XGED'
p891
I1
sS'DDME'
p892
I5
sS'DDMD'
p893
I8
sS'EEDI'
p894
I1
sS'EEDN'
p895
I2
sS'LNLD'
p896
I2
sS'ISGE'
p897
I1
sS'CKSI'
p898
I1
sS'EEDF'
p899
I1
sS'EKIF'
p900
I2
sS'EEDD'
p901
I18
sS'EEDE'
p902
I47
sS'VLDL'
p903
I2
sS'GLNY'
p904
I2
sS'EEDY'
p905
I1
sS'DNKE'
p906
I2
sS'IEPL'
p907
I7
sS'EEDS'
p908
I2
sS'EEDP'
p909
I1
sS'EEDV'
p910
I6
sS'EFED'
p911
I2
sS'SLSE'
p912
I2
sS'ISGD'
p913
I2
sS'KCPN'
p914
I7
sS'LPRG'
p915
I1
sS'LSGN'
p916
I17
sS'KHLN'
p917
I2
sS'EKRK'
p918
I8
sS'EKTD'
p919
I1
sS'DGKI'
p920
I8
sS'ADGD'
p921
I2
sS'ADGE'
p922
I1
sS'RDDK'
p923
I4
sS'FEGL'
p924
I1
sS'KEED'
p925
I2
sS'EEDG'
p926
I4
sS'ASKK'
p927
I1
sS'ETDD'
p928
I5
sS'STLE'
p929
I4
sS'AEKL'
p930
I3
sS'EVID'
p931
I1
sS'AEKC'
p932
I6
sS'SQKR'
p933
I2
sS'FTLL'
p934
I1
sS'AYRE'
p935
I2
sS'LLPK'
p936
I1
sS'EDNS'
p937
I2
sS'RKRN'
p938
I1
sS'GDSD'
p939
I1
sS'RIKD'
p940
I1
sS'PHLM'
p941
I2
sS'PXDX'
p942
I1
sS'YENG'
p943
I1
sS'RDQD'
p944
I1
sS'PLKR'
p945
I2
sS'ATQV'
p946
I2
sS'GGLE'
p947
I8
sS'LMSL'
p948
I2
sS'NKIK'
p949
I11
sS'PLKK'
p950
I13
sS'VPQG'
p951
I2
sS'LSLI'
p952
I7
sS'FDEE'
p953
I1
sS'AVQE'
p954
I1
sS'QEAP'
p955
I6
sS'KDLS'
p956
I7
sS'LTSE'
p957
I2
sS'SISN'
p958
I3
sS'LGEE'
p959
I2
sS'DGLE'
p960
I1
sS'LKHL'
p961
I2
sS'EANE'
p962
I1
sS'KAND'
p963
I1
sS'DDAD'
p964
I2
sS'PKLT'
p965
I1
sS'PQGE'
p966
I2
sS'ISTL'
p967
I4
sS'TLKG'
p968
I2
sS'ARGK'
p969
I1
sS'AQSE'
p970
I1
sS'EKRI'
p971
I2
sS'DEAD'
p972
I1
sS'EDIS'
p973
I1
sS'VGVS'
p974
I1
sS'IFKM'
p975
I2
sS'GKCP'
p976
I1
sS'KPGE'
p977
I1
sS'RLTL'
p978
I1
sS'KDLE'
p979
I2
sS'LDDD'
p980
I3
sS'LDDE'
p981
I4
sS'INVN'
p982
I3
sS'AQVV'
p983
I3
sS'EGSQ'
p984
I2
sS'LTAE'
p985
I3
sS'AMDG'
p986
I1
sS'INVG'
p987
I12
sS'GLSS'
p988
I1
sS'INVC'
p989
I1
sS'FESL'
p990
I1
sS'AAEE'
p991
I1
sS'DVEG'
p992
I7
sS'QLVE'
p993
I2
sS'TSVT'
p994
I1
sS'FKNL'
p995
I1
sS'IIGL'
p996
I2
sS'EADG'
p997
I1
sS'EADD'
p998
I1
sS'EADE'
p999
I2
sS'AEVD'
p1000
I3
sS'VVLD'
p1001
I1
sS'PLEE'
p1002
I2
sS'VSEE'
p1003
I1
sS'TSVA'
p1004
I2
sS'GNNL'
p1005
I2
sS'SVSD'
p1006
I2
sS'DLED'
p1007
I1
sS'RSDY'
p1008
I2
sS'LDRL'
p1009
I2
sS'EYEN'
p1010
I1
sS'DEEA'
p1011
I3
sS'ANGE'
p1012
I1
sS'LPSL'
p1013
I4
sS'SDLP'
p1014
I2
sS'AAVR'
p1015
I4
sS'EERG'
p1016
I4
sS'TAEF'
p1017
I3
sS'FENL'
p1018
I2
sS'SSAS'
p1019
I1
sS'VSDL'
p1020
I2
sS'DCLK'
p1021
I2
sS'RSKE'
p1022
I1
sS'KLRK'
p1023
I1
sS'HLKS'
p1024
I1
sS'KIEG'
p1025
I11
sS'EVTM'
p1026
I3
sS'ESAA'
p1027
I1
sS'EDAS'
p1028
I1
sS'EFGL'
p1029
I1
sS'ENRI'
p1030
I5
sS'GNRI'
p1031
I1
sS'REPX'
p1032
I1
sS'DEEV'
p1033
I3
sS'KVSG'
p1034
I1
sS'AEDL'
p1035
I2
sS'DMKK'
p1036
I3
sS'RGEK'
p1037
I1
sS'LKSL'
p1038
I12
sS'SKEG'
p1039
I1
sS'VMYL'
p1040
I2
sS'DEEG'
p1041
I14
sS'DEED'
p1042
I37
sS'DEEE'
p1043
I34
sS'EKEA'
p1044
I1
sS'TLKP'
p1045
I2
sS'YREN'
p1046
I7
sS'YNDD'
p1047
I2
sS'YNDG'
p1048
I5
sS'HSLD'
p1049
I1
sS'YREK'
p1050
I2
sS'EDDM'
p1051
I8
sS'EDDL'
p1052
I1
sS'DMLA'
p1053
I3
sS'LNAS'
p1054
I1
sS'EDDG'
p1055
I1
sS'PNLK'
p1056
I4
sS'EDDE'
p1057
I22
sS'EDDD'
p1058
I15
sS'KRDL'
p1059
I2
sS'PNLT'
p1060
I11
sS'YRET'
p1061
I2
sS'SIEG'
p1062
I3
sS'ISNL'
p1063
I3
sS'LPNL'
p1064
I6
sS'NRKA'
p1065
I2
sS'KREP'
p1066
I5
sS'VNAK'
p1067
I1
sS'MEMG'
p1068
I2
sS'AADA'
p1069
I1
sS'KRET'
p1070
I5
sS'KEIN'
p1071
I2
sS'DKVS'
p1072
I1
sS'SLAV'
p1073
I1
sS'LEHL'
p1074
I1
sS'RENL'
p1075
I1
sS'MEMK'
p1076
I2
sS'SRSN'
p1077
I1
sS'ESSA'
p1078
I1
sS'KNLV'
p1079
I1
sS'TTLK'
p1080
I2
sS'AADV'
p1081
I1
sS'DVPP'
p1082
I1
sS'SKKE'
p1083
I1
sS'RENV'
p1084
I6
sS'EDRE'
p1085
I2
sS'RKRD'
p1086
I3
sS'KREL'
p1087
I1
sS'SDID'
p1088
I2
sS'ISGG'
p1089
I7
sS'IYLE'
p1090
I2
sS'DDSD'
p1091
I3
sS'NEGK'
p1092
I3
sS'LEGL'
p1093
I1
sS'KGEG'
p1094
I1
sS'SSGL'
p1095
I2
sS'LEGE'
p1096
I1
sS'KRLT'
p1097
I1
sS'NLNA'
p1098
I2
sS'DDEA'
p1099
I1
sS'NLND'
p1100
I8
sS'RNRT'
p1101
I12
sS'KRLM'
p1102
I2
sS'DVEV'
p1103
I2
sS'TTSP'
p1104
I2
sS'EVSL'
p1105
I2
sS'TLLP'
p1106
I1
sS'DIST'
p1107
I4
sS'DDEV'
p1108
I2
sS'TSIS'
p1109
I2
sS'EGLE'
p1110
I1
sS'FDCN'
p1111
I2
sS'ERRA'
p1112
I2
sS'FLST'
p1113
I7
sS'EFVN'
p1114
I5
sS'EAED'
p1115
I2
sS'AGKC'
p1116
I1
sS'CLSS'
p1117
I1
sS'DDEG'
p1118
I8
sS'EMGR'
p1119
I2
sS'DDEE'
p1120
I28
sS'DDED'
p1121
I17
sS'QYLN'
p1122
I2
sS'DDEM'
p1123
I1
sS'DEFV'
p1124
I2
sS'RSNE'
p1125
I3
sS'REGE'
p1126
I1
sS'DADE'
p1127
I1
sS'GNDS'
p1128
I2
sS'GDAN'
p1129
I1
sS'ARKA'
p1130
I1
sS'DRED'
p1131
I5
sS'EANG'
p1132
I1
sS'MDKR'
p1133
I3
sS'YDKE'
p1134
I1
sS'GFPK'
p1135
I2
sS'VEEA'
p1136
I2
sS'ARKV'
p1137
I1
sS'KANQ'
p1138
I1
sS'EAEH'
p1139
I1
sS'VDEE'
p1140
I3
sS'VDED'
p1141
I3
sS'LEEN'
p1142
I2
sS'KEAD'
p1143
I1
sS'DLPK'
p1144
I2
sS'LRNK'
p1145
I1
sS'DMKR'
p1146
I5
sS'GLIS'
p1147
I3
sS'SDYR'
p1148
I2
sS'KEAP'
p1149
I7
sS'EGEG'
p1150
I1
sS'ANLP'
p1151
I6
sS'EGEE'
p1152
I20
sS'EVTN'
p1153
I12
sS'AVLD'
p1154
I1
sS'YTAL'
p1155
I2
sS'EGEN'
p1156
I1
sS'LNFL'
p1157
I2
sS'QKRK'
p1158
I5
sS'KKEP'
p1159
I1
sS'DGYD'
p1160
I12
sS'RNLE'
p1161
I1
sS'LAEK'
p1162
I9
sS'LSIS'
p1163
I1
sS'GDNG'
p1164
I1
sS'LAER'
p1165
I3
sS'GEEG'
p1166
I1
sS'DQDD'
p1167
I1
sS'ENVF'
p1168
I6
sS'LAEE'
p1169
I2
s.