(dp1
S'LPAR'
p2
I1
sS'SLDQ'
p3
I1
sS'SLDS'
p4
I2
sS'QEIL'
p5
I1
sS'QLHL'
p6
I7
sS'GKRP'
p7
I4
sS'EPEA'
p8
I1
sS'SSPA'
p9
I1
sS'SQLH'
p10
I10
sS'GVMY'
p11
I1
sS'SLDA'
p12
I4
sS'NAYY'
p13
I1
sS'LPAE'
p14
I1
sS'EPEV'
p15
I1
sS'ATYL'
p16
I4
sS'EPER'
p17
I1
sS'SSPQ'
p18
I1
sS'VRTK'
p19
I5
sS'TINQ'
p20
I1
sS'FAQM'
p21
I1
sS'TTRR'
p22
I1
sS'EKDA'
p23
I1
sS'MGGE'
p24
I1
sS'EPEE'
p25
I1
sS'MSSQ'
p26
I6
sS'VRTV'
p27
I1
sS'NRTE'
p28
I4
sS'GVMC'
p29
I7
sS'AGLA'
p30
I6
sS'ENDV'
p31
I1
sS'RDWL'
p32
I5
sS'PADM'
p33
I1
sS'CTLE'
p34
I1
sS'EGPN'
p35
I1
sS'EGPD'
p36
I1
sS'QFGV'
p37
I2
sS'EGPA'
p38
I2
sS'GKRL'
p39
I1
sS'KLLF'
p40
I1
sS'ASSH'
p41
I1
sS'ASSG'
p42
I2
sS'REMS'
p43
I7
sS'PRPK'
p44
I1
sS'KLLV'
p45
I1
sS'ASST'
p46
I1
sS'IGGG'
p47
I1
sS'ASSS'
p48
I3
sS'EAEK'
p49
I1
sS'RTMA'
p50
I2
sS'GITA'
p51
I1
sS'SVRP'
p52
I1
sS'LAAE'
p53
I1
sS'GQER'
p54
I4
sS'GQEP'
p55
I2
sS'FFRV'
p56
I1
sS'EAER'
p57
I1
sS'EAET'
p58
I1
sS'ARRE'
p59
I4
sS'PWIQ'
p60
I4
sS'GGPT'
p61
I1
sS'IIAE'
p62
I1
sS'GMDG'
p63
I1
sS'LSTK'
p64
I1
sS'SFKM'
p65
I1
sS'MPLS'
p66
I1
sS'SFKK'
p67
I1
sS'DTKP'
p68
I1
sS'DQGG'
p69
I1
sS'YETK'
p70
I2
sS'GWIQ'
p71
I1
sS'AVVE'
p72
I1
sS'PQSL'
p73
I1
sS'PPNL'
p74
I1
sS'KSRL'
p75
I1
sS'NGLD'
p76
I1
sS'EPWI'
p77
I4
sS'EIRS'
p78
I1
sS'GARV'
p79
I2
sS'AIVS'
p80
I1
sS'LGTI'
p81
I1
sS'AVHA'
p82
I1
sS'RLLA'
p83
I2
sS'IGES'
p84
I1
sS'RLLG'
p85
I1
sS'RLLK'
p86
I1
sS'RRIG'
p87
I1
sS'LPSD'
p88
I2
sS'EDCL'
p89
I2
sS'RLLR'
p90
I1
sS'APDA'
p91
I2
sS'AVHR'
p92
I4
sS'LMYT'
p93
I1
sS'ERGL'
p94
I1
sS'LPSP'
p95
I1
sS'YFTY'
p96
I1
sS'QTIL'
p97
I1
sS'LPST'
p98
I5
sS'SPPE'
p99
I4
sS'SMDM'
p100
I1
sS'SPPG'
p101
I1
sS'SPPA'
p102
I1
sS'SPPC'
p103
I1
sS'FGLR'
p104
I2
sS'SPPT'
p105
I1
sS'GWGT'
p106
I1
sS'GWGS'
p107
I1
sS'SYPA'
p108
I1
sS'FGLK'
p109
I3
sS'DWYD'
p110
I1
sS'RPPP'
p111
I3
sS'VAPQ'
p112
I1
sS'VARP'
p113
I5
sS'ARTS'
p114
I5
sS'YGRE'
p115
I1
sS'TASL'
p116
I2
sS'VSEA'
p117
I3
sS'TASA'
p118
I2
sS'DPVA'
p119
I1
sS'PGGR'
p120
I1
sS'VLLA'
p121
I5
sS'IHYK'
p122
I7
sS'WIAQ'
p123
I1
sS'WDVG'
p124
I2
sS'LFYF'
p125
I1
sS'AIGK'
p126
I1
sS'AIGI'
p127
I1
sS'DIVH'
p128
I2
sS'GNHG'
p129
I1
sS'LASG'
p130
I1
sS'EGKR'
p131
I1
sS'ATEK'
p132
I1
sS'FVEL'
p133
I11
sS'TAED'
p134
I1
sS'AIGV'
p135
I1
sS'RYIV'
p136
I1
sS'EAKA'
p137
I2
sS'EVEE'
p138
I1
sS'QPSD'
p139
I1
sS'ALVG'
p140
I6
sS'RMVI'
p141
I1
sS'LQKA'
p142
I1
sS'AVAA'
p143
I1
sS'IWIA'
p144
I1
sS'SRRV'
p145
I1
sS'GPTS'
p146
I1
sS'PSEG'
p147
I1
sS'DVGD'
p148
I2
sS'PEEA'
p149
I1
sS'PEEE'
p150
I8
sS'PSEQ'
p151
I1
sS'AGLG'
p152
I2
sS'WDDF'
p153
I1
sS'VMCV'
p154
I7
sS'GPTL'
p155
I2
sS'KYIH'
p156
I7
sS'PEEV'
p157
I2
sS'PEET'
p158
I2
sS'ELYR'
p159
I3
sS'TEIE'
p160
I1
sS'AASR'
p161
I3
sS'SEME'
p162
I1
sS'QRGY'
p163
I7
sS'ELYG'
p164
I9
sS'PTSL'
p165
I1
sS'LDWY'
p166
I1
sS'AASA'
p167
I2
sS'SEMR'
p168
I1
sS'AASE'
p169
I1
sS'QRGW'
p170
I5
sS'AEEA'
p171
I2
sS'FRGR'
p172
I1
sS'AEEE'
p173
I3
sS'EVKA'
p174
I1
sS'FPGA'
p175
I1
sS'QPEH'
p176
I1
sS'EEAK'
p177
I2
sS'QPES'
p178
I4
sS'MQVL'
p179
I4
sS'YLSA'
p180
I1
sS'EEAA'
p181
I1
sS'SVNQ'
p182
I1
sS'RALE'
p183
I2
sS'EEAF'
p184
I1
sS'CEPE'
p185
I2
sS'VHRD'
p186
I4
sS'LQPA'
p187
I1
sS'AQLS'
p188
I1
sS'NRWF'
p189
I4
sS'AAAP'
p190
I2
sS'AAAS'
p191
I1
sS'RDTA'
p192
I1
sS'CTKV'
p193
I1
sS'ELKE'
p194
I1
sS'AAAA'
p195
I2
sS'ELKS'
p196
I1
sS'GIIA'
p197
I1
sS'AAAE'
p198
I4
sS'ELKT'
p199
I1
sS'DVKS'
p200
I5
sS'TLIS'
p201
I5
sS'WSMI'
p202
I1
sS'GAAQ'
p203
I1
sS'ASTK'
p204
I1
sS'VLSK'
p205
I1
sS'RELR'
p206
I1
sS'RELQ'
p207
I1
sS'RELV'
p208
I4
sS'EQPR'
p209
I1
sS'GAAA'
p210
I4
sS'KSEN'
p211
I2
sS'KSEI'
p212
I1
sS'ILAV'
p213
I2
sS'VLSY'
p214
I2
sS'HYLS'
p215
I1
sS'TTAS'
p216
I1
sS'NPEG'
p217
I1
sS'AYLI'
p218
I5
sS'FELR'
p219
I4
sS'DAKP'
p220
I3
sS'NPEV'
p221
I1
sS'IRSR'
p222
I1
sS'NPES'
p223
I2
sS'ESNR'
p224
I1
sS'ESNP'
p225
I3
sS'GPSV'
p226
I1
sS'DGSL'
p227
I5
sS'RRLL'
p228
I1
sS'FCEQ'
p229
I1
sS'PQGN'
p230
I1
sS'SWDD'
p231
I1
sS'PESN'
p232
I4
sS'PESP'
p233
I3
sS'PESS'
p234
I2
sS'LDIK'
p235
I5
sS'PESW'
p236
I2
sS'PQGP'
p237
I1
sS'LDIE'
p238
I1
sS'QQMK'
p239
I1
sS'PQGV'
p240
I1
sS'TPSA'
p241
I4
sS'EKKP'
p242
I1
sS'EISE'
p243
I1
sS'RRVA'
p244
I3
sS'GASL'
p245
I2
sS'ADNS'
p246
I1
sS'WKEH'
p247
I2
sS'KSSG'
p248
I2
sS'TPSP'
p249
I1
sS'TTSW'
p250
I2
sS'HRIR'
p251
I1
sS'TPST'
p252
I1
sS'TPSV'
p253
I1
sS'QTEP'
p254
I1
sS'GASS'
p255
I3
sS'KSSP'
p256
I1
sS'DEGM'
p257
I1
sS'GASV'
p258
I1
sS'GEKV'
p259
I1
sS'GEKS'
p260
I2
sS'AVGK'
p261
I1
sS'RNAV'
p262
I5
sS'VRLV'
p263
I1
sS'APGL'
p264
I2
sS'EMKP'
p265
I1
sS'ERFA'
p266
I1
sS'APGI'
p267
I2
sS'LPLL'
p268
I5
sS'TDRS'
p269
I1
sS'SLQT'
p270
I1
sS'APGA'
p271
I1
sS'SSQL'
p272
I6
sS'QENG'
p273
I4
sS'PAYR'
p274
I1
sS'GKSR'
p275
I1
sS'ISEA'
p276
I1
sS'EDPD'
p277
I2
sS'GKSI'
p278
I1
sS'RRLH'
p279
I1
sS'SSQP'
p280
I2
sS'EPDT'
p281
I1
sS'KVPE'
p282
I1
sS'SQMD'
p283
I1
sS'MEDC'
p284
I1
sS'VTIF'
p285
I1
sS'EATT'
p286
I1
sS'DAEE'
p287
I1
sS'FYFA'
p288
I1
sS'FFAA'
p289
I1
sS'TIMG'
p290
I1
sS'YFTH'
p291
I1
sS'RRSS'
p292
I1
sS'SAAA'
p293
I3
sS'EATA'
p294
I1
sS'KKLS'
p295
I1
sS'EFGG'
p296
I7
sS'DTGD'
p297
I1
sS'VKSL'
p298
I5
sS'TADN'
p299
I1
sS'PGTA'
p300
I4
sS'LAAG'
p301
I1
sS'KMME'
p302
I2
sS'QSNR'
p303
I4
sS'NTFR'
p304
I1
sS'AREE'
p305
I1
sS'ALQT'
p306
I1
sS'AREL'
p307
I1
sS'NIQG'
p308
I1
sS'KGLP'
p309
I1
sS'AREV'
p310
I4
sS'QPRG'
p311
I1
sS'ARER'
p312
I1
sS'TETL'
p313
I1
sS'ECLK'
p314
I1
sS'TGHS'
p315
I4
sS'ALQM'
p316
I1
sS'VEIR'
p317
I1
sS'EVVP'
p318
I1
sS'RKGQ'
p319
I4
sS'GSVF'
p320
I1
sS'FFSF'
p321
I4
sS'KMSQ'
p322
I3
sS'TRIY'
p323
I1
sS'TRIR'
p324
I2
sS'RMGG'
p325
I1
sS'PPAE'
p326
I4
sS'SPAN'
p327
I2
sS'GMEE'
p328
I1
sS'FTAR'
p329
I6
sS'VNGA'
p330
I4
sS'SPAG'
p331
I4
sS'PPAT'
p332
I1
sS'PPAS'
p333
I1
sS'PPAP'
p334
I1
sS'SPAS'
p335
I1
sS'SPAP'
p336
I1
sS'IKNE'
p337
I5
sS'SPAV'
p338
I4
sS'APSP'
p339
I1
sS'SPAT'
p340
I1
sS'KRNA'
p341
I3
sS'LTPF'
p342
I7
sS'SVIA'
p343
I1
sS'AGRT'
p344
I5
sS'ANSS'
p345
I1
sS'AGRR'
p346
I2
sS'ELVV'
p347
I4
sS'EVGG'
p348
I1
sS'QMKE'
p349
I2
sS'AGRM'
p350
I1
sS'YLRE'
p351
I5
sS'ALCV'
p352
I4
sS'PDTE'
p353
I1
sS'ALCT'
p354
I1
sS'ELVG'
p355
I3
sS'SDVE'
p356
I3
sS'SWSI'
p357
I1
sS'AQMS'
p358
I1
sS'RSWD'
p359
I1
sS'RSWA'
p360
I1
sS'SDVS'
p361
I1
sS'SRQA'
p362
I1
sS'NPTP'
p363
I2
sS'KGTE'
p364
I1
sS'DKST'
p365
I1
sS'GWDA'
p366
I7
sS'GWDG'
p367
I6
sS'FRVA'
p368
I1
sS'SMED'
p369
I1
sS'DLEG'
p370
I5
sS'SPGL'
p371
I2
sS'RLKS'
p372
I1
sS'TSEM'
p373
I1
sS'TMQP'
p374
I1
sS'GWDT'
p375
I4
sS'VASV'
p376
I1
sS'LLVP'
p377
I1
sS'PSRT'
p378
I1
sS'LGAG'
p379
I4
sS'PSRQ'
p380
I1
sS'EFVD'
p381
I1
sS'TARG'
p382
I5
sS'TARE'
p383
I1
sS'LIRT'
p384
I1
sS'AVPK'
p385
I1
sS'MPAV'
p386
I1
sS'TARR'
p387
I1
sS'TARP'
p388
I1
sS'AAPG'
p389
I1
sS'YRIA'
p390
I1
sS'QIAM'
p391
I2
sS'PLGK'
p392
I3
sS'AAPA'
p393
I3
sS'AAPL'
p394
I5
sS'RCAS'
p395
I1
sS'EILL'
p396
I1
sS'AAPP'
p397
I2
sS'VCGR'
p398
I2
sS'PLGG'
p399
I2
sS'DFLR'
p400
I1
sS'DFLS'
p401
I4
sS'GPAL'
p402
I3
sS'PLGF'
p403
I1
sS'PERE'
p404
I1
sS'THRI'
p405
I1
sS'GPAA'
p406
I2
sS'LREA'
p407
I4
sS'MVAA'
p408
I1
sS'DARR'
p409
I2
sS'AETI'
p410
I1
sS'GPAP'
p411
I1
sS'GPSP'
p412
I2
sS'AATR'
p413
I1
sS'LKTL'
p414
I5
sS'SIGE'
p415
I1
sS'SIGD'
p416
I1
sS'LKTI'
p417
I2
sS'VFSP'
p418
I2
sS'VDKE'
p419
I4
sS'MAAV'
p420
I4
sS'PSDN'
p421
I2
sS'MAAS'
p422
I2
sS'MAAR'
p423
I3
sS'QNGM'
p424
I1
sS'PSDV'
p425
I1
sS'SGNN'
p426
I1
sS'GPSG'
p427
I1
sS'GPSM'
p428
I4
sS'KRPA'
p429
I5
sS'EELS'
p430
I1
sS'SENN'
p431
I2
sS'AATT'
p432
I1
sS'ANAG'
p433
I1
sS'HHRP'
p434
I1
sS'HHRQ'
p435
I1
sS'EELF'
p436
I7
sS'EELD'
p437
I5
sS'EELE'
p438
I1
sS'EELK'
p439
I2
sS'EGLR'
p440
I1
sS'SSNT'
p441
I1
sS'EDSS'
p442
I1
sS'SWKE'
p443
I1
sS'SSNS'
p444
I2
sS'RRYR'
p445
I6
sS'FNWG'
p446
I1
sS'ISFS'
p447
I2
sS'EDSA'
p448
I1
sS'GASP'
p449
I3
sS'AMAS'
p450
I1
sS'TNPA'
p451
I1
sS'ISFG'
p452
I7
sS'EDSN'
p453
I2
sS'LPCG'
p454
I1
sS'SRKA'
p455
I3
sS'QFSD'
p456
I3
sS'MEEA'
p457
I1
sS'TILS'
p458
I2
sS'YFGT'
p459
I1
sS'SQNT'
p460
I1
sS'AGTR'
p461
I1
sS'PRLL'
p462
I1
sS'KVSQ'
p463
I1
sS'GSAG'
p464
I3
sS'GSAA'
p465
I1
sS'PRLD'
p466
I1
sS'DFMT'
p467
I1
sS'FHYE'
p468
I2
sS'GTYL'
p469
I1
sS'EEME'
p470
I3
sS'EGRQ'
p471
I1
sS'VILR'
p472
I1
sS'NFET'
p473
I1
sS'MSCD'
p474
I1
sS'SAPL'
p475
I1
sS'HITP'
p476
I4
sS'VLPL'
p477
I5
sS'VLPA'
p478
I1
sS'SVNR'
p479
I7
sS'HITA'
p480
I1
sS'VSPE'
p481
I1
sS'DTDR'
p482
I1
sS'DTDS'
p483
I1
sS'MGWT'
p484
I1
sS'PLLE'
p485
I5
sS'SAPP'
p486
I1
sS'SAPS'
p487
I1
sS'CTVE'
p488
I1
sS'RIVA'
p489
I11
sS'ITAE'
p490
I1
sS'SHHR'
p491
I1
sS'RVSQ'
p492
I1
sS'LVAN'
p493
I1
sS'RIVT'
p494
I5
sS'SHHG'
p495
I1
sS'ITAT'
p496
I1
sS'LVAT'
p497
I1
sS'LVAV'
p498
I1
sS'VYTS'
p499
I1
sS'MRQA'
p500
I1
sS'LLER'
p501
I2
sS'RMFG'
p502
I4
sS'SDIV'
p503
I2
sS'DLTS'
p504
I4
sS'RTKR'
p505
I5
sS'VTAS'
p506
I2
sS'PPST'
p507
I1
sS'VTAR'
p508
I1
sS'SFEQ'
p509
I4
sS'LLEL'
p510
I5
sS'DEFS'
p511
I1
sS'QTIP'
p512
I1
sS'NGAT'
p513
I4
sS'PPPP'
p514
I4
sS'DEFV'
p515
I1
sS'GMTV'
p516
I3
sS'NGAG'
p517
I1
sS'QLHI'
p518
I4
sS'PPPA'
p519
I4
sS'DEFE'
p520
I4
sS'GALC'
p521
I4
sS'GALL'
p522
I1
sS'RLLF'
p523
I1
sS'SAEL'
p524
I1
sS'GMTL'
p525
I1
sS'DEFN'
p526
I1
sS'NSLT'
p527
I1
sS'RRKQ'
p528
I1
sS'EDEL'
p529
I3
sS'TDSP'
p530
I1
sS'ERET'
p531
I2
sS'EPQG'
p532
I1
sS'EEMA'
p533
I2
sS'SQPV'
p534
I2
sS'HMAS'
p535
I1
sS'EFFH'
p536
I5
sS'TVTI'
p537
I1
sS'IGGS'
p538
I3
sS'MRQS'
p539
I1
sS'FTAH'
p540
I1
sS'RPSP'
p541
I2
sS'SLPS'
p542
I5
sS'SQPG'
p543
I2
sS'RRKM'
p544
I1
sS'SLPV'
p545
I4
sS'VART'
p546
I1
sS'SDGV'
p547
I3
sS'SPVF'
p548
I2
sS'TDQC'
p549
I1
sS'LLWD'
p550
I1
sS'VPPE'
p551
I2
sS'SPVP'
p552
I6
sS'RLLL'
p553
I1
sS'VQKE'
p554
I1
sS'SDGN'
p555
I1
sS'PPGA'
p556
I2
sS'QPGH'
p557
I1
sS'PGAA'
p558
I4
sS'WKKM'
p559
I1
sS'LGRG'
p560
I1
sS'PGAP'
p561
I1
sS'EHAA'
p562
I1
sS'PGAR'
p563
I2
sS'EMFE'
p564
I1
sS'IMKT'
p565
I1
sS'AVTA'
p566
I1
sS'ATGE'
p567
I1
sS'DIKN'
p568
I5
sS'ATGH'
p569
I4
sS'ATGS'
p570
I2
sS'RRAA'
p571
I1
sS'RGSS'
p572
I1
sS'KKMG'
p573
I1
sS'KKMA'
p574
I1
sS'WIQE'
p575
I4
sS'WIQD'
p576
I8
sS'IAED'
p577
I1
sS'IIFS'
p578
I1
sS'LGAY'
p579
I6
sS'EAIG'
p580
I1
sS'IVCG'
p581
I1
sS'ALPE'
p582
I1
sS'RERL'
p583
I1
sS'YIIQ'
p584
I1
sS'FMRR'
p585
I1
sS'LGAA'
p586
I3
sS'LVVD'
p587
I4
sS'IWKK'
p588
I1
sS'GLNL'
p589
I4
sS'SWTR'
p590
I1
sS'DRSP'
p591
I1
sS'FATR'
p592
I1
sS'FATV'
p593
I6
sS'KPMG'
p594
I1
sS'PSGS'
p595
I1
sS'KGQE'
p596
I4
sS'KEEV'
p597
I2
sS'ALLL'
p598
I1
sS'AEYI'
p599
I1
sS'TDVL'
p600
I5
sS'MCVE'
p601
I7
sS'NVSA'
p602
I1
sS'ALLS'
p603
I2
sS'AGSG'
p604
I3
sS'ALLQ'
p605
I1
sS'ALLP'
p606
I2
sS'PLLT'
p607
I1
sS'VPKI'
p608
I1
sS'PLLP'
p609
I1
sS'AYRR'
p610
I1
sS'KISF'
p611
I1
sS'VETA'
p612
I1
sS'WDTF'
p613
I4
sS'AGSR'
p614
I1
sS'KPMP'
p615
I1
sS'LTQV'
p616
I1
sS'EVIP'
p617
I4
sS'AYRE'
p618
I1
sS'EVIT'
p619
I1
sS'AEKV'
p620
I1
sS'AEKT'
p621
I1
sS'QPGR'
p622
I1
sS'TEYL'
p623
I7
sS'SKDS'
p624
I1
sS'YQEV'
p625
I1
sS'STPP'
p626
I5
sS'YGNS'
p627
I1
sS'MQTI'
p628
I1
sS'STLT'
p629
I1
sS'SKDA'
p630
I1
sS'YGNN'
p631
I4
sS'LHIT'
p632
I4
sS'QIPE'
p633
I1
sS'SPPP'
p634
I1
sS'LDKE'
p635
I2
sS'METP'
p636
I1
sS'VTYQ'
p637
I1
sS'SPPS'
p638
I1
sS'FHVE'
p639
I3
sS'VTYE'
p640
I1
sS'KNEN'
p641
I1
sS'GDAG'
p642
I1
sS'GDAD'
p643
I1
sS'KNED'
p644
I3
sS'VTYL'
p645
I1
sS'KNEG'
p646
I1
sS'FHVQ'
p647
I2
sS'GIKG'
p648
I1
sS'CVES'
p649
I11
sS'ASVV'
p650
I1
sS'DAGA'
p651
I1
sS'GACI'
p652
I7
sS'HTES'
p653
I2
sS'DTEV'
p654
I1
sS'ASVI'
p655
I1
sS'DAIM'
p656
I3
sS'AHLG'
p657
I2
sS'YQDV'
p658
I1
sS'EQLL'
p659
I2
sS'AAQL'
p660
I1
sS'EGAA'
p661
I1
sS'AAQR'
p662
I1
sS'SKRP'
p663
I1
sS'FENF'
p664
I1
sS'MATS'
p665
I1
sS'RPLV'
p666
I2
sS'SSAP'
p667
I1
sS'LKAL'
p668
I3
sS'MATY'
p669
I4
sS'MATG'
p670
I1
sS'DFMK'
p671
I1
sS'RPLF'
p672
I6
sS'KDSK'
p673
I1
sS'SSAE'
p674
I1
sS'YGRL'
p675
I2
sS'WWDR'
p676
I1
sS'NELF'
p677
I4
sS'FDTD'
p678
I1
sS'HPGR'
p679
I1
sS'KQMK'
p680
I1
sS'PRMV'
p681
I1
sS'EKEK'
p682
I1
sS'KLGQ'
p683
I1
sS'EKEI'
p684
I1
sS'CEQL'
p685
I1
sS'GQVR'
p686
I2
sS'GQVS'
p687
I2
sS'EKEE'
p688
I2
sS'REPD'
p689
I1
sS'DSFK'
p690
I1
sS'GGAA'
p691
I2
sS'EWDA'
p692
I3
sS'AVEI'
p693
I1
sS'EPPG'
p694
I1
sS'ATTR'
p695
I1
sS'GGAG'
p696
I4
sS'EDDL'
p697
I1
sS'GGAL'
p698
I4
sS'EDDE'
p699
I2
sS'IEDC'
p700
I1
sS'ATTG'
p701
I2
sS'ATTE'
p702
I1
sS'YPAG'
p703
I1
sS'RPPV'
p704
I1
sS'RGLG'
p705
I1
sS'EWDV'
p706
I2
sS'AVER'
p707
I1
sS'RRDF'
p708
I6
sS'STRR'
p709
I1
sS'EDDV'
p710
I3
sS'QELK'
p711
I1
sS'GVNW'
p712
I11
sS'RIAQ'
p713
I1
sS'IQGF'
p714
I1
sS'KDAE'
p715
I2
sS'EDRP'
p716
I1
sS'SWHL'
p717
I4
sS'IHVF'
p718
I1
sS'GPNV'
p719
I1
sS'SLAL'
p720
I6
sS'SWHT'
p721
I2
sS'CQAF'
p722
I1
sS'QELR'
p723
I1
sS'NSSN'
p724
I3
sS'GPGM'
p725
I1
sS'PPQL'
p726
I1
sS'LAPP'
p727
I2
sS'RIGD'
p728
I2
sS'ITVE'
p729
I1
sS'VIAV'
p730
I1
sS'NSSQ'
p731
I1
sS'RGRF'
p732
I5
sS'EKRH'
p733
I1
sS'QTDQ'
p734
I1
sS'ERRL'
p735
I2
sS'VKQR'
p736
I5
sS'TDFG'
p737
I1
sS'PGVQ'
p738
I1
sS'RGRS'
p739
I1
sS'PGVH'
p740
I1
sS'HLHN'
p741
I1
sS'REGG'
p742
I3
sS'AADA'
p743
I3
sS'VKQA'
p744
I4
sS'QPTS'
p745
I1
sS'VEEV'
p746
I1
sS'YIVR'
p747
I1
sS'RVFQ'
p748
I1
sS'LALD'
p749
I1
sS'YLNR'
p750
I7
sS'ALSP'
p751
I3
sS'RHTS'
p752
I1
sS'LLLQ'
p753
I1
sS'VEEL'
p754
I8
sS'CITL'
p755
I7
sS'RVFL'
p756
I1
sS'LALV'
p757
I6
sS'LALR'
p758
I3
sS'DAGD'
p759
I3
sS'VEKS'
p760
I1
sS'FVVD'
p761
I2
sS'PMPA'
p762
I1
sS'VEKE'
p763
I2
sS'IATW'
p764
I2
sS'SPGP'
p765
I1
sS'DSPA'
p766
I4
sS'KEAS'
p767
I1
sS'TMAT'
p768
I2
sS'DNIA'
p769
I6
sS'GMGE'
p770
I1
sS'RMIA'
p771
I1
sS'YQAA'
p772
I1
sS'LLFF'
p773
I2
sS'LLFG'
p774
I2
sS'SFDT'
p775
I1
sS'PPCQ'
p776
I1
sS'GWTL'
p777
I1
sS'PPCR'
p778
I1
sS'RQAP'
p779
I1
sS'RQAS'
p780
I1
sS'PDVT'
p781
I4
sS'LTRR'
p782
I2
sS'FVEF'
p783
I5
sS'PVTY'
p784
I2
sS'QRVG'
p785
I1
sS'RQAE'
p786
I1
sS'KPLG'
p787
I4
sS'RQAG'
p788
I3
sS'SRSS'
p789
I1
sS'STKD'
p790
I1
sS'RPEP'
p791
I1
sS'NNSS'
p792
I2
sS'STKK'
p793
I1
sS'SRSA'
p794
I1
sS'VAGV'
p795
I9
sS'IKTR'
p796
I2
sS'DNGG'
p797
I7
sS'GCEP'
p798
I2
sS'QGVQ'
p799
I1
sS'LQHL'
p800
I1
sS'VWRM'
p801
I1
sS'LWDA'
p802
I1
sS'WEEP'
p803
I2
sS'LELT'
p804
I2
sS'LELV'
p805
I3
sS'PSTP'
p806
I6
sS'QAFR'
p807
I1
sS'FGIN'
p808
I1
sS'QTVG'
p809
I1
sS'KTLL'
p810
I4
sS'RASP'
p811
I1
sS'GEQP'
p812
I1
sS'KTLD'
p813
I1
sS'QAFN'
p814
I1
sS'DIAS'
p815
I1
sS'PSTL'
p816
I1
sS'FIQD'
p817
I1
sS'FKMT'
p818
I1
sS'VAIG'
p819
I1
sS'SYGR'
p820
I2
sS'NLYC'
p821
I4
sS'ESIT'
p822
I4
sS'VAIL'
p823
I2
sS'ASEV'
p824
I1
sS'ASEK'
p825
I1
sS'QNGL'
p826
I1
sS'ESID'
p827
I1
sS'WDAF'
p828
I7
sS'PGLP'
p829
I1
sS'WDAG'
p830
I3
sS'INGN'
p831
I4
sS'PEPL'
p832
I3
sS'KAVL'
p833
I1
sS'FSLE'
p834
I2
sS'RHLH'
p835
I7
sS'PQDA'
p836
I1
sS'QSFE'
p837
I4
sS'LRKK'
p838
I1
sS'PEPP'
p839
I1
sS'GRMM'
p840
I1
sS'QATG'
p841
I5
sS'SIIG'
p842
I1
sS'MTEY'
p843
I7
sS'DRPP'
p844
I1
sS'GRMG'
p845
I1
sS'TWIQ'
p846
I6
sS'SNPT'
p847
I2
sS'SNPM'
p848
I1
sS'QMDG'
p849
I1
sS'KQNR'
p850
I1
sS'LFRD'
p851
I11
sS'LKVK'
p852
I1
sS'RQSW'
p853
I1
sS'DPDV'
p854
I2
sS'RQSS'
p855
I1
sS'VVDF'
p856
I4
sS'DLPS'
p857
I1
sS'IRNV'
p858
I5
sS'WTRV'
p859
I1
sS'VVDY'
p860
I2
sS'SGLP'
p861
I1
sS'QRDF'
p862
I1
sS'TYRI'
p863
I1
sS'QDAS'
p864
I1
sS'IVTL'
p865
I5
sS'KEKD'
p866
I1
sS'IQDN'
p867
I7
sS'REAG'
p868
I4
sS'APTP'
p869
I4
sS'GVAL'
p870
I2
sS'AEVP'
p871
I1
sS'EPAD'
p872
I1
sS'SRRY'
p873
I7
sS'SSLD'
p874
I4
sS'IQDR'
p875
I1
sS'IQDQ'
p876
I1
sS'SSLL'
p877
I1
sS'EKTS'
p878
I1
sS'GDVK'
p879
I1
sS'GIFS'
p880
I5
sS'VTLI'
p881
I5
sS'PEEM'
p882
I4
sS'GDVG'
p883
I1
sS'GDVD'
p884
I2
sS'GSGK'
p885
I1
sS'DFAQ'
p886
I1
sS'VPTV'
p887
I1
sS'TVVE'
p888
I6
sS'GSGA'
p889
I1
sS'GSGG'
p890
I3
sS'GSGE'
p891
I1
sS'NFGM'
p892
I1
sS'TLLS'
p893
I5
sS'DPVP'
p894
I1
sS'RFAT'
p895
I6
sS'AALL'
p896
I2
sS'VHVF'
p897
I3
sS'AGVG'
p898
I5
sS'VLVR'
p899
I5
sS'VLVS'
p900
I4
sS'EGTE'
p901
I2
sS'QIMK'
p902
I1
sS'TVHA'
p903
I1
sS'DAFV'
p904
I7
sS'QKAL'
p905
I1
sS'WDRN'
p906
I1
sS'LSYF'
p907
I1
sS'VLVG'
p908
I1
sS'DTFV'
p909
I4
sS'LSYK'
p910
I4
sS'LSYL'
p911
I2
sS'TEDD'
p912
I1
sS'LVLK'
p913
I1
sS'IVSP'
p914
I1
sS'MSYG'
p915
I2
sS'EAYR'
p916
I1
sS'GPTM'
p917
I1
sS'ETKY'
p918
I2
sS'TRLA'
p919
I1
sS'WADF'
p920
I1
sS'CIEP'
p921
I4
sS'SPFR'
p922
I1
sS'RMHM'
p923
I1
sS'LSEG'
p924
I1
sS'LSEC'
p925
I1
sS'DQCP'
p926
I1
sS'DSSG'
p927
I1
sS'LLGS'
p928
I4
sS'SFGA'
p929
I5
sS'SFGG'
p930
I6
sS'LLGW'
p931
I1
sS'LSEK'
p932
I1
sS'TPHP'
p933
I1
sS'GAGG'
p934
I2
sS'DSSS'
p935
I1
sS'DSAP'
p936
I1
sS'SQSN'
p937
I4
sS'EIVL'
p938
I1
sS'EIVM'
p939
I6
sS'TTVH'
p940
I1
sS'HRDM'
p941
I3
sS'WQQI'
p942
I2
sS'GAAS'
p943
I1
sS'YLIR'
p944
I5
sS'EVVQ'
p945
I1
sS'HRDT'
p946
I1
sS'GMVA'
p947
I1
sS'AVDT'
p948
I1
sS'SLNP'
p949
I1
sS'IGAS'
p950
I1
sS'RREV'
p951
I1
sS'EPSE'
p952
I1
sS'VAEE'
p953
I1
sS'ESAE'
p954
I1
sS'RREI'
p955
I1
sS'RREG'
p956
I3
sS'IGAG'
p957
I1
sS'PTSS'
p958
I2
sS'EPSP'
p959
I1
sS'ATWM'
p960
I2
sS'IPMA'
p961
I4
sS'DSKP'
p962
I1
sS'VATT'
p963
I2
sS'LQGF'
p964
I1
sS'TIWK'
p965
I1
sS'SFQP'
p966
I4
sS'LESE'
p967
I1
sS'VATA'
p968
I1
sS'SDEF'
p969
I1
sS'IFMR'
p970
I1
sS'SPTP'
p971
I2
sS'LQGQ'
p972
I2
sS'SPTV'
p973
I2
sS'QAGR'
p974
I4
sS'TQVP'
p975
I1
sS'QAGD'
p976
I3
sS'GERV'
p977
I1
sS'RGYD'
p978
I2
sS'PSWH'
p979
I4
sS'RDFA'
p980
I7
sS'AVRG'
p981
I1
sS'NAAA'
p982
I4
sS'RGQE'
p983
I2
sS'TSTG'
p984
I2
sS'TSTD'
p985
I1
sS'EFEP'
p986
I1
sS'ATAG'
p987
I1
sS'MFSD'
p988
I1
sS'EFEL'
p989
I4
sS'KQPS'
p990
I1
sS'MFSL'
p991
I1
sS'MKYI'
p992
I6
sS'MYTS'
p993
I1
sS'SGAD'
p994
I2
sS'IVAT'
p995
I2
sS'TGMT'
p996
I4
sS'ALRQ'
p997
I1
sS'PELA'
p998
I1
sS'ALRR'
p999
I1
sS'WISL'
p1000
I1
sS'IVAF'
p1001
I11
sS'ALRK'
p1002
I1
sS'TAAR'
p1003
I1
sS'FVAV'
p1004
I1
sS'VEDL'
p1005
I3
sS'ALRE'
p1006
I4
sS'RTGY'
p1007
I5
sS'MKEF'
p1008
I1
sS'GNPE'
p1009
I1
sS'MKED'
p1010
I2
sS'SQKG'
p1011
I4
sS'GLLW'
p1012
I1
sS'PEAV'
p1013
I1
sS'LFSR'
p1014
I4
sS'PEAP'
p1015
I1
sS'DAST'
p1016
I1
sS'CHTS'
p1017
I1
sS'GLAY'
p1018
I5
sS'GNPS'
p1019
I4
sS'PEAI'
p1020
I1
sS'VDNI'
p1021
I6
sS'VNWG'
p1022
I11
sS'PNNF'
p1023
I1
sS'WFLT'
p1024
I4
sS'SNSD'
p1025
I2
sS'DEEE'
p1026
I1
sS'AEEG'
p1027
I1
sS'GYDN'
p1028
I7
sS'DPEE'
p1029
I2
sS'GYDW'
p1030
I1
sS'EKEA'
p1031
I1
sS'SEIE'
p1032
I1
sS'SGAA'
p1033
I1
sS'TYQA'
p1034
I1
sS'HEMM'
p1035
I2
sS'QDVV'
p1036
I1
sS'VLLR'
p1037
I1
sS'LTSQ'
p1038
I4
sS'SPEE'
p1039
I5
sS'ANPE'
p1040
I2
sS'HMEM'
p1041
I1
sS'LHKA'
p1042
I1
sS'FGVT'
p1043
I1
sS'VAFF'
p1044
I11
sS'SYFG'
p1045
I1
sS'FGVM'
p1046
I1
sS'LEAV'
p1047
I1
sS'LHKS'
p1048
I1
sS'HLAL'
p1049
I1
sS'SMRP'
p1050
I5
sS'SMRQ'
p1051
I1
sS'RDPV'
p1052
I1
sS'EEYP'
p1053
I2
sS'GKAV'
p1054
I1
sS'AYLG'
p1055
I6
sS'GDGP'
p1056
I1
sS'EVKS'
p1057
I2
sS'EQPT'
p1058
I1
sS'CDKS'
p1059
I1
sS'EASA'
p1060
I1
sS'WMAT'
p1061
I4
sS'DVGA'
p1062
I1
sS'HAAE'
p1063
I1
sS'VRGA'
p1064
I1
sS'TTEP'
p1065
I1
sS'SASQ'
p1066
I2
sS'AQTD'
p1067
I1
sS'VLLG'
p1068
I4
sS'HTGE'
p1069
I1
sS'RHSS'
p1070
I1
sS'PHPA'
p1071
I1
sS'DAEP'
p1072
I1
sS'RPPQ'
p1073
I1
sS'EWDT'
p1074
I1
sS'WSQF'
p1075
I4
sS'EYPG'
p1076
I2
sS'IRMF'
p1077
I4
sS'YGPT'
p1078
I1
sS'HASG'
p1079
I2
sS'NPAY'
p1080
I1
sS'GEMK'
p1081
I2
sS'MRVM'
p1082
I1
sS'SKPL'
p1083
I1
sS'SRDP'
p1084
I1
sS'LGEK'
p1085
I1
sS'RHME'
p1086
I1
sS'FSSQ'
p1087
I1
sS'MTVA'
p1088
I3
sS'FLTG'
p1089
I4
sS'WDTG'
p1090
I1
sS'NWKE'
p1091
I1
sS'SGSG'
p1092
I1
sS'SNME'
p1093
I1
sS'DSRR'
p1094
I1
sS'LISF'
p1095
I7
sS'EIWI'
p1096
I1
sS'ESVD'
p1097
I4
sS'ESVE'
p1098
I1
sS'NEND'
p1099
I1
sS'ESVN'
p1100
I7
sS'NGNP'
p1101
I4
sS'SAER'
p1102
I3
sS'PFRG'
p1103
I1
sS'PPSE'
p1104
I1
sS'SAEY'
p1105
I1
sS'VNQE'
p1106
I1
sS'KDAK'
p1107
I3
sS'RERF'
p1108
I1
sS'EPRL'
p1109
I1
sS'TFVD'
p1110
I2
sS'TFVE'
p1111
I2
sS'MDPE'
p1112
I2
sS'ATVV'
p1113
I6
sS'EPRF'
p1114
I1
sS'LPHI'
p1115
I1
sS'PIVA'
p1116
I2
sS'RLIG'
p1117
I2
sS'TDVE'
p1118
I1
sS'FNRW'
p1119
I4
sS'LKMF'
p1120
I1
sS'KSAG'
p1121
I1
sS'NQES'
p1122
I5
sS'GPLA'
p1123
I1
sS'QERF'
p1124
I4
sS'LHTW'
p1125
I6
sS'SSME'
p1126
I1
sS'IQEN'
p1127
I4
sS'PCQA'
p1128
I1
sS'AMDP'
p1129
I2
sS'RRTM'
p1130
I2
sS'RIAS'
p1131
I2
sS'RIAT'
p1132
I1
sS'PVSL'
p1133
I4
sS'EQHL'
p1134
I1
sS'RIAA'
p1135
I1
sS'KMVD'
p1136
I1
sS'ITPG'
p1137
I4
sS'ETIT'
p1138
I1
sS'KQQG'
p1139
I1
sS'ERPP'
p1140
I1
sS'QGFI'
p1141
I1
sS'GEAS'
p1142
I2
sS'GEAP'
p1143
I1
sS'EMEG'
p1144
I2
sS'APMS'
p1145
I1
sS'EMEA'
p1146
I1
sS'GEAG'
p1147
I5
sS'SDAQ'
p1148
I1
sS'KALC'
p1149
I1
sS'GEAA'
p1150
I3
sS'NMEL'
p1151
I1
sS'EMET'
p1152
I1
sS'TSWQ'
p1153
I2
sS'QGFV'
p1154
I1
sS'PGPF'
p1155
I1
sS'KALE'
p1156
I3
sS'ITLG'
p1157
I7
sS'QVVN'
p1158
I3
sS'EALP'
p1159
I1
sS'KKHA'
p1160
I1
sS'AAAV'
p1161
I3
sS'QPVT'
p1162
I2
sS'RKQN'
p1163
I1
sS'WTLD'
p1164
I1
sS'PASE'
p1165
I1
sS'INQE'
p1166
I4
sS'LVLL'
p1167
I2
sS'RISF'
p1168
I1
sS'SQSL'
p1169
I1
sS'VKAA'
p1170
I1
sS'FTDV'
p1171
I1
sS'NSGQ'
p1172
I2
sS'SQSW'
p1173
I2
sS'RTVG'
p1174
I1
sS'PASP'
p1175
I1
sS'TLQR'
p1176
I1
sS'IVRL'
p1177
I1
sS'LVLV'
p1178
I1
sS'LNDH'
p1179
I4
sS'VLKA'
p1180
I1
sS'RVVA'
p1181
I3
sS'KYVV'
p1182
I2
sS'LGPE'
p1183
I2
sS'PPEE'
p1184
I6
sS'GKQM'
p1185
I1
sS'YYAR'
p1186
I1
sS'GLDW'
p1187
I1
sS'PPES'
p1188
I2
sS'GAYL'
p1189
I6
sS'LGPS'
p1190
I1
sS'VLKY'
p1191
I1
sS'AAAG'
p1192
I3
sS'LERV'
p1193
I2
sS'VGES'
p1194
I1
sS'AYQS'
p1195
I4
sS'SVEL'
p1196
I1
sS'AAAI'
p1197
I2
sS'SHQQ'
p1198
I1
sS'AENF'
p1199
I1
sS'VGEA'
p1200
I2
sS'FSFQ'
p1201
I4
sS'QDQG'
p1202
I1
sS'LQTE'
p1203
I1
sS'RSSS'
p1204
I1
sS'LQTI'
p1205
I1
sS'LNRH'
p1206
I7
sS'LQTP'
p1207
I1
sS'KEVS'
p1208
I1
sS'RSSL'
p1209
I1
sS'DDLY'
p1210
I1
sS'PVVH'
p1211
I6
sS'LQFG'
p1212
I2
sS'GQLH'
p1213
I1
sS'VHAS'
p1214
I2
sS'AFFS'
p1215
I4
sS'GAAP'
p1216
I7
sS'GESG'
p1217
I1
sS'AFFE'
p1218
I7
sS'VQLD'
p1219
I2
sS'FGGM'
p1220
I1
sS'GESI'
p1221
I1
sS'GNAQ'
p1222
I1
sS'APTR'
p1223
I1
sS'FAGV'
p1224
I5
sS'QTPA'
p1225
I1
sS'PSVR'
p1226
I1
sS'QGPL'
p1227
I1
sS'FGGA'
p1228
I6
sS'LAPD'
p1229
I2
sS'HLTL'
p1230
I6
sS'MKTG'
p1231
I1
sS'QTPS'
p1232
I1
sS'FGGV'
p1233
I7
sS'PSVF'
p1234
I1
sS'STGF'
p1235
I2
sS'EGDS'
p1236
I1
sS'EGDV'
p1237
I1
sS'EEHA'
p1238
I1
sS'VAKH'
p1239
I5
sS'HVFK'
p1240
I2
sS'KHHR'
p1241
I1
sS'HVFS'
p1242
I3
sS'RVMG'
p1243
I1
sS'RSAP'
p1244
I1
sS'FSRV'
p1245
I2
sS'FNAY'
p1246
I1
sS'FSRR'
p1247
I7
sS'DGVN'
p1248
I11
sS'DGVQ'
p1249
I6
sS'KLKS'
p1250
I1
sS'DGVT'
p1251
I5
sS'ASGW'
p1252
I2
sS'EAAL'
p1253
I2
sS'GAAG'
p1254
I2
sS'FSRK'
p1255
I4
sS'SGPG'
p1256
I2
sS'RVMT'
p1257
I1
sS'FSLK'
p1258
I1
sS'HLHT'
p1259
I6
sS'FQPE'
p1260
I4
sS'GNSM'
p1261
I1
sS'AKPL'
p1262
I3
sS'GNSS'
p1263
I1
sS'FLGI'
p1264
I1
sS'GFVE'
p1265
I5
sS'ASTR'
p1266
I1
sS'HQQE'
p1267
I1
sS'GFDR'
p1268
I1
sS'SNRE'
p1269
I4
sS'YDWA'
p1270
I1
sS'YDWE'
p1271
I1
sS'GFDC'
p1272
I1
sS'TGPT'
p1273
I2
sS'SNRT'
p1274
I1
sS'GTVF'
p1275
I1
sS'LPDG'
p1276
I1
sS'FGGF'
p1277
I1
sS'VDSF'
p1278
I1
sS'INSD'
p1279
I1
sS'HLTP'
p1280
I7
sS'VDSM'
p1281
I1
sS'RPAV'
p1282
I5
sS'LKLK'
p1283
I1
sS'RPAP'
p1284
I1
sS'VDSI'
p1285
I1
sS'QESF'
p1286
I1
sS'PCPM'
p1287
I1
sS'DMAA'
p1288
I3
sS'QESC'
p1289
I4
sS'VFKD'
p1290
I2
sS'DVVR'
p1291
I1
sS'EKVS'
p1292
I1
sS'IEEE'
p1293
I2
sS'RECT'
p1294
I2
sS'ASAR'
p1295
I1
sS'VPRI'
p1296
I1
sS'TYLN'
p1297
I4
sS'WMTE'
p1298
I7
sS'TYLE'
p1299
I1
sS'TYLG'
p1300
I1
sS'IVGV'
p1301
I1
sS'TVTT'
p1302
I2
sS'PVPP'
p1303
I8
sS'AING'
p1304
I4
sS'VIRT'
p1305
I1
sS'PTDF'
p1306
I1
sS'MSIG'
p1307
I2
sS'PALS'
p1308
I3
sS'GVQL'
p1309
I2
sS'VVPA'
p1310
I1
sS'AERG'
p1311
I1
sS'VPDV'
p1312
I1
sS'GVQK'
p1313
I1
sS'GFVA'
p1314
I1
sS'AEPN'
p1315
I1
sS'YSWS'
p1316
I4
sS'EEVP'
p1317
I2
sS'YTSL'
p1318
I2
sS'YDAP'
p1319
I1
sS'AERP'
p1320
I1
sS'AERR'
p1321
I2
sS'EEVK'
p1322
I3
sS'VIPM'
p1323
I4
sS'KPVP'
p1324
I1
sS'GVQP'
p1325
I1
sS'YLGH'
p1326
I7
sS'GVQR'
p1327
I5
sS'GFVV'
p1328
I2
sS'SATP'
p1329
I1
sS'GRRA'
p1330
I2
sS'DADA'
p1331
I1
sS'ENNS'
p1332
I2
sS'ESEE'
p1333
I1
sS'LQML'
p1334
I1
sS'ESEA'
p1335
I1
sS'IFEK'
p1336
I2
sS'ESEM'
p1337
I1
sS'KLVL'
p1338
I1
sS'TVFS'
p1339
I1
sS'ERAG'
p1340
I1
sS'PARE'
p1341
I1
sS'ERAE'
p1342
I2
sS'IASW'
p1343
I2
sS'MHMA'
p1344
I1
sS'RIRN'
p1345
I1
sS'PARL'
p1346
I1
sS'LFIK'
p1347
I2
sS'DGSG'
p1348
I1
sS'TLRR'
p1349
I8
sS'TLRQ'
p1350
I2
sS'RRGQ'
p1351
I2
sS'GTAT'
p1352
I1
sS'RIRQ'
p1353
I2
sS'GTAY'
p1354
I4
sS'RRGY'
p1355
I1
sS'GRRK'
p1356
I1
sS'KRLK'
p1357
I1
sS'ADGS'
p1358
I2
sS'LGSL'
p1359
I4
sS'PRFN'
p1360
I1
sS'PMSC'
p1361
I1
sS'AGDA'
p1362
I2
sS'DSMD'
p1363
I1
sS'PMSY'
p1364
I2
sS'PFAT'
p1365
I1
sS'HYET'
p1366
I2
sS'KLDI'
p1367
I5
sS'WQSE'
p1368
I2
sS'DSCP'
p1369
I1
sS'GVVV'
p1370
I1
sS'ESWQ'
p1371
I2
sS'VEEN'
p1372
I4
sS'GQQM'
p1373
I1
sS'NGME'
p1374
I1
sS'NAQT'
p1375
I1
sS'QEAL'
p1376
I1
sS'VNRE'
p1377
I7
sS'MTRC'
p1378
I1
sS'QLDI'
p1379
I1
sS'SLLS'
p1380
I1
sS'ISLK'
p1381
I1
sS'ATQM'
p1382
I1
sS'RGAK'
p1383
I1
sS'SLLG'
p1384
I1
sS'GVVL'
p1385
I4
sS'LGEA'
p1386
I2
sS'SFSL'
p1387
I2
sS'PDGV'
p1388
I1
sS'LGEE'
p1389
I1
sS'CPHG'
p1390
I1
sS'LQEA'
p1391
I1
sS'VGVA'
p1392
I1
sS'VAVV'
p1393
I1
sS'LLKL'
p1394
I1
sS'LGER'
p1395
I1
sS'TPDS'
p1396
I1
sS'VGVV'
p1397
I1
sS'GMLR'
p1398
I5
sS'LQEQ'
p1399
I1
sS'SFSR'
p1400
I2
sS'VAVG'
p1401
I2
sS'KEFL'
p1402
I1
sS'MIAA'
p1403
I1
sS'QNTF'
p1404
I1
sS'TQTP'
p1405
I1
sS'SARR'
p1406
I1
sS'ESGN'
p1407
I1
sS'LYGP'
p1408
I6
sS'QGQV'
p1409
I2
sS'QSES'
p1410
I2
sS'EFII'
p1411
I1
sS'PGLL'
p1412
I3
sS'QGGW'
p1413
I3
sS'KQRG'
p1414
I5
sS'RYGR'
p1415
I1
sS'APLR'
p1416
I1
sS'RGWD'
p1417
I5
sS'GNNT'
p1418
I1
sS'QSSS'
p1419
I1
sS'LTNP'
p1420
I1
sS'APLL'
p1421
I2
sS'GNNA'
p1422
I4
sS'AVPP'
p1423
I2
sS'MFQI'
p1424
I1
sS'APLG'
p1425
I3
sS'APLE'
p1426
I1
sS'SECD'
p1427
I1
sS'RNHE'
p1428
I5
sS'TDGS'
p1429
I2
sS'PGSA'
p1430
I1
sS'RVIV'
p1431
I1
sS'FSLY'
p1432
I2
sS'RTEA'
p1433
I4
sS'HLKS'
p1434
I4
sS'SLVL'
p1435
I1
sS'LDIA'
p1436
I1
sS'VEFF'
p1437
I5
sS'AGAI'
p1438
I1
sS'IAAW'
p1439
I1
sS'IAAV'
p1440
I1
sS'MMRA'
p1441
I1
sS'VDLY'
p1442
I2
sS'LKSV'
p1443
I1
sS'LKSW'
p1444
I1
sS'CGGA'
p1445
I5
sS'LKSP'
p1446
I1
sS'AKQP'
p1447
I1
sS'LKSL'
p1448
I1
sS'MMRS'
p1449
I1
sS'VMYL'
p1450
I1
sS'FGTP'
p1451
I1
sS'MMRV'
p1452
I1
sS'LKSI'
p1453
I3
sS'LKSE'
p1454
I1
sS'SILL'
p1455
I1
sS'FQSW'
p1456
I1
sS'QAST'
p1457
I1
sS'TGSK'
p1458
I2
sS'VKSF'
p1459
I2
sS'QMRQ'
p1460
I1
sS'PNLW'
p1461
I1
sS'SEKK'
p1462
I1
sS'ASGR'
p1463
I1
sS'PLHK'
p1464
I1
sS'SEKE'
p1465
I1
sS'PAPG'
p1466
I2
sS'CASP'
p1467
I1
sS'LRRA'
p1468
I4
sS'VDYF'
p1469
I2
sS'LIRM'
p1470
I4
sS'KTIN'
p1471
I1
sS'KTIL'
p1472
I1
sS'DRAG'
p1473
I1
sS'SVDK'
p1474
I4
sS'TGAL'
p1475
I1
sS'NDVK'
p1476
I1
sS'TGAK'
p1477
I3
sS'RSRS'
p1478
I1
sS'VGDG'
p1479
I5
sS'TKYV'
p1480
I2
sS'SRTS'
p1481
I1
sS'FEKR'
p1482
I1
sS'QMLL'
p1483
I2
sS'LEGG'
p1484
I5
sS'HVQD'
p1485
I2
sS'VGDV'
p1486
I2
sS'EGME'
p1487
I1
sS'LAES'
p1488
I4
sS'RSRH'
p1489
I1
sS'LHNW'
p1490
I1
sS'GFIQ'
p1491
I1
sS'SGQL'
p1492
I1
sS'AESI'
p1493
I4
sS'ELAL'
p1494
I1
sS'VPEL'
p1495
I1
sS'SEEE'
p1496
I1
sS'SGQV'
p1497
I2
sS'DDEG'
p1498
I1
sS'AESR'
p1499
I4
sS'VVQT'
p1500
I1
sS'VPEE'
p1501
I1
sS'VPEG'
p1502
I1
sS'ARLV'
p1503
I1
sS'DDEL'
p1504
I1
sS'GDEF'
p1505
I6
sS'TVGN'
p1506
I2
sS'GDED'
p1507
I1
sS'DSPR'
p1508
I1
sS'TTGP'
p1509
I2
sS'GDEL'
p1510
I1
sS'EQVL'
p1511
I1
sS'AAKM'
p1512
I2
sS'AAKS'
p1513
I2
sS'AQRY'
p1514
I1
sS'HAGR'
p1515
I1
sS'DGKI'
p1516
I1
sS'EQVV'
p1517
I3
sS'ESFI'
p1518
I1
sS'EIGG'
p1519
I1
sS'NPMP'
p1520
I1
sS'ARLL'
p1521
I1
sS'TKKL'
p1522
I1
sS'LVGA'
p1523
I7
sS'TITD'
p1524
I1
sS'HKMV'
p1525
I1
sS'AHPG'
p1526
I1
sS'HTWI'
p1527
I6
sS'KEAT'
p1528
I1
sS'WGTV'
p1529
I1
sS'AQDL'
p1530
I1
sS'VSSE'
p1531
I1
sS'INDW'
p1532
I1
sS'EMKE'
p1533
I1
sS'DGYE'
p1534
I3
sS'VMKY'
p1535
I6
sS'PSMR'
p1536
I4
sS'ASHQ'
p1537
I1
sS'PEMM'
p1538
I1
sS'GDGV'
p1539
I5
sS'SAGA'
p1540
I3
sS'REQA'
p1541
I5
sS'PRIS'
p1542
I1
sS'GATS'
p1543
I1
sS'ESPT'
p1544
I3
sS'SAGT'
p1545
I1
sS'SSYP'
p1546
I1
sS'GGMV'
p1547
I1
sS'EPLS'
p1548
I1
sS'EPLR'
p1549
I1
sS'EPLQ'
p1550
I1
sS'AVAV'
p1551
I1
sS'IMGW'
p1552
I1
sS'ATPP'
p1553
I2
sS'SLKT'
p1554
I5
sS'AVAS'
p1555
I1
sS'IQQG'
p1556
I2
sS'EDHP'
p1557
I1
sS'EPLG'
p1558
I3
sS'RETP'
p1559
I2
sS'SLKM'
p1560
I1
sS'EPLA'
p1561
I5
sS'AVAI'
p1562
I3
sS'SLKA'
p1563
I2
sS'ATPA'
p1564
I1
sS'KQAL'
p1565
I4
sS'GVGA'
p1566
I5
sS'EPLH'
p1567
I1
sS'SWLS'
p1568
I6
sS'NWGR'
p1569
I17
sS'PAVN'
p1570
I4
sS'EFSR'
p1571
I1
sS'ERFN'
p1572
I4
sS'AVGV'
p1573
I1
sS'QEPL'
p1574
I2
sS'GATG'
p1575
I4
sS'TLAP'
p1576
I2
sS'PTEV'
p1577
I1
sS'PTET'
p1578
I1
sS'RRVF'
p1579
I1
sS'RRVG'
p1580
I4
sS'DNRE'
p1581
I7
sS'TLAG'
p1582
I1
sS'GTRE'
p1583
I1
sS'LDAR'
p1584
I4
sS'GTRL'
p1585
I1
sS'AQNG'
p1586
I1
sS'DWLV'
p1587
I5
sS'SLYQ'
p1588
I2
sS'DLYG'
p1589
I2
sS'AFVE'
p1590
I7
sS'AFVA'
p1591
I5
sS'QLQP'
p1592
I1
sS'TSQL'
p1593
I4
sS'DLYR'
p1594
I1
sS'GYEW'
p1595
I6
sS'VGGG'
p1596
I1
sS'VEAP'
p1597
I1
sS'SSQN'
p1598
I1
sS'LCTK'
p1599
I1
sS'PGRR'
p1600
I1
sS'PGRT'
p1601
I1
sS'LAHL'
p1602
I2
sS'WYDA'
p1603
I1
sS'ETLR'
p1604
I4
sS'ETLQ'
p1605
I1
sS'GSKD'
p1606
I2
sS'IGLI'
p1607
I2
sS'VMIH'
p1608
I1
sS'VTAG'
p1609
I1
sS'TRCT'
p1610
I1
sS'TRRA'
p1611
I1
sS'VTAT'
p1612
I2
sS'TLSP'
p1613
I2
sS'TRCA'
p1614
I1
sS'ETLL'
p1615
I1
sS'PRGG'
p1616
I1
sS'PPGS'
p1617
I1
sS'KVGR'
p1618
I1
sS'MLLE'
p1619
I1
sS'PPGV'
p1620
I2
sS'HRQA'
p1621
I1
sS'SAIN'
p1622
I4
sS'RKAL'
p1623
I3
sS'MLLS'
p1624
I1
sS'MLLQ'
p1625
I1
sS'RMMF'
p1626
I1
sS'RLHK'
p1627
I1
sS'VESV'
p1628
I11
sS'EVLS'
p1629
I1
sS'KRDW'
p1630
I5
sS'AELQ'
p1631
I1
sS'MEMF'
p1632
I1
sS'ETPS'
p1633
I4
sS'IALW'
p1634
I6
sS'NDWE'
p1635
I1
sS'EVLL'
p1636
I1
sS'RQML'
p1637
I1
sS'CLAH'
p1638
I2
sS'LQRM'
p1639
I1
sS'GVTN'
p1640
I5
sS'EWFG'
p1641
I1
sS'YKLS'
p1642
I11
sS'LQRV'
p1643
I1
sS'ECDR'
p1644
I1
sS'VQPE'
p1645
I1
sS'GVLT'
p1646
I1
sS'KEPL'
p1647
I2
sS'ILSS'
p1648
I1
sS'AAPT'
p1649
I4
sS'QFTD'
p1650
I1
sS'LEPT'
p1651
I1
sS'LEPW'
p1652
I4
sS'LNPE'
p1653
I1
sS'EPEP'
p1654
I3
sS'EKVG'
p1655
I1
sS'YLND'
p1656
I4
sS'FFAP'
p1657
I1
sS'LLLL'
p1658
I1
sS'SPIG'
p1659
I2
sS'GWNK'
p1660
I2
sS'LEPE'
p1661
I1
sS'LLLA'
p1662
I1
sS'LLLE'
p1663
I1
sS'NRRW'
p1664
I1
sS'DLKE'
p1665
I1
sS'MMES'
p1666
I2
sS'APQS'
p1667
I1
sS'AILA'
p1668
I2
sS'ARPS'
p1669
I2
sS'TLGT'
p1670
I1
sS'EQAT'
p1671
I5
sS'IFVA'
p1672
I1
sS'EGFV'
p1673
I1
sS'NNYQ'
p1674
I1
sS'DVTA'
p1675
I4
sS'HTPH'
p1676
I1
sS'AQEL'
p1677
I1
sS'SRIA'
p1678
I4
sS'MRSL'
p1679
I1
sS'ILVP'
p1680
I1
sS'VSRI'
p1681
I4
sS'PELI'
p1682
I1
sS'FSPA'
p1683
I2
sS'HGGA'
p1684
I1
sS'GRIV'
p1685
I16
sS'MEAP'
p1686
I1
sS'MREF'
p1687
I1
sS'LKRI'
p1688
I1
sS'QAPG'
p1689
I1
sS'LKRN'
p1690
I3
sS'GRII'
p1691
I1
sS'GLAA'
p1692
I1
sS'DDVK'
p1693
I3
sS'TWMA'
p1694
I1
sS'GAGS'
p1695
I2
sS'LRYR'
p1696
I4
sS'DGCE'
p1697
I2
sS'QPLF'
p1698
I1
sS'FMTL'
p1699
I1
sS'TWMT'
p1700
I1
sS'QMSG'
p1701
I1
sS'GLPA'
p1702
I1
sS'LRYI'
p1703
I1
sS'MAKQ'
p1704
I1
sS'FSFK'
p1705
I1
sS'REES'
p1706
I1
sS'GLPC'
p1707
I1
sS'PDAR'
p1708
I2
sS'QKEH'
p1709
I1
sS'FSFG'
p1710
I4
sS'QEQP'
p1711
I1
sS'KSLD'
p1712
I3
sS'FSFD'
p1713
I1
sS'SWMA'
p1714
I2
sS'KALQ'
p1715
I2
sS'QEQH'
p1716
I1
sS'KSLS'
p1717
I3
sS'RPGA'
p1718
I1
sS'RPGG'
p1719
I1
sS'YCGG'
p1720
I5
sS'VPPV'
p1721
I6
sS'PCRA'
p1722
I1
sS'VPPS'
p1723
I1
sS'RRWS'
p1724
I1
sS'EDYE'
p1725
I2
sS'GRRG'
p1726
I1
sS'SEVP'
p1727
I1
sS'SSHH'
p1728
I2
sS'SCDK'
p1729
I1
sS'RNVL'
p1730
I5
sS'PVPQ'
p1731
I1
sS'VPPA'
p1732
I2
sS'RLVW'
p1733
I1
sS'SQDL'
p1734
I1
sS'EDYS'
p1735
I1
sS'LDPV'
p1736
I1
sS'AEPA'
p1737
I1
sS'MEGP'
p1738
I2
sS'PALP'
p1739
I1
sS'AGDV'
p1740
I1
sS'DMAN'
p1741
I1
sS'DDFS'
p1742
I6
sS'GFHY'
p1743
I2
sS'DDFM'
p1744
I1
sS'AGDD'
p1745
I6
sS'AGDE'
p1746
I5
sS'VVRT'
p1747
I1
sS'AGDG'
p1748
I1
sS'PALE'
p1749
I1
sS'NYQA'
p1750
I1
sS'YFSF'
p1751
I1
sS'EETE'
p1752
I2
sS'PTTL'
p1753
I1
sS'FIEP'
p1754
I1
sS'TKDA'
p1755
I1
sS'GDDF'
p1756
I6
sS'GAVI'
p1757
I3
sS'RLAA'
p1758
I1
sS'PAPM'
p1759
I1
sS'PAPL'
p1760
I1
sS'LVKQ'
p1761
I5
sS'ATSE'
p1762
I1
sS'RRAG'
p1763
I4
sS'RRAF'
p1764
I4
sS'AERE'
p1765
I1
sS'NSDA'
p1766
I1
sS'ATSL'
p1767
I2
sS'PAPA'
p1768
I2
sS'RRAL'
p1769
I2
sS'GTGY'
p1770
I1
sS'PANP'
p1771
I2
sS'ATSR'
p1772
I1
sS'IAQN'
p1773
I1
sS'TLTP'
p1774
I1
sS'KVKT'
p1775
I1
sS'IAQE'
p1776
I1
sS'PAPP'
p1777
I1
sS'PAPS'
p1778
I2
sS'LGKR'
p1779
I3
sS'TPTW'
p1780
I1
sS'LSAL'
p1781
I1
sS'LSAM'
p1782
I1
sS'TPTR'
p1783
I1
sS'LAYL'
p1784
I5
sS'VLNE'
p1785
I1
sS'GATR'
p1786
I1
sS'LGGS'
p1787
I2
sS'ADAI'
p1788
I3
sS'ADAA'
p1789
I1
sS'LSAS'
p1790
I2
sS'EEVV'
p1791
I1
sS'RMLL'
p1792
I1
sS'TRRM'
p1793
I2
sS'DHPR'
p1794
I1
sS'TRRE'
p1795
I1
sS'TIFE'
p1796
I2
sS'TRRG'
p1797
I2
sS'MLRK'
p1798
I5
sS'MESV'
p1799
I1
sS'HYKL'
p1800
I7
sS'QTVT'
p1801
I1
sS'TIFV'
p1802
I1
sS'PPVG'
p1803
I2
sS'FAEM'
p1804
I6
sS'PPVV'
p1805
I6
sS'RLDI'
p1806
I1
sS'PPVP'
p1807
I1
sS'EMRE'
p1808
I1
sS'RGGG'
p1809
I1
sS'DHLE'
p1810
I4
sS'LLMY'
p1811
I1
sS'ADSP'
p1812
I4
sS'TPFT'
p1813
I7
sS'MESA'
p1814
I1
sS'QQGG'
p1815
I2
sS'MIGA'
p1816
I1
sS'DVDA'
p1817
I2
sS'ALPD'
p1818
I1
sS'GGVM'
p1819
I7
sS'YERA'
p1820
I1
sS'AIMS'
p1821
I4
sS'APPN'
p1822
I1
sS'DWAA'
p1823
I1
sS'QQGP'
p1824
I1
sS'APPG'
p1825
I3
sS'QNRR'
p1826
I1
sS'APPC'
p1827
I1
sS'ILSL'
p1828
I1
sS'APPA'
p1829
I1
sS'IKGT'
p1830
I1
sS'TSPP'
p1831
I1
sS'TSPV'
p1832
I2
sS'TFCE'
p1833
I1
sS'TSPT'
p1834
I1
sS'QQIA'
p1835
I2
sS'GEDR'
p1836
I1
sS'YIHY'
p1837
I7
sS'AVNG'
p1838
I4
sS'MFEN'
p1839
I1
sS'RLSP'
p1840
I1
sS'EKLQ'
p1841
I1
sS'MDGS'
p1842
I2
sS'TSPL'
p1843
I5
sS'QVSP'
p1844
I2
sS'ETAV'
p1845
I1
sS'KKGL'
p1846
I1
sS'KMTR'
p1847
I1
sS'HNRS'
p1848
I2
sS'LAGV'
p1849
I1
sS'VKTE'
p1850
I1
sS'IVMK'
p1851
I6
sS'ETAF'
p1852
I5
sS'PNVS'
p1853
I1
sS'FTYR'
p1854
I1
sS'HLEP'
p1855
I4
sS'TSLF'
p1856
I3
sS'SRVI'
p1857
I1
sS'TSLL'
p1858
I1
sS'SRVM'
p1859
I4
sS'LTLR'
p1860
I6
sS'SINQ'
p1861
I3
sS'TSLQ'
p1862
I1
sS'PVGA'
p1863
I2
sS'IAVI'
p1864
I1
sS'SGAT'
p1865
I1
sS'AKSG'
p1866
I1
sS'DMRP'
p1867
I1
sS'TEAP'
p1868
I4
sS'MAHA'
p1869
I2
sS'LRRI'
p1870
I1
sS'ARRV'
p1871
I3
sS'SGAG'
p1872
I1
sS'KRIG'
p1873
I1
sS'QDLK'
p1874
I1
sS'AKSS'
p1875
I2
sS'MAHP'
p1876
I1
sS'TEAE'
p1877
I1
sS'KMFG'
p1878
I1
sS'IAMD'
p1879
I2
sS'AEMS'
p1880
I6
sS'KTGA'
p1881
I1
sS'VERA'
p1882
I1
sS'KMFQ'
p1883
I1
sS'LVWR'
p1884
I1
sS'SEAA'
p1885
I2
sS'GLRR'
p1886
I2
sS'GLRP'
p1887
I1
sS'TESL'
p1888
I2
sS'TYEA'
p1889
I1
sS'HHGG'
p1890
I1
sS'STVP'
p1891
I1
sS'TESE'
p1892
I2
sS'LWMT'
p1893
I6
sS'QRYG'
p1894
I1
sS'LGIK'
p1895
I1
sS'SVFV'
p1896
I1
sS'RSPL'
p1897
I1
sS'SVFS'
p1898
I1
sS'RSPA'
p1899
I1
sS'VLTA'
p1900
I1
sS'RQLQ'
p1901
I1
sS'LRLL'
p1902
I1
sS'DFGI'
p1903
I1
sS'VGKE'
p1904
I1
sS'SGWN'
p1905
I2
sS'NDHL'
p1906
I4
sS'PVAR'
p1907
I1
sS'LDQE'
p1908
I1
sS'AGEK'
p1909
I2
sS'SEGK'
p1910
I2
sS'GKEA'
p1911
I1
sS'AGED'
p1912
I1
sS'HAEN'
p1913
I1
sS'TVET'
p1914
I1
sS'AAIM'
p1915
I1
sS'DAAP'
p1916
I3
sS'KLSQ'
p1917
I11
sS'RSLG'
p1918
I1
sS'WNKI'
p1919
I1
sS'TVEA'
p1920
I1
sS'WNKL'
p1921
I1
sS'KLSE'
p1922
I1
sS'TVEK'
p1923
I1
sS'AAIV'
p1924
I1
sS'HVEK'
p1925
I2
sS'EEGK'
p1926
I1
sS'ELQE'
p1927
I1
sS'VALA'
p1928
I2
sS'ELQG'
p1929
I2
sS'SRHS'
p1930
I1
sS'VALF'
p1931
I1
sS'DASH'
p1932
I1
sS'FFHV'
p1933
I5
sS'RFNI'
p1934
I1
sS'ELQR'
p1935
I1
sS'FQGM'
p1936
I5
sS'PPAA'
p1937
I1
sS'VSQD'
p1938
I1
sS'VSQE'
p1939
I1
sS'MRRS'
p1940
I1
sS'FSWI'
p1941
I1
sS'FSWL'
p1942
I6
sS'AAGE'
p1943
I1
sS'AAGA'
p1944
I1
sS'MSDE'
p1945
I1
sS'GIRN'
p1946
I5
sS'AAGS'
p1947
I1
sS'AAGR'
p1948
I2
sS'AAGP'
p1949
I2
sS'ESRK'
p1950
I4
sS'TRSP'
p1951
I1
sS'REVI'
p1952
I4
sS'TFRR'
p1953
I1
sS'EPTD'
p1954
I1
sS'QEDS'
p1955
I1
sS'EMSS'
p1956
I6
sS'SSWT'
p1957
I1
sS'REVG'
p1958
I1
sS'REVF'
p1959
I1
sS'GAKS'
p1960
I1
sS'EPNN'
p1961
I1
sS'LFRQ'
p1962
I1
sS'NARE'
p1963
I1
sS'GMEW'
p1964
I1
sS'KALL'
p1965
I2
sS'GRTG'
p1966
I5
sS'EKQQ'
p1967
I1
sS'GYEP'
p1968
I3
sS'EIEE'
p1969
I2
sS'FSEQ'
p1970
I1
sS'VFFR'
p1971
I1
sS'FEFG'
p1972
I7
sS'QEVV'
p1973
I1
sS'FQIP'
p1974
I1
sS'GRTP'
p1975
I1
sS'GAED'
p1976
I2
sS'PAAS'
p1977
I1
sS'SEQI'
p1978
I1
sS'PLVA'
p1979
I2
sS'SSIE'
p1980
I1
sS'PLVD'
p1981
I7
sS'SEQL'
p1982
I1
sS'GTPT'
p1983
I1
sS'MELQ'
p1984
I1
sS'PLVL'
p1985
I2
sS'VIGG'
p1986
I3
sS'PAAA'
p1987
I2
sS'VPQD'
p1988
I1
sS'PAAD'
p1989
I3
sS'SQEK'
p1990
I2
sS'VIGL'
p1991
I4
sS'SQEL'
p1992
I1
sS'LTPD'
p1993
I1
sS'HRPE'
p1994
I1
sS'AFTS'
p1995
I2
sS'LPVS'
p1996
I4
sS'GEEP'
p1997
I1
sS'TSSS'
p1998
I1
sS'EMAA'
p1999
I2
sS'LTAS'
p2000
I1
sS'EEEL'
p2001
I8
sS'TSSE'
p2002
I1
sS'GHKM'
p2003
I7
sS'GEEE'
p2004
I1
sS'APAL'
p2005
I1
sS'LCVE'
p2006
I4
sS'RIYD'
p2007
I1
sS'APAA'
p2008
I3
sS'GGSR'
p2009
I1
sS'DYFT'
p2010
I2
sS'APAP'
p2011
I4
sS'QVRN'
p2012
I2
sS'LAFA'
p2013
I5
sS'SGRE'
p2014
I1
sS'HSSS'
p2015
I4
sS'ATRC'
p2016
I1
sS'IGLN'
p2017
I4
sS'EMMR'
p2018
I3
sS'DAQD'
p2019
I1
sS'GTIF'
p2020
I2
sS'ATRP'
p2021
I1
sS'ATRS'
p2022
I1
sS'LNEL'
p2023
I1
sS'FTHR'
p2024
I1
sS'LGTR'
p2025
I1
sS'WAAG'
p2026
I1
sS'LGTY'
p2027
I1
sS'DSNM'
p2028
I1
sS'WAAQ'
p2029
I1
sS'TAHG'
p2030
I1
sS'DNSL'
p2031
I1
sS'PPIG'
p2032
I1
sS'DSND'
p2033
I2
sS'DSNG'
p2034
I1
sS'PREV'
p2035
I1
sS'DNSG'
p2036
I2
sS'PMPL'
p2037
I1
sS'KMGM'
p2038
I1
sS'MKLG'
p2039
I1
sS'EHNR'
p2040
I2
sS'MGMA'
p2041
I1
sS'SLEI'
p2042
I5
sS'RMSD'
p2043
I1
sS'LKYI'
p2044
I1
sS'LEDY'
p2045
I1
sS'VGAG'
p2046
I5
sS'RMSI'
p2047
I2
sS'LGHK'
p2048
I7
sS'VGAC'
p2049
I7
sS'VGAA'
p2050
I1
sS'NAVI'
p2051
I5
sS'LLPH'
p2052
I1
sS'LLPG'
p2053
I2
sS'IRNN'
p2054
I1
sS'LGFH'
p2055
I2
sS'ECTV'
p2056
I1
sS'RYRR'
p2057
I10
sS'TPGI'
p2058
I4
sS'CPMS'
p2059
I2
sS'VVAR'
p2060
I2
sS'PPTT'
p2061
I1
sS'FMKL'
p2062
I1
sS'LNNY'
p2063
I1
sS'IVLK'
p2064
I1
sS'ECTL'
p2065
I1
sS'TPGT'
p2066
I4
sS'RQSL'
p2067
I5
sS'TKRD'
p2068
I5
sS'GGWG'
p2069
I2
sS'GGWD'
p2070
I12
sS'APSR'
p2071
I1
sS'VSLS'
p2072
I2
sS'APSQ'
p2073
I1
sS'MKPM'
p2074
I1
sS'EFNA'
p2075
I1
sS'VSLG'
p2076
I2
sS'NFSE'
p2077
I1
sS'AGTE'
p2078
I1
sS'QRNH'
p2079
I5
sS'AGTA'
p2080
I1
sS'EEDD'
p2081
I2
sS'EEDE'
p2082
I3
sS'SRKK'
p2083
I1
sS'HAGG'
p2084
I1
sS'SRKM'
p2085
I4
sS'WHTE'
p2086
I2
sS'QDLP'
p2087
I1
sS'SRKG'
p2088
I4
sS'DARE'
p2089
I4
sS'RAEG'
p2090
I1
sS'RAEA'
p2091
I1
sS'NSDI'
p2092
I2
sS'ILPS'
p2093
I2
sS'KHLK'
p2094
I5
sS'INAR'
p2095
I1
sS'RAEK'
p2096
I1
sS'IIGA'
p2097
I1
sS'GREA'
p2098
I1
sS'GREL'
p2099
I1
sS'ASKL'
p2100
I1
sS'SIAL'
p2101
I1
sS'VDAA'
p2102
I2
sS'VSPP'
p2103
I2
sS'SRYL'
p2104
I5
sS'ACIT'
p2105
I7
sS'SYKL'
p2106
I4
sS'VQRN'
p2107
I5
sS'IGKR'
p2108
I1
sS'YEAY'
p2109
I1
sS'QDLE'
p2110
I2
sS'GLGA'
p2111
I2
sS'ALET'
p2112
I5
sS'ALEP'
p2113
I1
sS'GLGP'
p2114
I1
sS'NKIL'
p2115
I1
sS'KRHM'
p2116
I1
sS'VVAL'
p2117
I1
sS'IEGF'
p2118
I1
sS'FSDV'
p2119
I3
sS'GPGT'
p2120
I1
sS'REGR'
p2121
I1
sS'DGLL'
p2122
I1
sS'QKGY'
p2123
I4
sS'REAT'
p2124
I1
sS'FSDG'
p2125
I4
sS'RWSM'
p2126
I1
sS'FSDL'
p2127
I4
sS'RPEA'
p2128
I1
sS'LATE'
p2129
I1
sS'GVAG'
p2130
I5
sS'RPEI'
p2131
I1
sS'SQFT'
p2132
I1
sS'SQFS'
p2133
I3
sS'YQAF'
p2134
I1
sS'DCLA'
p2135
I2
sS'TLDK'
p2136
I1
sS'SWIS'
p2137
I1
sS'GKHH'
p2138
I1
sS'TLDF'
p2139
I1
sS'VVLP'
p2140
I1
sS'LRML'
p2141
I1
sS'MVIL'
p2142
I1
sS'VVLS'
p2143
I2
sS'QCPM'
p2144
I1
sS'PVFS'
p2145
I2
sS'HETA'
p2146
I5
sS'VITV'
p2147
I1
sS'WDAS'
p2148
I1
sS'PLEE'
p2149
I1
sS'NDIY'
p2150
I2
sS'YQSF'
p2151
I4
sS'QLDV'
p2152
I1
sS'VVLL'
p2153
I4
sS'LYGN'
p2154
I5
sS'EERA'
p2155
I1
sS'ENRT'
p2156
I4
sS'AHGR'
p2157
I1
sS'AAVR'
p2158
I1
sS'PTVE'
p2159
I1
sS'AAVD'
p2160
I1
sS'AAVA'
p2161
I4
sS'PKIS'
p2162
I1
sS'PTVT'
p2163
I2
sS'AAVK'
p2164
I4
sS'RYQR'
p2165
I1
sS'PAVH'
p2166
I4
sS'GTES'
p2167
I2
sS'GTEP'
p2168
I1
sS'PAVL'
p2169
I5
sS'EKKH'
p2170
I1
sS'RTSP'
p2171
I6
sS'LPEA'
p2172
I1
sS'GTED'
p2173
I1
sS'SALL'
p2174
I1
sS'VLLQ'
p2175
I1
sS'VRPL'
p2176
I1
sS'NVLL'
p2177
I5
sS'WGRV'
p2178
I1
sS'AKAR'
p2179
I2
sS'VLLF'
p2180
I1
sS'WGRI'
p2181
I16
sS'PHIT'
p2182
I1
sS'FIKT'
p2183
I2
sS'LGWI'
p2184
I1
sS'DSIA'
p2185
I1
sS'EASS'
p2186
I2
sS'VLLK'
p2187
I1
sS'GAVE'
p2188
I1
sS'QDRA'
p2189
I1
sS'TVPL'
p2190
I1
sS'LLKV'
p2191
I1
sS'LSQP'
p2192
I2
sS'LSQR'
p2193
I7
sS'TRPG'
p2194
I1
sS'AADM'
p2195
I1
sS'LSQK'
p2196
I4
sS'LLKS'
p2197
I1
sS'ESSI'
p2198
I1
sS'TTLA'
p2199
I1
sS'PHGS'
p2200
I1
sS'ESSM'
p2201
I1
sS'LSQE'
p2202
I2
sS'GILS'
p2203
I1
sS'NHGG'
p2204
I1
sS'REIV'
p2205
I7
sS'PMAA'
p2206
I4
sS'GADG'
p2207
I2
sS'SSTV'
p2208
I1
sS'SSTT'
p2209
I1
sS'REIG'
p2210
I1
sS'IDGK'
p2211
I1
sS'EAAA'
p2212
I1
sS'EVSE'
p2213
I1
sS'RVMI'
p2214
I1
sS'LTGM'
p2215
I4
sS'EAAK'
p2216
I2
sS'FDCH'
p2217
I1
sS'QALR'
p2218
I4
sS'EAAV'
p2219
I1
sS'RVMV'
p2220
I2
sS'HPRM'
p2221
I1
sS'SVVL'
p2222
I1
sS'GGTG'
p2223
I1
sS'AFAG'
p2224
I5
sS'PPPE'
p2225
I2
sS'YEPE'
p2226
I3
sS'IASQ'
p2227
I1
sS'NLLM'
p2228
I1
sS'QGML'
p2229
I5
sS'QQEQ'
p2230
I1
sS'NREI'
p2231
I7
sS'GGFV'
p2232
I1
sS'ISRY'
p2233
I5
sS'DELD'
p2234
I1
sS'NAGP'
p2235
I1
sS'DELF'
p2236
I1
sS'KSVN'
p2237
I1
sS'AVLP'
p2238
I5
sS'AVLL'
p2239
I1
sS'TSRK'
p2240
I1
sS'NGGW'
p2241
I11
sS'AFSD'
p2242
I4
sS'DELY'
p2243
I3
sS'QLRP'
p2244
I1
sS'SLVE'
p2245
I1
sS'EVFF'
p2246
I1
sS'DYEK'
p2247
I1
sS'PDSR'
p2248
I1
sS'RNLL'
p2249
I1
sS'QSWH'
p2250
I2
sS'QSWK'
p2251
I1
sS'ALWM'
p2252
I6
sS'EYII'
p2253
I1
sS'RNLF'
p2254
I1
sS'RNLG'
p2255
I1
sS'HLGE'
p2256
I2
sS'LVGE'
p2257
I3
sS'RRMS'
p2258
I3
sS'LEEH'
p2259
I1
sS'QSWW'
p2260
I1
sS'DYER'
p2261
I1
sS'VSAT'
p2262
I1
sS'SYLG'
p2263
I2
sS'YRRD'
p2264
I6
sS'YRRA'
p2265
I4
sS'QAEP'
p2266
I1
sS'NPSW'
p2267
I4
sS'WHLA'
p2268
I4
sS'GGAS'
p2269
I4
sS'SKLV'
p2270
I1
sS'YRRR'
p2271
I1
sS'SGGR'
p2272
I2
sS'MANS'
p2273
I1
sS'ARPE'
p2274
I1
sS'NTST'
p2275
I1
sS'VANA'
p2276
I1
sS'ALDP'
p2277
I1
sS'KTSP'
p2278
I1
sS'SGGA'
p2279
I3
sS'AEAE'
p2280
I1
sS'QPAE'
p2281
I1
sS'ARPP'
p2282
I3
sS'VVCG'
p2283
I1
sS'DYSA'
p2284
I1
sS'KTEI'
p2285
I1
sS'QAAE'
p2286
I1
sS'GYSW'
p2287
I4
sS'PGIF'
p2288
I5
sS'GLPR'
p2289
I1
sS'PGII'
p2290
I1
sS'KKSH'
p2291
I1
sS'PGIL'
p2292
I1
sS'HGGE'
p2293
I1
sS'PGMD'
p2294
I1
sS'AHAG'
p2295
I2
sS'PGIT'
p2296
I1
sS'TGEM'
p2297
I1
sS'SHTG'
p2298
I1
sS'TGEA'
p2299
I1
sS'DREG'
p2300
I1
sS'TAYQ'
p2301
I4
sS'FRQS'
p2302
I1
sS'IMSP'
p2303
I4
sS'DGFV'
p2304
I5
sS'AGEM'
p2305
I1
sS'IPEF'
p2306
I1
sS'YLED'
p2307
I1
sS'YLEE'
p2308
I1
sS'RQNG'
p2309
I1
sS'LGKQ'
p2310
I1
sS'GGAT'
p2311
I1
sS'LLQH'
p2312
I1
sS'LLQG'
p2313
I1
sS'LLQF'
p2314
I2
sS'IPES'
p2315
I1
sS'STTA'
p2316
I1
sS'LRRV'
p2317
I4
sS'MVHV'
p2318
I2
sS'STPT'
p2319
I1
sS'GVTY'
p2320
I1
sS'NFNW'
p2321
I1
sS'LDSS'
p2322
I1
sS'VFVE'
p2323
I1
sS'PEIW'
p2324
I1
sS'GVTA'
p2325
I1
sS'LDSN'
p2326
I2
sS'SSGA'
p2327
I3
sS'PLFD'
p2328
I7
sS'ILSQ'
p2329
I1
sS'DMFS'
p2330
I1
sS'LRRM'
p2331
I1
sS'LRRN'
p2332
I2
sS'PLFI'
p2333
I1
sS'SEAF'
p2334
I2
sS'SEAE'
p2335
I1
sS'LRRK'
p2336
I1
sS'ELEA'
p2337
I1
sS'AGGG'
p2338
I2
sS'PTWQ'
p2339
I1
sS'LAET'
p2340
I1
sS'HKSP'
p2341
I1
sS'VPAL'
p2342
I1
sS'EGKS'
p2343
I2
sS'EESL'
p2344
I1
sS'AGGT'
p2345
I1
sS'DVAP'
p2346
I1
sS'AAWM'
p2347
I1
sS'EGKA'
p2348
I1
sS'NNFG'
p2349
I1
sS'DVSS'
p2350
I1
sS'LREQ'
p2351
I5
sS'QDNG'
p2352
I7
sS'EEEV'
p2353
I1
sS'VGNA'
p2354
I1
sS'QRMI'
p2355
I1
sS'EEEY'
p2356
I2
sS'IFSF'
p2357
I5
sS'EEEE'
p2358
I6
sS'EEED'
p2359
I5
sS'PIGA'
p2360
I3
sS'LRER'
p2361
I1
sS'VGNS'
p2362
I1
sS'KEHN'
p2363
I2
sS'KGYS'
p2364
I4
sS'VHVE'
p2365
I2
sS'ELSP'
p2366
I1
sS'IFSS'
p2367
I1
sS'HKAL'
p2368
I1
sS'NRSW'
p2369
I2
sS'ASLT'
p2370
I1
sS'MRPL'
p2371
I5
sS'ASWM'
p2372
I2
sS'MRPE'
p2373
I1
sS'VMGT'
p2374
I1
sS'PAGE'
p2375
I1
sS'HTSP'
p2376
I2
sS'VDFL'
p2377
I4
sS'PSAI'
p2378
I4
sS'FLNN'
p2379
I1
sS'ASLG'
p2380
I3
sS'MTLA'
p2381
I1
sS'SSGP'
p2382
I2
sS'MTLG'
p2383
I1
sS'NNTS'
p2384
I1
sS'MGRS'
p2385
I1
sS'AAEE'
p2386
I1
sS'AAED'
p2387
I1
sS'AAEF'
p2388
I1
sS'LSPV'
p2389
I5
sS'ENGG'
p2390
I4
sS'PPPI'
p2391
I1
sS'RTIM'
p2392
I1
sS'LSPA'
p2393
I2
sS'NEDD'
p2394
I3
sS'AAES'
p2395
I4
sS'ASPG'
p2396
I1
sS'RCTA'
p2397
I1
sS'AVPR'
p2398
I1
sS'PFTA'
p2399
I7
sS'GAEG'
p2400
I2
sS'KDGV'
p2401
I2
sS'GGIR'
p2402
I5
sS'WSII'
p2403
I1
sS'KAAT'
p2404
I1
sS'ASPP'
p2405
I5
sS'PPKL'
p2406
I1
sS'GAEV'
p2407
I1
sS'PKLL'
p2408
I1
sS'KLQE'
p2409
I1
sS'KEMQ'
p2410
I4
sS'EKSS'
p2411
I1
sS'SITD'
p2412
I4
sS'NREM'
p2413
I7
sS'NREL'
p2414
I4
sS'VDTD'
p2415
I1
sS'REFL'
p2416
I1
sS'GRVV'
p2417
I1
sS'EKSE'
p2418
I2
sS'GPFA'
p2419
I1
sS'SSGG'
p2420
I2
sS'RRRT'
p2421
I2
sS'PAGT'
p2422
I2
sS'LDEE'
p2423
I1
sS'TLET'
p2424
I1
sS'DFSR'
p2425
I6
sS'GKIN'
p2426
I1
sS'DFSW'
p2427
I7
sS'KDTK'
p2428
I1
sS'SSGY'
p2429
I1
sS'PAGA'
p2430
I1
sS'PAGD'
p2431
I1
sS'SESL'
p2432
I2
sS'YDNR'
p2433
I7
sS'QLYC'
p2434
I1
sS'GGGS'
p2435
I2
sS'GGGP'
p2436
I1
sS'AVKQ'
p2437
I4
sS'SLDK'
p2438
I1
sS'HPAA'
p2439
I1
sS'GGGG'
p2440
I1
sS'GGGE'
p2441
I5
sS'KSWS'
p2442
I1
sS'AFRE'
p2443
I1
sS'LVDS'
p2444
I1
sS'RRNA'
p2445
I2
sS'GEGD'
p2446
I1
sS'QVPT'
p2447
I1
sS'LLAF'
p2448
I5
sS'LVDN'
p2449
I6
sS'STDG'
p2450
I1
sS'HLKT'
p2451
I1
sS'TNWG'
p2452
I5
sS'EDLE'
p2453
I3
sS'LSEE'
p2454
I1
sS'GARL'
p2455
I1
sS'RFNR'
p2456
I4
sS'SLGF'
p2457
I1
sS'GVHL'
p2458
I1
sS'SLGA'
p2459
I2
sS'HVED'
p2460
I3
sS'AVIG'
p2461
I7
sS'GTDG'
p2462
I1
sS'EMQV'
p2463
I4
sS'SLGT'
p2464
I1
sS'ERLL'
p2465
I1
sS'SLGP'
p2466
I2
sS'RIIF'
p2467
I1
sS'EGGI'
p2468
I5
sS'FVAA'
p2469
I1
sS'RTPA'
p2470
I2
sS'FFEF'
p2471
I7
sS'SAMA'
p2472
I1
sS'RKMA'
p2473
I1
sS'RKMF'
p2474
I1
sS'WGSV'
p2475
I1
sS'LAVA'
p2476
I2
sS'EAPE'
p2477
I6
sS'RKMS'
p2478
I3
sS'FDRH'
p2479
I1
sS'VFSL'
p2480
I2
sS'KMAK'
p2481
I1
sS'KMAH'
p2482
I2
sS'AKDT'
p2483
I1
sS'EFLG'
p2484
I1
sS'YILP'
p2485
I2
sS'SWWD'
p2486
I1
sS'KILV'
p2487
I1
sS'LLGT'
p2488
I1
sS'AKDA'
p2489
I2
sS'EFLS'
p2490
I1
sS'RYLR'
p2491
I5
sS'PGHT'
p2492
I1
sS'KMAS'
p2493
I1
sS'KMAQ'
p2494
I4
sS'LVRT'
p2495
I5
sS'ETTV'
p2496
I1
sS'TGDE'
p2497
I1
sS'FRRR'
p2498
I1
sS'TEPT'
p2499
I2
sS'LLRY'
p2500
I1
sS'TEPQ'
p2501
I1
sS'IYIL'
p2502
I2
sS'LLRQ'
p2503
I1
sS'SPSR'
p2504
I1
sS'VFSD'
p2505
I3
sS'TEPE'
p2506
I1
sS'EGGG'
p2507
I3
sS'SMIG'
p2508
I1
sS'GSRA'
p2509
I1
sS'RDGV'
p2510
I11
sS'TPAA'
p2511
I1
sS'LNLY'
p2512
I4
sS'GSRK'
p2513
I1
sS'EAFP'
p2514
I1
sS'EAFT'
p2515
I2
sS'LADS'
p2516
I4
sS'GMAH'
p2517
I1
sS'TPAR'
p2518
I1
sS'TPAP'
p2519
I1
sS'TPAV'
p2520
I3
sS'KEDY'
p2521
I2
sS'QGNP'
p2522
I1
sS'LETL'
p2523
I5
sS'FGAP'
p2524
I1
sS'LGQQ'
p2525
I1
sS'LETT'
p2526
I1
sS'FGAF'
p2527
I5
sS'DKEM'
p2528
I4
sS'SDNS'
p2529
I2
sS'DKEI'
p2530
I1
sS'AYYA'
p2531
I1
sS'AEDP'
p2532
I2
sS'AGVL'
p2533
I1
sS'ELRR'
p2534
I2
sS'LHLT'
p2535
I7
sS'AGVA'
p2536
I5
sS'ELRY'
p2537
I4
sS'TKVP'
p2538
I1
sS'FRDG'
p2539
I11
sS'RDMA'
p2540
I3
sS'AWMA'
p2541
I1
sS'VAAK'
p2542
I2
sS'VAAD'
p2543
I1
sS'CLKR'
p2544
I1
sS'AGVV'
p2545
I4
sS'EQED'
p2546
I1
sS'AGVT'
p2547
I1
sS'NRTP'
p2548
I1
sS'ASMR'
p2549
I1
sS'PMGR'
p2550
I1
sS'AQAG'
p2551
I4
sS'FETF'
p2552
I1
sS'FEQV'
p2553
I4
sS'RAGR'
p2554
I1
sS'RAGS'
p2555
I1
sS'NHYL'
p2556
I1
sS'DEDS'
p2557
I1
sS'SLSR'
p2558
I3
sS'TQMR'
p2559
I1
sS'AFNH'
p2560
I1
sS'MIHV'
p2561
I1
sS'VQTV'
p2562
I1
sS'KSPG'
p2563
I2
sS'YRQS'
p2564
I4
sS'MRAE'
p2565
I1
sS'ETFC'
p2566
I1
sS'TWQT'
p2567
I1
sS'QVLN'
p2568
I1
sS'DRHT'
p2569
I1
sS'VMTH'
p2570
I1
sS'KTRI'
p2571
I2
sS'TAVH'
p2572
I1
sS'AEFI'
p2573
I1
sS'NTPC'
p2574
I1
sS'QVLV'
p2575
I4
sS'FKKG'
p2576
I1
sS'GRQL'
p2577
I1
sS'ESCI'
p2578
I4
sS'GPES'
p2579
I2
sS'KSHT'
p2580
I1
sS'CTAD'
p2581
I1
sS'DGNF'
p2582
I1
sS'FVAG'
p2583
I1
sS'PEVL'
p2584
I2
sS'ILLK'
p2585
I1
sS'SEER'
p2586
I1
sS'ILLF'
p2587
I1
sS'THVF'
p2588
I1
sS'PLQK'
p2589
I1
sS'SWAD'
p2590
I1
sS'LFFA'
p2591
I2
sS'GYFS'
p2592
I1
sS'LSKR'
p2593
I1
sS'MASM'
p2594
I1
sS'LRAA'
p2595
I1
sS'SNDI'
p2596
I2
sS'MASS'
p2597
I2
sS'PPRL'
p2598
I1
sS'LDFL'
p2599
I1
sS'RPKS'
p2600
I1
sS'RRYQ'
p2601
I1
sS'PLQT'
p2602
I1
sS'WDGL'
p2603
I1
sS'AETP'
p2604
I1
sS'ILRL'
p2605
I1
sS'WDGF'
p2606
I5
sS'GLKR'
p2607
I3
sS'VVNE'
p2608
I3
sS'PLGE'
p2609
I2
sS'DFAE'
p2610
I6
sS'PQLR'
p2611
I1
sS'PLGA'
p2612
I3
sS'SWSQ'
p2613
I4
sS'MSPE'
p2614
I4
sS'IRTI'
p2615
I1
sS'VIVC'
p2616
I1
sS'PTPS'
p2617
I2
sS'ELDG'
p2618
I5
sS'ELDE'
p2619
I1
sS'VIVH'
p2620
I1
sS'NLWA'
p2621
I1
sS'CRAS'
p2622
I1
sS'KEHE'
p2623
I1
sS'ELDS'
p2624
I1
sS'PTPA'
p2625
I2
sS'VRNL'
p2626
I2
sS'PTPG'
p2627
I4
sS'IRTQ'
p2628
I1
sS'FAPT'
p2629
I1
sS'EEPR'
p2630
I2
sS'EEPS'
p2631
I1
sS'PATS'
p2632
I1
sS'EAPA'
p2633
I2
sS'IGIV'
p2634
I1
sS'SLFI'
p2635
I2
sS'MSPL'
p2636
I7
sS'LPGA'
p2637
I2
sS'SLFV'
p2638
I1
sS'YSAE'
p2639
I1
sS'SLFS'
p2640
I4
sS'PATL'
p2641
I1
sS'TPPP'
p2642
I5
sS'TPPR'
p2643
I1
sS'TIPE'
p2644
I1
sS'RTQL'
p2645
I1
sS'MGEE'
p2646
I1
sS'MSQS'
p2647
I4
sS'RKLD'
p2648
I5
sS'TPPK'
p2649
I1
sS'PTLS'
p2650
I2
sS'MSGQ'
p2651
I1
sS'FEKK'
p2652
I1
sS'ENFE'
p2653
I1
sS'DVLV'
p2654
I5
sS'VTTS'
p2655
I2
sS'TRVF'
p2656
I1
sS'ENFS'
p2657
I1
sS'GINS'
p2658
I1
sS'RLVA'
p2659
I2
sS'NEGD'
p2660
I1
sS'GAKD'
p2661
I3
sS'VGRR'
p2662
I1
sS'CGRM'
p2663
I1
sS'CGRI'
p2664
I1
sS'KSFS'
p2665
I2
sS'NRHL'
p2666
I7
sS'QEKQ'
p2667
I1
sS'SQRG'
p2668
I7
sS'QEKL'
p2669
I1
sS'ASQS'
p2670
I3
sS'IGAE'
p2671
I3
sS'LSSP'
p2672
I1
sS'LSSQ'
p2673
I1
sS'NHET'
p2674
I5
sS'LAVP'
p2675
I4
sS'GAFV'
p2676
I5
sS'EAGA'
p2677
I5
sS'EMSP'
p2678
I7
sS'GSSA'
p2679
I1
sS'EAGD'
p2680
I4
sS'VELG'
p2681
I1
sS'VELD'
p2682
I1
sS'ATGA'
p2683
I3
sS'VELY'
p2684
I9
sS'LTIW'
p2685
I1
sS'SFIE'
p2686
I1
sS'VELQ'
p2687
I1
sS'PKSA'
p2688
I1
sS'GGRL'
p2689
I3
sS'SPLF'
p2690
I1
sS'MDMA'
p2691
I1
sS'YARR'
p2692
I1
sS'DIEG'
p2693
I1
sS'SPLQ'
p2694
I1
sS'SPLR'
p2695
I4
sS'SPLV'
p2696
I7
sS'LLAV'
p2697
I4
sS'LLAT'
p2698
I1
sS'LLAS'
p2699
I1
sS'DWEE'
p2700
I2
sS'LLAP'
p2701
I1
sS'LRKL'
p2702
I5
sS'GAPG'
p2703
I1
sS'ADMF'
p2704
I1
sS'VTNW'
p2705
I5
sS'KSTQ'
p2706
I1
sS'GAPT'
p2707
I1
sS'QLLA'
p2708
I2
sS'AFQG'
p2709
I5
sS'DIYI'
p2710
I2
sS'ADMR'
p2711
I1
sS'RGYE'
p2712
I6
sS'QHLS'
p2713
I1
sS'RNNW'
p2714
I1
sS'MYLE'
p2715
I1
sS'VHLT'
p2716
I6
sS'ETEP'
p2717
I1
sS'SLTN'
p2718
I1
sS'SLTI'
p2719
I1
sS'FVYT'
p2720
I1
sS'HLAD'
p2721
I4
sS'LVEE'
p2722
I1
sS'ETEA'
p2723
I1
sS'IISR'
p2724
I5
sS'QHLL'
p2725
I1
sS'LLSE'
p2726
I1
sS'LLSL'
p2727
I6
sS'YGPS'
p2728
I5
sS'FIFM'
p2729
I1
sS'LWAA'
p2730
I1
sS'KKPV'
p2731
I1
sS'LLSQ'
p2732
I3
sS'LLSR'
p2733
I1
sS'WFGA'
p2734
I1
sS'LLSY'
p2735
I1
sS'GHTP'
p2736
I1
sS'PSQM'
p2737
I1
sS'SGEQ'
p2738
I1
sS'AEGP'
p2739
I2
sS'AEGK'
p2740
I1
sS'VHLA'
p2741
I1
sS'AEGL'
p2742
I1
sS'TGYD'
p2743
I6
sS'EHEM'
p2744
I2
sS'AEGA'
p2745
I1
sS'TQLY'
p2746
I1
sS'ARVV'
p2747
I2
sS'HGSP'
p2748
I1
sS'TAGP'
p2749
I1
sS'GAIG'
p2750
I1
sS'GNFN'
p2751
I1
sS'APTS'
p2752
I1
sS'FAAT'
p2753
I1
sS'FTST'
p2754
I2
sS'TAGA'
p2755
I1
sS'PSPV'
p2756
I1
sS'LVSR'
p2757
I4
sS'HLSS'
p2758
I1
sS'MFGL'
p2759
I5
sS'IIQQ'
p2760
I2
sS'RVAA'
p2761
I1
sS'MEWF'
p2762
I1
sS'PSPS'
p2763
I1
sS'YFAS'
p2764
I1
sS'VMVH'
p2765
I2
sS'STRI'
p2766
I1
sS'LEII'
p2767
I5
sS'RVAR'
p2768
I3
sS'SPRE'
p2769
I1
sS'YLGL'
p2770
I2
sS'PEGM'
p2771
I1
sS'PEGN'
p2772
I1
sS'PCGV'
p2773
I1
sS'FNHY'
p2774
I1
sS'LFIF'
p2775
I1
sS'LRPA'
p2776
I1
sS'LRPG'
p2777
I1
sS'PEGT'
p2778
I2
sS'GRSR'
p2779
I1
sS'LRPI'
p2780
I2
sS'LRPL'
p2781
I2
sS'SGKH'
p2782
I1
sS'TEKE'
p2783
I1
sS'AGAA'
p2784
I3
sS'KEIN'
p2785
I1
sS'NKLL'
p2786
I1
sS'ELGE'
p2787
I1
sS'SECL'
p2788
I1
sS'AGAS'
p2789
I4
sS'AGAR'
p2790
I1
sS'AGAV'
p2791
I4
sS'IRQS'
p2792
I1
sS'KEIS'
p2793
I1
sS'EGMG'
p2794
I1
sS'TVAG'
p2795
I3
sS'AKMM'
p2796
I2
sS'CGVQ'
p2797
I1
sS'FREC'
p2798
I1
sS'YVVL'
p2799
I2
sS'PAAP'
p2800
I1
sS'NLFV'
p2801
I1
sS'IYDW'
p2802
I1
sS'PGTD'
p2803
I1
sS'PAAV'
p2804
I1
sS'ALFY'
p2805
I1
sS'MQPL'
p2806
I1
sS'GRSG'
p2807
I1
sS'FEPS'
p2808
I1
sS'GRFV'
p2809
I1
sS'MVDS'
p2810
I1
sS'FKDG'
p2811
I2
sS'KHAE'
p2812
I1
sS'SRLS'
p2813
I1
sS'IRQN'
p2814
I1
sS'MMFS'
p2815
I1
sS'GRFA'
p2816
I5
sS'RAFS'
p2817
I4
sS'SIDG'
p2818
I1
sS'TLGA'
p2819
I6
sS'PAEG'
p2820
I2
sS'PAEE'
p2821
I3
sS'TLGK'
p2822
I1
sS'GSLP'
p2823
I5
sS'MGTI'
p2824
I1
sS'PAER'
p2825
I1
sS'SEQE'
p2826
I1
sS'ELIR'
p2827
I1
sS'RFVA'
p2828
I1
sS'GSLF'
p2829
I4
sS'DTAA'
p2830
I1
sS'GAGV'
p2831
I1
sS'ASRD'
p2832
I1
sS'RWFL'
p2833
I4
sS'ASRK'
p2834
I2
sS'GAGE'
p2835
I2
sS'LSRS'
p2836
I1
sS'GAGA'
p2837
I1
sS'LSRV'
p2838
I3
sS'GAGL'
p2839
I8
sS'KSGL'
p2840
I1
sS'VGAE'
p2841
I2
sS'DVEE'
p2842
I4
sS'EIIS'
p2843
I5
sS'LKEP'
p2844
I2
sS'KSIL'
p2845
I1
sS'KSIN'
p2846
I3
sS'FLRE'
p2847
I1
sS'ESLV'
p2848
I1
sS'ESLP'
p2849
I4
sS'LFGG'
p2850
I2
sS'WLSL'
p2851
I6
sS'SNGA'
p2852
I1
sS'SSEQ'
p2853
I1
sS'PLRP'
p2854
I4
sS'QGPS'
p2855
I1
sS'LDGY'
p2856
I3
sS'SGYF'
p2857
I1
sS'LDGC'
p2858
I2
sS'GPDV'
p2859
I1
sS'SSEC'
p2860
I1
sS'PLRA'
p2861
I1
sS'LYRQ'
p2862
I4
sS'PLRM'
p2863
I1
sS'SCIE'
p2864
I4
sS'YQRD'
p2865
I1
sS'IEPL'
p2866
I5
sS'LVAE'
p2867
I1
sS'EPTE'
p2868
I2
sS'GMQT'
p2869
I1
sS'GGEA'
p2870
I6
sS'ATAR'
p2871
I1
sS'AFPG'
p2872
I1
sS'GIVG'
p2873
I1
sS'EYLN'
p2874
I7
sS'SLSA'
p2875
I2
sS'NSMR'
p2876
I1
sS'IGDS'
p2877
I1
sS'ITDV'
p2878
I5
sS'AVIV'
p2879
I1
sS'IGDE'
p2880
I2
sS'HNWI'
p2881
I1
sS'AVIR'
p2882
I1
sS'APEE'
p2883
I2
sS'APEG'
p2884
I2
sS'APEL'
p2885
I1
sS'APEM'
p2886
I1
sS'LPRP'
p2887
I1
sS'SSSA'
p2888
I1
sS'QLSE'
p2889
I1
sS'SSSG'
p2890
I3
sS'LIGL'
p2891
I2
sS'VFLN'
p2892
I1
sS'SSSH'
p2893
I1
sS'DKEV'
p2894
I1
sS'SSSL'
p2895
I4
sS'SSSW'
p2896
I1
sS'SSST'
p2897
I1
sS'SLES'
p2898
I1
sS'SLEP'
p2899
I1
sS'RKKS'
p2900
I1
sS'EAVT'
p2901
I1
sS'GDSC'
p2902
I1
sS'LSLV'
p2903
I1
sS'WQTV'
p2904
I1
sS'GDST'
p2905
I1
sS'FVAK'
p2906
I5
sS'LSLK'
p2907
I6
sS'EAVE'
p2908
I1
sS'PTMQ'
p2909
I1
sS'TREP'
p2910
I1
sS'RKKM'
p2911
I1
sS'LSLA'
p2912
I6
sS'IGVA'
p2913
I1
sS'QSLD'
p2914
I1
sS'QSLE'
p2915
I5
sS'TAFQ'
p2916
I5
sS'ARGR'
p2917
I5
sS'QSLN'
p2918
I1
sS'FVDS'
p2919
I1
sS'FVDL'
p2920
I2
sS'RVSE'
p2921
I2
sS'ERVS'
p2922
I3
sS'HLLL'
p2923
I1
sS'LVPL'
p2924
I2
sS'KIND'
p2925
I1
sS'TGFD'
p2926
I2
sS'LGLL'
p2927
I2
sS'SNTP'
p2928
I1
sS'ATLA'
p2929
I1
sS'TEVE'
p2930
I1
sS'TEVI'
p2931
I1
sS'SPQG'
p2932
I2
sS'RVGD'
p2933
I5
sS'TPCP'
p2934
I1
sS'GSPA'
p2935
I2
sS'EVPP'
p2936
I1
sS'DSTR'
p2937
I1
sS'EVPE'
p2938
I2
sS'EVPD'
p2939
I1
sS'GSPQ'
p2940
I1
sS'FDFS'
p2941
I7
sS'IVHV'
p2942
I3
sS'SDLT'
p2943
I4
sS'GLIS'
p2944
I2
sS'GGSA'
p2945
I3
sS'VNEL'
p2946
I3
sS'GGSG'
p2947
I1
sS'WLVK'
p2948
I5
sS'YEWD'
p2949
I6
sS'VVVC'
p2950
I1
sS'GGSP'
p2951
I2
sS'VQDL'
p2952
I2
sS'ELTR'
p2953
I2
sS'GGEG'
p2954
I1
sS'NLGR'
p2955
I1
sS'ALAL'
p2956
I2
sS'GLLS'
p2957
I3
sS'AEDH'
p2958
I1
sS'LEEM'
p2959
I1
sS'AGPA'
p2960
I4
sS'GRLL'
p2961
I2
sS'AEDS'
p2962
I2
sS'TKPM'
p2963
I1
sS'HKMA'
p2964
I6
sS'YEKE'
p2965
I1
sS'GRLI'
p2966
I2
sS'YREC'
p2967
I1
sS'FASK'
p2968
I1
sS'PLAE'
p2969
I5
sS'RAAP'
p2970
I2
sS'RAAS'
p2971
I1
sS'NNWK'
p2972
I1
sS'SIED'
p2973
I1
sS'FGMQ'
p2974
I1
sS'MTHV'
p2975
I1
sS'YPGI'
p2976
I2
sS'LLTQ'
p2977
I1
sS'STQT'
p2978
I1
sS'GHSS'
p2979
I4
sS'FIIQ'
p2980
I1
sS'GLLA'
p2981
I2
sS'DQEI'
p2982
I1
sS'PSPI'
p2983
I2
sS'NIAT'
p2984
I1
sS'PSPF'
p2985
I1
sS'PSPA'
p2986
I1
sS'HGRF'
p2987
I1
sS'NIAL'
p2988
I5
sS'DRNL'
p2989
I1
sS'AKHL'
p2990
I5
sS'WRMH'
p2991
I1
sS'TATQ'
p2992
I1
sS'TATP'
p2993
I2
sS'TATS'
p2994
I1
sS'PSPP'
p2995
I2
sS'KARR'
p2996
I2
sS'NNAA'
p2997
I4
sS'DGPS'
p2998
I1
sS'SRAA'
p2999
I1
sS'FLSY'
p3000
I4
sS'PTRR'
p3001
I2
sS'FLST'
p3002
I1
sS'PPPV'
p3003
I2
sS'EGNH'
p3004
I1
sS'EINA'
p3005
I1
sS'ASAE'
p3006
I2
sS'ASAA'
p3007
I2
sS'GRLV'
p3008
I1
sS'NWIQ'
p3009
I1
sS'RPIV'
p3010
I2
sS'LFDF'
p3011
I7
sS'MAQA'
p3012
I4
sS'ADFM'
p3013
I1
sS'VAAA'
p3014
I1
sS'PLSA'
p3015
I1
sS'LYQD'
p3016
I1
sS'LYQE'
p3017
I1
sS'PLSE'
p3018
I1
sS'VFQS'
p3019
I1
sS'DAPA'
p3020
I1
sS'FNIQ'
p3021
I1
sS'HSSY'
p3022
I1
sS'SWQQ'
p3023
I2
sS'SWQS'
p3024
I2
sS'GRGS'
p3025
I1
sS'PEFE'
p3026
I1
sS'PLAP'
p3027
I1
sS'LFVY'
p3028
I1
sS'LRQM'
p3029
I1
sS'LFVE'
p3030
I1
sS'VVHL'
p3031
I6
sS'PEHE'
p3032
I1
sS'LRQA'
p3033
I3
sS'CDRE'
p3034
I1
sS'LYCG'
p3035
I5
sS'RAGD'
p3036
I4
sS'EENR'
p3037
I4
sS'LDVA'
p3038
I1
sS'AART'
p3039
I4
sS'VPLG'
p3040
I1
sS'RSGA'
p3041
I1
sS'EQIM'
p3042
I1
sS'SCPH'
p3043
I1
sS'ELFR'
p3044
I12
sS'VPLV'
p3045
I2
sS'VVEE'
p3046
I7
sS'DCHT'
p3047
I1
s.