(dp1
S'GVMA'
p2
I2
sS'GTIV'
p3
I4
sS'SGML'
p4
I1
sS'LPAC'
p5
I2
sS'VFMV'
p6
I3
sS'KVQD'
p7
I2
sS'YSCE'
p8
I4
sS'SCLE'
p9
I1
sS'TTRK'
p10
I1
sS'LASH'
p11
I1
sS'RAGV'
p12
I1
sS'FYGL'
p13
I4
sS'VRTS'
p14
I1
sS'LASN'
p15
I1
sS'TRAE'
p16
I2
sS'MSAV'
p17
I1
sS'GSMQ'
p18
I1
sS'AGLK'
p19
I1
sS'CKQP'
p20
I1
sS'LTLG'
p21
I1
sS'RRKR'
p22
I1
sS'MSAD'
p23
I1
sS'GSMC'
p24
I2
sS'ASSL'
p25
I5
sS'VLRN'
p26
I1
sS'KLLA'
p27
I3
sS'VLRK'
p28
I3
sS'HIVC'
p29
I1
sS'VLRE'
p30
I2
sS'ACLK'
p31
I2
sS'RQRL'
p32
I1
sS'REMA'
p33
I1
sS'VLRQ'
p34
I1
sS'ASSR'
p35
I2
sS'GSQH'
p36
I1
sS'LNKV'
p37
I1
sS'LAAA'
p38
I1
sS'TPLM'
p39
I1
sS'SVRK'
p40
I2
sS'GQEK'
p41
I1
sS'TPLI'
p42
I1
sS'GSQT'
p43
I1
sS'DLRS'
p44
I1
sS'PYME'
p45
I1
sS'SFKA'
p46
I1
sS'AVVT'
p47
I2
sS'EPQR'
p48
I1
sS'LLCD'
p49
I1
sS'VQGL'
p50
I1
sS'DSEL'
p51
I1
sS'PKCV'
p52
I2
sS'TPRA'
p53
I2
sS'DSED'
p54
I2
sS'EIRT'
p55
I1
sS'APDP'
p56
I1
sS'RLLF'
p57
I1
sS'AVHD'
p58
I1
sS'TCGM'
p59
I1
sS'KKAQ'
p60
I1
sS'SLRN'
p61
I1
sS'FTCG'
p62
I1
sS'RLLS'
p63
I1
sS'DYAM'
p64
I2
sS'DYAG'
p65
I2
sS'APDN'
p66
I1
sS'SPPG'
p67
I1
sS'SYPS'
p68
I1
sS'VHDA'
p69
I1
sS'DKPF'
p70
I3
sS'SPPK'
p71
I1
sS'IYND'
p72
I1
sS'VARV'
p73
I4
sS'RAVE'
p74
I1
sS'PSSL'
p75
I2
sS'RSKS'
p76
I1
sS'VSEN'
p77
I1
sS'PNDS'
p78
I1
sS'LKRK'
p79
I1
sS'AKID'
p80
I1
sS'VSEP'
p81
I1
sS'PITL'
p82
I1
sS'ATEE'
p83
I3
sS'TAET'
p84
I2
sS'AKGR'
p85
I1
sS'KMLQ'
p86
I3
sS'ARFT'
p87
I1
sS'ATER'
p88
I1
sS'GLTA'
p89
I3
sS'TAEN'
p90
I2
sS'AKGG'
p91
I1
sS'QPSK'
p92
I1
sS'QMDY'
p93
I2
sS'LQKP'
p94
I1
sS'RVCD'
p95
I3
sS'RKVW'
p96
I1
sS'PYSN'
p97
I2
sS'RKVR'
p98
I2
sS'IVET'
p99
I2
sS'ALVL'
p100
I1
sS'QPSP'
p101
I1
sS'ALVI'
p102
I1
sS'LQKG'
p103
I2
sS'MVLQ'
p104
I3
sS'MVLH'
p105
I1
sS'LIYL'
p106
I1
sS'LRVL'
p107
I5
sS'LEAL'
p108
I1
sS'SGIA'
p109
I2
sS'KEKP'
p110
I1
sS'AASS'
p111
I1
sS'PTSL'
p112
I1
sS'AASL'
p113
I2
sS'AASC'
p114
I1
sS'SCQE'
p115
I3
sS'SCQG'
p116
I4
sS'QRQR'
p117
I1
sS'RQDP'
p118
I1
sS'EEAR'
p119
I1
sS'QRQG'
p120
I1
sS'YLSA'
p121
I2
sS'YLSN'
p122
I1
sS'AYTS'
p123
I1
sS'SRRG'
p124
I2
sS'SMVD'
p125
I2
sS'YGLY'
p126
I3
sS'AQLA'
p127
I1
sS'NLDH'
p128
I4
sS'YGLL'
p129
I1
sS'KWAY'
p130
I1
sS'HVSQ'
p131
I2
sS'NLDP'
p132
I1
sS'AQLS'
p133
I1
sS'YGLG'
p134
I3
sS'LGHM'
p135
I3
sS'MEVT'
p136
I1
sS'AAAR'
p137
I1
sS'PAKI'
p138
I1
sS'PAKK'
p139
I1
sS'CVKL'
p140
I2
sS'PAKA'
p141
I1
sS'RDTL'
p142
I2
sS'EGQP'
p143
I1
sS'KPST'
p144
I1
sS'RDTV'
p145
I1
sS'KPSR'
p146
I1
sS'KPSS'
p147
I1
sS'KLKD'
p148
I2
sS'VLSG'
p149
I1
sS'DTCL'
p150
I3
sS'TTAD'
p151
I1
sS'PPSE'
p152
I3
sS'PRQR'
p153
I1
sS'VLSY'
p154
I2
sS'RELL'
p155
I3
sS'RELA'
p156
I1
sS'VLSS'
p157
I1
sS'KAET'
p158
I1
sS'RRLC'
p159
I1
sS'GRRV'
p160
I1
sS'LKGQ'
p161
I1
sS'QWQQ'
p162
I1
sS'SKTL'
p163
I2
sS'KASL'
p164
I1
sS'LKGL'
p165
I1
sS'GRRL'
p166
I1
sS'LYPR'
p167
I2
sS'KLKS'
p168
I2
sS'PESG'
p169
I1
sS'RLQQ'
p170
I2
sS'LEDL'
p171
I5
sS'RLQH'
p172
I1
sS'DDCF'
p173
I2
sS'RLQL'
p174
I1
sS'LRDN'
p175
I1
sS'LYPK'
p176
I1
sS'VLAE'
p177
I2
sS'EKKR'
p178
I4
sS'GASL'
p179
I1
sS'GASA'
p180
I1
sS'LSNL'
p181
I1
sS'LSNQ'
p182
I1
sS'EKKF'
p183
I1
sS'GQTW'
p184
I1
sS'DQHG'
p185
I1
sS'RLML'
p186
I1
sS'RVLF'
p187
I2
sS'SLQE'
p188
I3
sS'HSKD'
p189
I3
sS'ITRL'
p190
I1
sS'EDPP'
p191
I2
sS'YMLR'
p192
I2
sS'SSQD'
p193
I2
sS'RLRS'
p194
I1
sS'GVLS'
p195
I2
sS'EDPK'
p196
I2
sS'GVLT'
p197
I2
sS'HSYM'
p198
I1
sS'VYCT'
p199
I1
sS'ITTG'
p200
I1
sS'VDEA'
p201
I1
sS'ITRF'
p202
I1
sS'FDVD'
p203
I2
sS'AIDK'
p204
I2
sS'TDDC'
p205
I2
sS'TADR'
p206
I4
sS'QMEY'
p207
I1
sS'TGHM'
p208
I3
sS'AREE'
p209
I2
sS'GHML'
p210
I6
sS'EVDA'
p211
I1
sS'IVDD'
p212
I2
sS'KGLT'
p213
I3
sS'QMEV'
p214
I1
sS'KGLL'
p215
I1
sS'FMSY'
p216
I1
sS'TGHV'
p217
I1
sS'TMEL'
p218
I1
sS'EVDW'
p219
I2
sS'CNEK'
p220
I1
sS'ITFD'
p221
I2
sS'DHKR'
p222
I2
sS'LTLV'
p223
I3
sS'SVRT'
p224
I1
sS'GQFL'
p225
I2
sS'RKGC'
p226
I4
sS'RKGL'
p227
I3
sS'RKGI'
p228
I4
sS'TRHP'
p229
I1
sS'DLSS'
p230
I2
sS'GCQR'
p231
I1
sS'LLDA'
p232
I2
sS'DKAL'
p233
I1
sS'GMET'
p234
I1
sS'LLDK'
p235
I2
sS'DISR'
p236
I1
sS'RQGR'
p237
I1
sS'YLRV'
p238
I2
sS'AWIS'
p239
I1
sS'AGRR'
p240
I1
sS'ELVT'
p241
I1
sS'LTPV'
p242
I1
sS'NKSG'
p243
I2
sS'YLRE'
p244
I4
sS'ELVL'
p245
I2
sS'QRPK'
p246
I1
sS'AETR'
p247
I4
sS'QRPF'
p248
I3
sS'YLRL'
p249
I1
sS'AQMT'
p250
I1
sS'SDVA'
p251
I1
sS'LRSP'
p252
I1
sS'KQSP'
p253
I1
sS'LHHV'
p254
I2
sS'TKRV'
p255
I1
sS'CLYE'
p256
I3
sS'FRVC'
p257
I3
sS'DLEL'
p258
I1
sS'QGTR'
p259
I1
sS'LENL'
p260
I1
sS'TSEN'
p261
I1
sS'MILE'
p262
I2
sS'RAQL'
p263
I1
sS'FRVS'
p264
I2
sS'VWTS'
p265
I2
sS'DLES'
p266
I3
sS'DKSL'
p267
I2
sS'GLYS'
p268
I3
sS'PSRV'
p269
I1
sS'VSDI'
p270
I4
sS'QCDR'
p271
I1
sS'TFKL'
p272
I1
sS'TARD'
p273
I1
sS'PSRE'
p274
I2
sS'PLPG'
p275
I1
sS'PSRI'
p276
I1
sS'FSTW'
p277
I4
sS'NHSR'
p278
I1
sS'ASCL'
p279
I1
sS'KATL'
p280
I3
sS'KATM'
p281
I2
sS'CQSC'
p282
I1
sS'DGRE'
p283
I3
sS'KATF'
p284
I4
sS'PERG'
p285
I1
sS'LREV'
p286
I4
sS'VVTQ'
p287
I4
sS'CDNK'
p288
I1
sS'DFLG'
p289
I1
sS'KDTM'
p290
I1
sS'LREK'
p291
I1
sS'LREL'
p292
I3
sS'LFTS'
p293
I1
sS'LFTP'
p294
I1
sS'FLCL'
p295
I2
sS'CSPP'
p296
I1
sS'LRWT'
p297
I4
sS'LFTA'
p298
I2
sS'PQPK'
p299
I1
sS'LRWA'
p300
I2
sS'LFTL'
p301
I1
sS'IRTL'
p302
I1
sS'EELR'
p303
I1
sS'SENI'
p304
I1
sS'SENL'
p305
I1
sS'GDLQ'
p306
I1
sS'KEDP'
p307
I2
sS'KEDL'
p308
I2
sS'CDPS'
p309
I2
sS'MEYL'
p310
I3
sS'EELD'
p311
I1
sS'MEYA'
p312
I1
sS'LIDI'
p313
I1
sS'NSEL'
p314
I1
sS'WMPG'
p315
I1
sS'ELTE'
p316
I1
sS'VPVC'
p317
I1
sS'SQNI'
p318
I3
sS'LCMY'
p319
I1
sS'LAQE'
p320
I2
sS'RQPK'
p321
I1
sS'GTYM'
p322
I2
sS'DPTM'
p323
I1
sS'VRDT'
p324
I2
sS'PPQR'
p325
I2
sS'GTYS'
p326
I1
sS'MSCD'
p327
I2
sS'PHAG'
p328
I3
sS'NGSY'
p329
I3
sS'TYSV'
p330
I1
sS'SAPD'
p331
I2
sS'ACNE'
p332
I1
sS'YAMK'
p333
I3
sS'VLPQ'
p334
I1
sS'SAPP'
p335
I3
sS'CRVS'
p336
I3
sS'CRVT'
p337
I1
sS'EGAD'
p338
I1
sS'RVST'
p339
I3
sS'SAEA'
p340
I1
sS'RIVK'
p341
I2
sS'RKFG'
p342
I1
sS'RVSN'
p343
I2
sS'PRKF'
p344
I1
sS'LNIK'
p345
I1
sS'SDIR'
p346
I1
sS'DETD'
p347
I1
sS'LLED'
p348
I3
sS'RIMK'
p349
I2
sS'LLEL'
p350
I1
sS'GALT'
p351
I1
sS'KSPS'
p352
I1
sS'DSGA'
p353
I1
sS'REQP'
p354
I1
sS'WQWH'
p355
I1
sS'VLFS'
p356
I1
sS'VLFT'
p357
I1
sS'REQD'
p358
I2
sS'PFFL'
p359
I2
sS'GALI'
p360
I2
sS'RRKQ'
p361
I2
sS'EREQ'
p362
I1
sS'ESVS'
p363
I1
sS'RPSL'
p364
I1
sS'QTKR'
p365
I1
sS'QQQL'
p366
I1
sS'TDSG'
p367
I1
sS'QTKK'
p368
I1
sS'EPQV'
p369
I1
sS'FTAE'
p370
I2
sS'EREL'
p371
I1
sS'FRWA'
p372
I1
sS'IKAT'
p373
I1
sS'VARQ'
p374
I2
sS'KWQP'
p375
I2
sS'DLFG'
p376
I3
sS'SDGG'
p377
I2
sS'RAPL'
p378
I1
sS'LVLL'
p379
I2
sS'SLRS'
p380
I2
sS'QHTL'
p381
I1
sS'VSKE'
p382
I1
sS'QVGL'
p383
I1
sS'QTWQ'
p384
I1
sS'AKKI'
p385
I1
sS'GEPQ'
p386
I1
sS'VSKP'
p387
I1
sS'EYAM'
p388
I1
sS'EFGR'
p389
I1
sS'DITR'
p390
I2
sS'ATGH'
p391
I3
sS'ATGL'
p392
I1
sS'QAKG'
p393
I1
sS'RGSR'
p394
I1
sS'RITF'
p395
I2
sS'MFMV'
p396
I1
sS'YMQQ'
p397
I2
sS'TCSP'
p398
I1
sS'IVCH'
p399
I1
sS'ALPR'
p400
I1
sS'EAIK'
p401
I1
sS'IYRP'
p402
I2
sS'ARDY'
p403
I2
sS'LNWD'
p404
I1
sS'EAIQ'
p405
I2
sS'LKWK'
p406
I1
sS'DRSV'
p407
I2
sS'DRSS'
p408
I2
sS'DRSR'
p409
I2
sS'SNQK'
p410
I1
sS'QAWQ'
p411
I1
sS'SCLS'
p412
I3
sS'KRSG'
p413
I1
sS'HGYV'
p414
I2
sS'NVSQ'
p415
I1
sS'QDFI'
p416
I4
sS'WTSA'
p417
I2
sS'KGQK'
p418
I6
sS'KEER'
p419
I1
sS'WTST'
p420
I1
sS'QREE'
p421
I2
sS'KGCI'
p422
I1
sS'WTSS'
p423
I1
sS'KPCL'
p424
I2
sS'CAEL'
p425
I1
sS'TYSL'
p426
I3
sS'KGCV'
p427
I1
sS'VETE'
p428
I4
sS'NKRT'
p429
I1
sS'KGCQ'
p430
I1
sS'KRAK'
p431
I1
sS'NVAR'
p432
I2
sS'SKHS'
p433
I2
sS'IMKE'
p434
I2
sS'KGCL'
p435
I1
sS'KRAQ'
p436
I1
sS'KRAR'
p437
I1
sS'LECD'
p438
I1
sS'SYDI'
p439
I2
sS'AQEE'
p440
I2
sS'SYDL'
p441
I4
sS'FWSA'
p442
I1
sS'YGNR'
p443
I2
sS'STLL'
p444
I1
sS'AELL'
p445
I1
sS'HKGQ'
p446
I1
sS'GLGH'
p447
I3
sS'STLQ'
p448
I1
sS'LLYP'
p449
I3
sS'SKDI'
p450
I3
sS'RSVS'
p451
I3
sS'RSVR'
p452
I2
sS'VSYD'
p453
I3
sS'FPSV'
p454
I1
sS'LDKA'
p455
I1
sS'TLKP'
p456
I1
sS'AYNN'
p457
I1
sS'TLKE'
p458
I1
sS'META'
p459
I1
sS'GDAG'
p460
I1
sS'KPQT'
p461
I1
sS'EQRK'
p462
I2
sS'ENIA'
p463
I1
sS'DGGT'
p464
I2
sS'KAGR'
p465
I1
sS'DTEE'
p466
I3
sS'ARQS'
p467
I1
sS'EGSL'
p468
I1
sS'AQVT'
p469
I1
sS'DAGV'
p470
I1
sS'QILT'
p471
I1
sS'SAQV'
p472
I1
sS'AELA'
p473
I1
sS'TSMV'
p474
I1
sS'VLQK'
p475
I2
sS'AAQE'
p476
I1
sS'EGAE'
p477
I1
sS'STLR'
p478
I3
sS'AAQM'
p479
I1
sS'FQAL'
p480
I3
sS'WNSA'
p481
I1
sS'AAQY'
p482
I1
sS'NEPH'
p483
I2
sS'ILKL'
p484
I2
sS'RPLT'
p485
I2
sS'FLVL'
p486
I2
sS'RWTL'
p487
I2
sS'RWTS'
p488
I2
sS'RPLK'
p489
I1
sS'FLVY'
p490
I1
sS'FSMR'
p491
I1
sS'FSMQ'
p492
I3
sS'MLVD'
p493
I1
sS'VLGD'
p494
I1
sS'LSHK'
p495
I2
sS'SACK'
p496
I1
sS'WQPP'
p497
I2
sS'EKEG'
p498
I2
sS'PKDF'
p499
I2
sS'HCSG'
p500
I1
sS'QLKE'
p501
I2
sS'NSAP'
p502
I1
sS'KVLR'
p503
I1
sS'YCTP'
p504
I1
sS'PIPG'
p505
I1
sS'KVLL'
p506
I1
sS'LPND'
p507
I2
sS'RLKR'
p508
I1
sS'KVLE'
p509
I1
sS'RLKP'
p510
I1
sS'FTFD'
p511
I1
sS'EDDT'
p512
I3
sS'QELL'
p513
I5
sS'IQGL'
p514
I1
sS'FNPN'
p515
I1
sS'QELI'
p516
I2
sS'FEAD'
p517
I1
sS'LMHP'
p518
I1
sS'ILEK'
p519
I2
sS'FSCQ'
p520
I4
sS'LTPI'
p521
I1
sS'SLAD'
p522
I1
sS'QELR'
p523
I1
sS'KVRD'
p524
I2
sS'KVRK'
p525
I2
sS'TRYQ'
p526
I1
sS'SCKF'
p527
I1
sS'FPSL'
p528
I1
sS'VIAT'
p529
I1
sS'LDKV'
p530
I1
sS'CIRF'
p531
I1
sS'WAYN'
p532
I1
sS'LCLY'
p533
I3
sS'CTGL'
p534
I1
sS'PNDA'
p535
I1
sS'LCLP'
p536
I2
sS'EFFQ'
p537
I3
sS'LSSM'
p538
I1
sS'QSPR'
p539
I1
sS'HLHS'
p540
I1
sS'YNSS'
p541
I1
sS'EYFY'
p542
I4
sS'AVST'
p543
I3
sS'EYFQ'
p544
I4
sS'QEKP'
p545
I1
sS'YTSM'
p546
I1
sS'ARKK'
p547
I1
sS'ALSW'
p548
I1
sS'ALSQ'
p549
I1
sS'FMME'
p550
I1
sS'ALSH'
p551
I1
sS'NISS'
p552
I1
sS'ALSE'
p553
I1
sS'LALS'
p554
I2
sS'LALR'
p555
I2
sS'HSMA'
p556
I1
sS'YTAV'
p557
I1
sS'EVTS'
p558
I1
sS'RVTT'
p559
I1
sS'IATG'
p560
I1
sS'EVTD'
p561
I2
sS'EVTG'
p562
I1
sS'VLQS'
p563
I1
sS'IILL'
p564
I2
sS'QQLS'
p565
I1
sS'LLFT'
p566
I4
sS'QQLV'
p567
I2
sS'QWHG'
p568
I1
sS'QQLL'
p569
I4
sS'AGVK'
p570
I1
sS'SFDV'
p571
I1
sS'NDSE'
p572
I1
sS'NDSD'
p573
I1
sS'SVKL'
p574
I1
sS'CLED'
p575
I1
sS'AYSL'
p576
I1
sS'SMQA'
p577
I3
sS'NLKL'
p578
I4
sS'STKG'
p579
I1
sS'SMQQ'
p580
I1
sS'NPRD'
p581
I2
sS'SKED'
p582
I1
sS'SMQY'
p583
I1
sS'VAGR'
p584
I2
sS'NNSD'
p585
I1
sS'QPAR'
p586
I1
sS'DLGR'
p587
I1
sS'YKVN'
p588
I1
sS'LELG'
p589
I1
sS'LELY'
p590
I1
sS'AFHE'
p591
I1
sS'LQHT'
p592
I1
sS'LWDE'
p593
I1
sS'KLVH'
p594
I4
sS'YPKS'
p595
I1
sS'PDDV'
p596
I1
sS'TSGA'
p597
I1
sS'SYSA'
p598
I1
sS'QGVG'
p599
I1
sS'LELV'
p600
I1
sS'PSTV'
p601
I1
sS'GNRE'
p602
I2
sS'HDAE'
p603
I1
sS'PSTK'
p604
I1
sS'KTLD'
p605
I2
sS'DIAR'
p606
I3
sS'RSCE'
p607
I1
sS'AQYN'
p608
I1
sS'SKSG'
p609
I2
sS'DGTV'
p610
I2
sS'DGTT'
p611
I3
sS'CHKL'
p612
I1
sS'RSCQ'
p613
I3
sS'DGTI'
p614
I4
sS'YNNS'
p615
I1
sS'APQR'
p616
I1
sS'CHKK'
p617
I4
sS'SREQ'
p618
I1
sS'DGTA'
p619
I2
sS'PGLP'
p620
I1
sS'SRET'
p621
I3
sS'TCLM'
p622
I3
sS'DGTE'
p623
I4
sS'KCVK'
p624
I2
sS'IKEQ'
p625
I1
sS'QGFV'
p626
I1
sS'KAVL'
p627
I1
sS'RHLH'
p628
I1
sS'LRKP'
p629
I1
sS'AENL'
p630
I2
sS'PQDF'
p631
I4
sS'LRKG'
p632
I4
sS'CMYE'
p633
I1
sS'FSLV'
p634
I2
sS'SIIL'
p635
I2
sS'WFMM'
p636
I1
sS'LKVR'
p637
I1
sS'WDIR'
p638
I1
sS'GCIR'
p639
I1
sS'WDIK'
p640
I1
sS'PQVG'
p641
I1
sS'NDAE'
p642
I1
sS'AAQQ'
p643
I1
sS'KIDV'
p644
I4
sS'PLMH'
p645
I1
sS'YFYR'
p646
I1
sS'YFYS'
p647
I2
sS'DPDD'
p648
I1
sS'RQSC'
p649
I1
sS'AEAS'
p650
I2
sS'VVDT'
p651
I2
sS'YFYG'
p652
I1
sS'TGIS'
p653
I1
sS'RQSK'
p654
I2
sS'EEFL'
p655
I1
sS'SSLQ'
p656
I2
sS'RPCR'
p657
I4
sS'IQDG'
p658
I2
sS'SSLE'
p659
I1
sS'SSLI'
p660
I1
sS'KQLL'
p661
I2
sS'GVAA'
p662
I4
sS'SSLL'
p663
I4
sS'SRIY'
p664
I3
sS'VPTC'
p665
I1
sS'DDTC'
p666
I3
sS'SPLP'
p667
I1
sS'TVVP'
p668
I2
sS'IPTL'
p669
I1
sS'PVRK'
p670
I1
sS'GKVQ'
p671
I1
sS'FHEP'
p672
I1
sS'DDTV'
p673
I1
sS'VTLV'
p674
I3
sS'HKLQ'
p675
I1
sS'TLLQ'
p676
I1
sS'YFWS'
p677
I1
sS'AALS'
p678
I1
sS'ELLA'
p679
I2
sS'EQST'
p680
I1
sS'ELLD'
p681
I2
sS'MCAV'
p682
I2
sS'RDSS'
p683
I1
sS'ELLR'
p684
I5
sS'TLLL'
p685
I2
sS'KPPS'
p686
I1
sS'WSPR'
p687
I1
sS'HKLK'
p688
I1
sS'NPNG'
p689
I1
sS'EGTE'
p690
I1
sS'WSPT'
p691
I1
sS'PSEQ'
p692
I4
sS'KLHC'
p693
I1
sS'WQGY'
p694
I1
sS'RHRL'
p695
I1
sS'WQGF'
p696
I1
sS'LSYD'
p697
I3
sS'LSYG'
p698
I3
sS'SARR'
p699
I1
sS'VLVI'
p700
I1
sS'MVLL'
p701
I1
sS'RTII'
p702
I1
sS'HSLE'
p703
I3
sS'CTTE'
p704
I1
sS'MSYA'
p705
I1
sS'HSLR'
p706
I2
sS'PKAP'
p707
I1
sS'TRLL'
p708
I1
sS'RTIR'
p709
I1
sS'TRLK'
p710
I1
sS'LSEE'
p711
I3
sS'DSSM'
p712
I1
sS'ADEP'
p713
I1
sS'IARV'
p714
I2
sS'MVLE'
p715
I2
sS'LLGT'
p716
I5
sS'LLGI'
p717
I3
sS'LLGK'
p718
I1
sS'LSEP'
p719
I2
sS'HKLE'
p720
I1
sS'LNGV'
p721
I1
sS'RALH'
p722
I2
sS'LGQS'
p723
I1
sS'FRSK'
p724
I1
sS'PPRQ'
p725
I1
sS'LSKH'
p726
I2
sS'WQQK'
p727
I1
sS'VNPQ'
p728
I1
sS'VLDD'
p729
I1
sS'TTVE'
p730
I3
sS'SADL'
p731
I1
sS'ADKP'
p732
I1
sS'VKLR'
p733
I3
sS'PPRK'
p734
I3
sS'VLDQ'
p735
I2
sS'SLNV'
p736
I2
sS'EDGT'
p737
I15
sS'CERE'
p738
I1
sS'RLHS'
p739
I1
sS'TFYG'
p740
I3
sS'PKGK'
p741
I1
sS'EPSA'
p742
I1
sS'RPQT'
p743
I2
sS'EPSR'
p744
I1
sS'SLNI'
p745
I1
sS'LQGL'
p746
I3
sS'LESV'
p747
I1
sS'SDEQ'
p748
I2
sS'TLQQ'
p749
I2
sS'LESR'
p750
I4
sS'DLHV'
p751
I1
sS'LVLS'
p752
I1
sS'AFGE'
p753
I1
sS'SPTR'
p754
I1
sS'DLHC'
p755
I4
sS'QHVP'
p756
I1
sS'DMDS'
p757
I1
sS'WVSQ'
p758
I1
sS'QSCA'
p759
I2
sS'AIQD'
p760
I2
sS'TSFK'
p761
I1
sS'RARQ'
p762
I1
sS'RARP'
p763
I4
sS'PSWF'
p764
I2
sS'QTQS'
p765
I1
sS'DIRR'
p766
I1
sS'TSTL'
p767
I1
sS'KQPA'
p768
I1
sS'KQPK'
p769
I1
sS'DIRC'
p770
I2
sS'ELYL'
p771
I1
sS'KQPV'
p772
I1
sS'KQPP'
p773
I2
sS'DIRK'
p774
I1
sS'KKKA'
p775
I1
sS'VLGS'
p776
I2
sS'RKRH'
p777
I1
sS'RKRM'
p778
I1
sS'IDIP'
p779
I1
sS'LAKA'
p780
I1
sS'ALRS'
p781
I1
sS'IACH'
p782
I3
sS'LAKD'
p783
I1
sS'VTDD'
p784
I2
sS'ALRW'
p785
I1
sS'FVAL'
p786
I2
sS'WISQ'
p787
I1
sS'TAAT'
p788
I2
sS'TAAS'
p789
I1
sS'LGCL'
p790
I1
sS'RKRQ'
p791
I2
sS'LTAL'
p792
I1
sS'ALRE'
p793
I1
sS'GLLR'
p794
I2
sS'GRLK'
p795
I1
sS'MKEA'
p796
I2
sS'GRLH'
p797
I1
sS'LFST'
p798
I4
sS'VNWE'
p799
I2
sS'LFSM'
p800
I4
sS'GLLF'
p801
I1
sS'TWHG'
p802
I2
sS'GTEL'
p803
I2
sS'RQRP'
p804
I1
sS'TGQF'
p805
I2
sS'VVEG'
p806
I1
sS'QPKK'
p807
I1
sS'AGQT'
p808
I1
sS'KGWF'
p809
I1
sS'WSAP'
p810
I1
sS'HCCG'
p811
I1
sS'YDTY'
p812
I3
sS'QRKK'
p813
I2
sS'KPAK'
p814
I2
sS'ALNW'
p815
I1
sS'ALNP'
p816
I1
sS'FPGL'
p817
I1
sS'YVPV'
p818
I1
sS'NTKF'
p819
I2
sS'DPKA'
p820
I2
sS'TPVT'
p821
I1
sS'SRRV'
p822
I1
sS'RALR'
p823
I1
sS'LHKG'
p824
I1
sS'VRPL'
p825
I1
sS'SYFD'
p826
I4
sS'QAPE'
p827
I1
sS'SRRK'
p828
I2
sS'NPSD'
p829
I1
sS'HVSV'
p830
I1
sS'SMRT'
p831
I1
sS'FGVA'
p832
I4
sS'DDCT'
p833
I1
sS'VPGS'
p834
I1
sS'IRSY'
p835
I2
sS'GKAS'
p836
I1
sS'QYNS'
p837
I1
sS'EQPS'
p838
I2
sS'EQPP'
p839
I1
sS'YSVS'
p840
I3
sS'AVEG'
p841
I2
sS'QYNG'
p842
I3
sS'VIQA'
p843
I3
sS'EEYF'
p844
I4
sS'YRPQ'
p845
I2
sS'EQPA'
p846
I1
sS'EEYL'
p847
I3
sS'TLML'
p848
I2
sS'DTGI'
p849
I1
sS'RPPR'
p850
I1
sS'DAEG'
p851
I1
sS'DAEL'
p852
I1
sS'WHGQ'
p853
I1
sS'RHSI'
p854
I2
sS'WHGY'
p855
I2
sS'SASK'
p856
I1
sS'DTGV'
p857
I1
sS'FKLR'
p858
I1
sS'SKPS'
p859
I1
sS'HKKT'
p860
I4
sS'DVYK'
p861
I3
sS'KEGN'
p862
I1
sS'SGAL'
p863
I1
sS'HVAV'
p864
I2
sS'KEGS'
p865
I1
sS'VCDH'
p866
I2
sS'SRDQ'
p867
I1
sS'VCDN'
p868
I1
sS'PSKA'
p869
I1
sS'LRYS'
p870
I4
sS'QKPK'
p871
I1
sS'LRHV'
p872
I1
sS'SNMS'
p873
I1
sS'LISK'
p874
I2
sS'QKPT'
p875
I2
sS'LRHA'
p876
I1
sS'GQPP'
p877
I1
sS'KLEC'
p878
I1
sS'PFRV'
p879
I5
sS'HCDP'
p880
I1
sS'VLEL'
p881
I1
sS'VLEE'
p882
I9
sS'MGLQ'
p883
I1
sS'PRKQ'
p884
I1
sS'TIIP'
p885
I1
sS'VLEQ'
p886
I1
sS'VLET'
p887
I1
sS'WQRQ'
p888
I1
sS'ISKT'
p889
I2
sS'QNIT'
p890
I2
sS'ATVQ'
p891
I2
sS'CESR'
p892
I4
sS'EKGQ'
p893
I2
sS'RERP'
p894
I1
sS'RRFL'
p895
I1
sS'EDFF'
p896
I2
sS'QNIA'
p897
I1
sS'LKML'
p898
I3
sS'EMYS'
p899
I2
sS'SSMS'
p900
I1
sS'QELC'
p901
I1
sS'SSMC'
p902
I1
sS'SQAK'
p903
I1
sS'TYML'
p904
I2
sS'SMSA'
p905
I1
sS'TTLK'
p906
I1
sS'PTKK'
p907
I2
sS'YFDR'
p908
I4
sS'ERPS'
p909
I1
sS'KALA'
p910
I2
sS'VHIV'
p911
I1
sS'DIQG'
p912
I1
sS'ERPK'
p913
I1
sS'TCLK'
p914
I1
sS'EALV'
p915
I1
sS'MLQK'
p916
I1
sS'EALR'
p917
I1
sS'TGLV'
p918
I2
sS'VEGT'
p919
I1
sS'HSAC'
p920
I1
sS'VKWK'
p921
I1
sS'QHGV'
p922
I2
sS'ITLV'
p923
I1
sS'VEGA'
p924
I2
sS'TGLK'
p925
I1
sS'ARIT'
p926
I2
sS'WTLF'
p927
I2
sS'RTVV'
p928
I2
sS'CKFG'
p929
I2
sS'RTVR'
p930
I1
sS'LVLA'
p931
I2
sS'VVPT'
p932
I2
sS'CTSF'
p933
I1
sS'LVLE'
p934
I9
sS'KVNP'
p935
I1
sS'IARF'
p936
I1
sS'IARI'
p937
I2
sS'CTSR'
p938
I1
sS'YSRE'
p939
I1
sS'VKAT'
p940
I8
sS'LSDE'
p941
I2
sS'ADDT'
p942
I1
sS'LGPK'
p943
I2
sS'EKPA'
p944
I1
sS'DSRA'
p945
I1
sS'TFDV'
p946
I3
sS'KYVP'
p947
I1
sS'RVVV'
p948
I1
sS'TFDL'
p949
I6
sS'TPIT'
p950
I1
sS'YLQA'
p951
I2
sS'LTTL'
p952
I1
sS'NTHF'
p953
I2
sS'EVNW'
p954
I2
sS'RSSR'
p955
I2
sS'EKPK'
p956
I2
sS'PDPD'
p957
I1
sS'YEMY'
p958
I2
sS'SMSC'
p959
I2
sS'LQTK'
p960
I1
sS'DCTS'
p961
I1
sS'SYGL'
p962
I3
sS'HVPT'
p963
I1
sS'NSSY'
p964
I1
sS'SPKP'
p965
I1
sS'SPKS'
p966
I1
sS'SPKA'
p967
I1
sS'PWFE'
p968
I2
sS'CQGP'
p969
I4
sS'SMAM'
p970
I1
sS'QGPF'
p971
I4
sS'AAAV'
p972
I1
sS'PSVP'
p973
I1
sS'KKVL'
p974
I2
sS'KWTP'
p975
I1
sS'WKNV'
p976
I2
sS'HARH'
p977
I1
sS'VCKQ'
p978
I1
sS'DAVD'
p979
I2
sS'SKQE'
p980
I1
sS'DCFP'
p981
I2
sS'SRGA'
p982
I1
sS'DTVF'
p983
I3
sS'SKQL'
p984
I2
sS'LTGD'
p985
I1
sS'ILTT'
p986
I1
sS'LIRP'
p987
I2
sS'SCDI'
p988
I1
sS'ILTA'
p989
I1
sS'SNLD'
p990
I1
sS'LKPY'
p991
I1
sS'AKPS'
p992
I1
sS'LKPC'
p993
I2
sS'MCQR'
p994
I1
sS'SNRE'
p995
I2
sS'TELT'
p996
I2
sS'PQTG'
p997
I2
sS'SQDL'
p998
I2
sS'WTPG'
p999
I1
sS'ALID'
p1000
I1
sS'TELA'
p1001
I1
sS'PQTR'
p1002
I1
sS'KRTV'
p1003
I3
sS'KRTT'
p1004
I1
sS'MCQK'
p1005
I1
sS'ATFY'
p1006
I4
sS'ALIR'
p1007
I2
sS'VDSE'
p1008
I2
sS'GPKK'
p1009
I2
sS'IIEK'
p1010
I3
sS'LKLK'
p1011
I2
sS'KQNP'
p1012
I2
sS'RPAR'
p1013
I1
sS'QESF'
p1014
I2
sS'GPKR'
p1015
I1
sS'ILFS'
p1016
I3
sS'TSAP'
p1017
I2
sS'PVPG'
p1018
I1
sS'GTSS'
p1019
I2
sS'SEVL'
p1020
I1
sS'MEAA'
p1021
I1
sS'GDTE'
p1022
I1
sS'PDNS'
p1023
I1
sS'GTSC'
p1024
I2
sS'EVSS'
p1025
I1
sS'DDVR'
p1026
I1
sS'VVPA'
p1027
I1
sS'DEPD'
p1028
I1
sS'CQRL'
p1029
I2
sS'DDDY'
p1030
I2
sS'EEVR'
p1031
I1
sS'KASP'
p1032
I1
sS'EEVL'
p1033
I1
sS'KGIM'
p1034
I4
sS'SEDF'
p1035
I2
sS'QNPR'
p1036
I2
sS'DDDD'
p1037
I2
sS'KASS'
p1038
I1
sS'EEVD'
p1039
I1
sS'RDQH'
p1040
I1
sS'GFVS'
p1041
I1
sS'VPDN'
p1042
I1
sS'DVDD'
p1043
I1
sS'DVDE'
p1044
I1
sS'TVFM'
p1045
I3
sS'ASPP'
p1046
I1
sS'VLTL'
p1047
I2
sS'RHPL'
p1048
I1
sS'LIPT'
p1049
I2
sS'TLRD'
p1050
I1
sS'TLRH'
p1051
I2
sS'SQTK'
p1052
I1
sS'PARK'
p1053
I2
sS'IGCL'
p1054
I5
sS'RIRG'
p1055
I2
sS'TLRR'
p1056
I1
sS'RRGV'
p1057
I2
sS'GTAV'
p1058
I2
sS'GTAW'
p1059
I2
sS'ERAP'
p1060
I1
sS'PARP'
p1061
I2
sS'TIVE'
p1062
I2
sS'TIVD'
p1063
I2
sS'LSGA'
p1064
I1
sS'LGSM'
p1065
I2
sS'VLHK'
p1066
I1
sS'HPLS'
p1067
I1
sS'RVWN'
p1068
I1
sS'RVWT'
p1069
I1
sS'TMFM'
p1070
I1
sS'DNTH'
p1071
I2
sS'PYGN'
p1072
I2
sS'SAFN'
p1073
I1
sS'ACDI'
p1074
I1
sS'DHVI'
p1075
I1
sS'SAFH'
p1076
I1
sS'RKQP'
p1077
I4
sS'DSCL'
p1078
I1
sS'PFSL'
p1079
I2
sS'TTHK'
p1080
I4
sS'RGAS'
p1081
I1
sS'SLLY'
p1082
I3
sS'MDSC'
p1083
I1
sS'SWDI'
p1084
I1
sS'SLLQ'
p1085
I2
sS'SLLP'
p1086
I2
sS'SLLS'
p1087
I1
sS'SLLR'
p1088
I2
sS'AMKS'
p1089
I3
sS'ARKR'
p1090
I1
sS'RGAE'
p1091
I2
sS'RGAK'
p1092
I2
sS'SLLF'
p1093
I2
sS'IEKK'
p1094
I4
sS'LQEL'
p1095
I3
sS'VAVS'
p1096
I2
sS'LLKV'
p1097
I1
sS'ESKA'
p1098
I2
sS'IDKS'
p1099
I2
sS'LLKG'
p1100
I1
sS'GMLS'
p1101
I1
sS'SAVL'
p1102
I1
sS'QGQS'
p1103
I1
sS'VPTL'
p1104
I2
sS'LLWD'
p1105
I1
sS'GETW'
p1106
I2
sS'TSVV'
p1107
I2
sS'QQKG'
p1108
I1
sS'APLR'
p1109
I3
sS'QQKL'
p1110
I1
sS'SSCK'
p1111
I1
sS'QLVS'
p1112
I2
sS'DIPC'
p1113
I1
sS'KSVK'
p1114
I1
sS'KKID'
p1115
I3
sS'ARHR'
p1116
I1
sS'IAAE'
p1117
I2
sS'KKIL'
p1118
I1
sS'VKVR'
p1119
I1
sS'LAID'
p1120
I2
sS'PGSR'
p1121
I3
sS'PGSQ'
p1122
I1
sS'RKPK'
p1123
I1
sS'KSVQ'
p1124
I2
sS'FQSK'
p1125
I1
sS'DILK'
p1126
I2
sS'LKSV'
p1127
I2
sS'DILA'
p1128
I1
sS'FLDA'
p1129
I2
sS'HILT'
p1130
I1
sS'LYLQ'
p1131
I2
sS'TGSR'
p1132
I2
sS'DSDG'
p1133
I1
sS'DRWQ'
p1134
I1
sS'RVTF'
p1135
I6
sS'ALHS'
p1136
I2
sS'QPKC'
p1137
I2
sS'IRKA'
p1138
I1
sS'KGGS'
p1139
I1
sS'NKVQ'
p1140
I1
sS'QDPT'
p1141
I1
sS'LVGS'
p1142
I1
sS'IYLG'
p1143
I1
sS'LQSG'
p1144
I1
sS'KWKS'
p1145
I1
sS'KWKP'
p1146
I1
sS'QMLV'
p1147
I1
sS'KWKN'
p1148
I2
sS'LQST'
p1149
I1
sS'RSRI'
p1150
I2
sS'NPQD'
p1151
I4
sS'MVDA'
p1152
I1
sS'CDIL'
p1153
I1
sS'MVDE'
p1154
I1
sS'DFIG'
p1155
I5
sS'LIQA'
p1156
I1
sS'PCAE'
p1157
I1
sS'GVPE'
p1158
I1
sS'LRNL'
p1159
I2
sS'ELAQ'
p1160
I1
sS'VPES'
p1161
I1
sS'ELAL'
p1162
I2
sS'YSMS'
p1163
I2
sS'MHPA'
p1164
I1
sS'SEED'
p1165
I2
sS'SGQS'
p1166
I1
sS'SEEL'
p1167
I1
sS'PVCK'
p1168
I1
sS'CDIQ'
p1169
I1
sS'TKED'
p1170
I1
sS'DTYS'
p1171
I3
sS'NIAA'
p1172
I2
sS'SCYL'
p1173
I2
sS'TVGA'
p1174
I1
sS'EGWF'
p1175
I4
sS'TTGH'
p1176
I1
sS'CYKA'
p1177
I1
sS'TTGL'
p1178
I1
sS'ESFD'
p1179
I1
sS'TEEG'
p1180
I1
sS'SRFQ'
p1181
I1
sS'RFLS'
p1182
I4
sS'KEAF'
p1183
I1
sS'TKKI'
p1184
I2
sS'KEAL'
p1185
I1
sS'IRCT'
p1186
I2
sS'MTGQ'
p1187
I1
sS'SRFL'
p1188
I1
sS'YRLN'
p1189
I2
sS'FLGC'
p1190
I1
sS'RNLS'
p1191
I1
sS'ASHI'
p1192
I1
sS'HIIE'
p1193
I3
sS'FQEP'
p1194
I1
sS'MRTT'
p1195
I1
sS'CATV'
p1196
I2
sS'VSSY'
p1197
I1
sS'ACEL'
p1198
I1
sS'PRDL'
p1199
I3
sS'GQRH'
p1200
I1
sS'ACER'
p1201
I1
sS'SSYP'
p1202
I1
sS'KQAP'
p1203
I1
sS'NGLL'
p1204
I1
sS'ISMV'
p1205
I1
sS'RETS'
p1206
I1
sS'AVAL'
p1207
I2
sS'RETP'
p1208
I2
sS'MYEM'
p1209
I2
sS'SLKM'
p1210
I1
sS'SSYF'
p1211
I1
sS'KDKP'
p1212
I2
sS'PKHS'
p1213
I3
sS'MYED'
p1214
I1
sS'ILAI'
p1215
I1
sS'VSAY'
p1216
I2
sS'KAKA'
p1217
I1
sS'RPFR'
p1218
I5
sS'EKWA'
p1219
I1
sS'KAKP'
p1220
I1
sS'KAKR'
p1221
I1
sS'QEPH'
p1222
I1
sS'EKWI'
p1223
I1
sS'PCSD'
p1224
I1
sS'HHVS'
p1225
I2
sS'LMLA'
p1226
I2
sS'PLTF'
p1227
I2
sS'VIEK'
p1228
I1
sS'GIAR'
p1229
I2
sS'LDAL'
p1230
I1
sS'CQEL'
p1231
I2
sS'VTSG'
p1232
I1
sS'LDAV'
p1233
I1
sS'TLAE'
p1234
I2
sS'LDAT'
p1235
I4
sS'CQEV'
p1236
I1
sS'PACL'
p1237
I2
sS'RRVW'
p1238
I2
sS'GTRH'
p1239
I1
sS'DLYK'
p1240
I4
sS'RGVM'
p1241
I2
sS'RGVL'
p1242
I1
sS'QSTR'
p1243
I1
sS'QSTL'
p1244
I1
sS'DLYR'
p1245
I2
sS'KKFG'
p1246
I1
sS'VEAI'
p1247
I1
sS'QVTG'
p1248
I1
sS'FMIL'
p1249
I2
sS'LCTP'
p1250
I4
sS'RTTR'
p1251
I1
sS'DDYF'
p1252
I2
sS'GISS'
p1253
I3
sS'GISR'
p1254
I1
sS'YSLL'
p1255
I2
sS'YSLE'
p1256
I1
sS'RTTG'
p1257
I1
sS'YSLS'
p1258
I4
sS'ETLL'
p1259
I2
sS'RKAE'
p1260
I1
sS'MLLG'
p1261
I6
sS'LGRE'
p1262
I2
sS'PPGD'
p1263
I1
sS'LGRK'
p1264
I1
sS'EYLR'
p1265
I3
sS'KRDS'
p1266
I1
sS'EVLR'
p1267
I2
sS'LSWD'
p1268
I1
sS'AELV'
p1269
I1
sS'TAWI'
p1270
I1
sS'KRQM'
p1271
I1
sS'LMLQ'
p1272
I1
sS'VESE'
p1273
I1
sS'ETPR'
p1274
I2
sS'EVLL'
p1275
I1
sS'TLGD'
p1276
I1
sS'FRNK'
p1277
I2
sS'EPDS'
p1278
I1
sS'TAWV'
p1279
I1
sS'YKLN'
p1280
I3
sS'RQMC'
p1281
I1
sS'HVVE'
p1282
I1
sS'ECDR'
p1283
I1
sS'RSQI'
p1284
I1
sS'LHVK'
p1285
I1
sS'STWN'
p1286
I4
sS'MQYN'
p1287
I1
sS'REVN'
p1288
I2
sS'RSQA'
p1289
I1
sS'TPEG'
p1290
I4
sS'CLSR'
p1291
I1
sS'VWNS'
p1292
I1
sS'LNPK'
p1293
I2
sS'FDVY'
p1294
I3
sS'SMCQ'
p1295
I2
sS'LLLR'
p1296
I1
sS'LLLT'
p1297
I2
sS'LGDN'
p1298
I1
sS'SMCH'
p1299
I1
sS'LLLK'
p1300
I1
sS'LLLL'
p1301
I2
sS'LLLN'
p1302
I1
sS'LGDT'
p1303
I1
sS'CLSK'
p1304
I2
sS'LNPS'
p1305
I1
sS'LNPQ'
p1306
I3
sS'TLGQ'
p1307
I1
sS'QGRL'
p1308
I1
sS'RFQL'
p1309
I3
sS'LKLV'
p1310
I4
sS'QQFL'
p1311
I2
sS'MMEY'
p1312
I1
sS'KKTT'
p1313
I4
sS'FGEE'
p1314
I1
sS'QRLL'
p1315
I1
sS'MPGS'
p1316
I2
sS'TQSL'
p1317
I1
sS'TSCY'
p1318
I2
sS'VSNI'
p1319
I1
sS'VSNH'
p1320
I2
sS'QTRL'
p1321
I1
sS'VSNM'
p1322
I1
sS'KKTE'
p1323
I1
sS'RFMS'
p1324
I1
sS'AWQG'
p1325
I1
sS'EQAP'
p1326
I3
sS'QRHL'
p1327
I1
sS'EEFF'
p1328
I3
sS'ELIS'
p1329
I2
sS'FKAV'
p1330
I1
sS'SRIR'
p1331
I4
sS'SRIL'
p1332
I3
sS'AQEL'
p1333
I2
sS'HKLH'
p1334
I1
sS'KNVA'
p1335
I2
sS'HKLN'
p1336
I1
sS'YPST'
p1337
I1
sS'DATE'
p1338
I4
sS'APRA'
p1339
I2
sS'AHSL'
p1340
I2
sS'PELS'
p1341
I2
sS'PSLR'
p1342
I1
sS'PSLP'
p1343
I1
sS'SKAA'
p1344
I3
sS'SKAC'
p1345
I2
sS'DIKK'
p1346
I1
sS'QAPQ'
p1347
I1
sS'SKAK'
p1348
I1
sS'FGSL'
p1349
I3
sS'SKAS'
p1350
I1
sS'AKRI'
p1351
I4
sS'DQRE'
p1352
I2
sS'QAPL'
p1353
I2
sS'AKRD'
p1354
I1
sS'NIKA'
p1355
I1
sS'KRVL'
p1356
I2
sS'LYKV'
p1357
I1
sS'ARSC'
p1358
I2
sS'KPFS'
p1359
I2
sS'EMAS'
p1360
I1
sS'GDTV'
p1361
I1
sS'QAAR'
p1362
I3
sS'KRPP'
p1363
I1
sS'LSRH'
p1364
I4
sS'PLIH'
p1365
I1
sS'LYKL'
p1366
I3
sS'KPFF'
p1367
I2
sS'KRVV'
p1368
I1
sS'RHVA'
p1369
I2
sS'KALE'
p1370
I2
sS'REEV'
p1371
I1
sS'REEY'
p1372
I2
sS'YAGA'
p1373
I2
sS'QKES'
p1374
I1
sS'REEA'
p1375
I1
sS'RHVS'
p1376
I1
sS'RHVV'
p1377
I1
sS'KSLS'
p1378
I4
sS'YAGT'
p1379
I1
sS'LLHN'
p1380
I1
sS'KSLT'
p1381
I2
sS'LLHH'
p1382
I2
sS'EDYF'
p1383
I1
sS'RLVG'
p1384
I1
sS'CVRF'
p1385
I1
sS'PCRV'
p1386
I4
sS'CDFQ'
p1387
I2
sS'SEPS'
p1388
I3
sS'SCDF'
p1389
I2
sS'CDHK'
p1390
I2
sS'DERA'
p1391
I1
sS'LDPS'
p1392
I1
sS'AGDT'
p1393
I1
sS'SGVL'
p1394
I2
sS'SEFG'
p1395
I1
sS'MAYS'
p1396
I1
sS'QKLQ'
p1397
I1
sS'PALA'
p1398
I1
sS'KPTK'
p1399
I2
sS'AYKP'
p1400
I1
sS'DFFQ'
p1401
I2
sS'PRKR'
p1402
I2
sS'CYLQ'
p1403
I2
sS'ENLK'
p1404
I4
sS'NLSA'
p1405
I1
sS'IRPL'
p1406
I2
sS'ACTT'
p1407
I1
sS'EQWQ'
p1408
I1
sS'RSMQ'
p1409
I1
sS'ESGE'
p1410
I1
sS'PAPE'
p1411
I1
sS'VTFD'
p1412
I6
sS'NSDG'
p1413
I1
sS'CTPA'
p1414
I1
sS'RILF'
p1415
I3
sS'CTPE'
p1416
I4
sS'RRAV'
p1417
I1
sS'YMEY'
p1418
I2
sS'FVSD'
p1419
I1
sS'GSYF'
p1420
I3
sS'LSAL'
p1421
I1
sS'RVYC'
p1422
I1
sS'LAYK'
p1423
I1
sS'LSAF'
p1424
I2
sS'PRDT'
p1425
I1
sS'LNCD'
p1426
I1
sS'LSAR'
p1427
I1
sS'NEKW'
p1428
I2
sS'AAFG'
p1429
I1
sS'DTLM'
p1430
I2
sS'TVRK'
p1431
I1
sS'GQSW'
p1432
I3
sS'RFQS'
p1433
I1
sS'GSKY'
p1434
I1
sS'PKKI'
p1435
I1
sS'GQAW'
p1436
I1
sS'PKKS'
p1437
I1
sS'PKKV'
p1438
I1
sS'MLAD'
p1439
I1
sS'LKEK'
p1440
I1
sS'LQCD'
p1441
I1
sS'CLRF'
p1442
I1
sS'IRRF'
p1443
I1
sS'TETV'
p1444
I1
sS'MLAY'
p1445
I1
sS'QSGQ'
p1446
I1
sS'DLLG'
p1447
I2
sS'DLLH'
p1448
I3
sS'DLLL'
p1449
I1
sS'APPR'
p1450
I1
sS'DLLN'
p1451
I1
sS'APPP'
p1452
I2
sS'DLLR'
p1453
I1
sS'DPPW'
p1454
I2
sS'NAEL'
p1455
I1
sS'ATMY'
p1456
I2
sS'QLPE'
p1457
I1
sS'QLPI'
p1458
I1
sS'LNVK'
p1459
I8
sS'QLPM'
p1460
I1
sS'ASEV'
p1461
I1
sS'QLPV'
p1462
I1
sS'SWFE'
p1463
I2
sS'ETAR'
p1464
I1
sS'LVYA'
p1465
I1
sS'PLRQ'
p1466
I3
sS'YISM'
p1467
I1
sS'LAGD'
p1468
I1
sS'EACE'
p1469
I1
sS'LTED'
p1470
I1
sS'TSLK'
p1471
I1
sS'YGTY'
p1472
I1
sS'SINP'
p1473
I4
sS'FGRR'
p1474
I1
sS'SRVY'
p1475
I1
sS'KWIY'
p1476
I1
sS'KRIV'
p1477
I2
sS'SHIL'
p1478
I1
sS'SGAS'
p1479
I1
sS'ESEE'
p1480
I1
sS'SGAG'
p1481
I1
sS'ARRS'
p1482
I1
sS'KRIM'
p1483
I2
sS'QDLE'
p1484
I2
sS'SGAK'
p1485
I1
sS'GYVS'
p1486
I3
sS'AKAL'
p1487
I1
sS'AKAK'
p1488
I1
sS'AKAG'
p1489
I1
sS'RIYK'
p1490
I1
sS'ETSS'
p1491
I1
sS'DRGA'
p1492
I4
sS'LRFQ'
p1493
I1
sS'AKAS'
p1494
I1
sS'LQQL'
p1495
I2
sS'IPCA'
p1496
I1
sS'RQLK'
p1497
I2
sS'RSPR'
p1498
I1
sS'NLLR'
p1499
I1
sS'STVG'
p1500
I1
sS'HVIE'
p1501
I1
sS'LEED'
p1502
I9
sS'SVFQ'
p1503
I1
sS'RSPL'
p1504
I1
sS'VQSL'
p1505
I1
sS'LGIS'
p1506
I3
sS'LQQV'
p1507
I3
sS'LQQT'
p1508
I1
sS'PDSR'
p1509
I1
sS'VVVP'
p1510
I1
sS'DPSS'
p1511
I1
sS'DPSR'
p1512
I2
sS'LDQR'
p1513
I2
sS'DPSW'
p1514
I2
sS'ELCQ'
p1515
I1
sS'HCYR'
p1516
I1
sS'SNIS'
p1517
I1
sS'HCYK'
p1518
I1
sS'LRLV'
p1519
I1
sS'AEQW'
p1520
I1
sS'LRLQ'
p1521
I2
sS'TVET'
p1522
I2
sS'RSLH'
p1523
I1
sS'TVES'
p1524
I1
sS'VRKR'
p1525
I1
sS'KEML'
p1526
I2
sS'NPKD'
p1527
I2
sS'HVKV'
p1528
I1
sS'VRKG'
p1529
I5
sS'TKGW'
p1530
I1
sS'KHSK'
p1531
I3
sS'NPKR'
p1532
I1
sS'RSLS'
p1533
I2
sS'VALN'
p1534
I1
sS'SRHV'
p1535
I3
sS'VALA'
p1536
I3
sS'PCLL'
p1537
I2
sS'SRHS'
p1538
I2
sS'CLNV'
p1539
I6
sS'RDNT'
p1540
I1
sS'EEGQ'
p1541
I1
sS'FQGL'
p1542
I1
sS'RHAV'
p1543
I1
sS'VSQE'
p1544
I1
sS'VSQN'
p1545
I3
sS'VCHK'
p1546
I1
sS'ILQM'
p1547
I1
sS'FQGV'
p1548
I1
sS'SCEE'
p1549
I1
sS'SAYT'
p1550
I1
sS'TVSE'
p1551
I1
sS'TRSG'
p1552
I1
sS'RFRN'
p1553
I2
sS'DTMF'
p1554
I1
sS'PKTF'
p1555
I1
sS'TVSS'
p1556
I1
sS'RFRS'
p1557
I1
sS'SCES'
p1558
I4
sS'EEEQ'
p1559
I2
sS'VYKQ'
p1560
I3
sS'RIRS'
p1561
I2
sS'SAYI'
p1562
I1
sS'QATG'
p1563
I3
sS'GAKA'
p1564
I1
sS'GAKG'
p1565
I1
sS'DNKR'
p1566
I1
sS'REVD'
p1567
I2
sS'GAKR'
p1568
I2
sS'KDIA'
p1569
I3
sS'REVS'
p1570
I3
sS'QLAL'
p1571
I2
sS'REVT'
p1572
I1
sS'LKIL'
p1573
I1
sS'YKAK'
p1574
I1
sS'NWEY'
p1575
I2
sS'INPY'
p1576
I4
sS'EKQA'
p1577
I1
sS'QEVL'
p1578
I1
sS'IQAA'
p1579
I4
sS'CSGA'
p1580
I1
sS'SQES'
p1581
I2
sS'PAAP'
p1582
I1
sS'MCHK'
p1583
I1
sS'SSII'
p1584
I2
sS'MELS'
p1585
I1
sS'QFLV'
p1586
I1
sS'SEQG'
p1587
I1
sS'YDLH'
p1588
I4
sS'SLSH'
p1589
I1
sS'CDEQ'
p1590
I1
sS'QFLI'
p1591
I1
sS'SEQS'
p1592
I1
sS'SEQR'
p1593
I2
sS'GDYF'
p1594
I1
sS'QLSL'
p1595
I1
sS'QQVQ'
p1596
I1
sS'ATLY'
p1597
I3
sS'TSSY'
p1598
I2
sS'WEYF'
p1599
I4
sS'LPVP'
p1600
I1
sS'QLSE'
p1601
I1
sS'GEEV'
p1602
I1
sS'KPKT'
p1603
I1
sS'TSSL'
p1604
I1
sS'QQVL'
p1605
I2
sS'ISQE'
p1606
I1
sS'DYFL'
p1607
I2
sS'SLSQ'
p1608
I1
sS'SRVL'
p1609
I1
sS'HSIN'
p1610
I4
sS'GGSR'
p1611
I1
sS'LTPL'
p1612
I1
sS'DYFW'
p1613
I1
sS'RIYR'
p1614
I2
sS'KPKS'
p1615
I1
sS'RNKS'
p1616
I2
sS'RQLL'
p1617
I3
sS'RNYS'
p1618
I1
sS'YVSD'
p1619
I3
sS'VTGD'
p1620
I1
sS'ATRQ'
p1621
I2
sS'HSSC'
p1622
I1
sS'LCDE'
p1623
I1
sS'VKEM'
p1624
I2
sS'SLIP'
p1625
I2
sS'LVHI'
p1626
I4
sS'VTGQ'
p1627
I1
sS'LGTS'
p1628
I4
sS'LGTV'
p1629
I1
sS'EARE'
p1630
I1
sS'LGTY'
p1631
I1
sS'FDLE'
p1632
I2
sS'EYLS'
p1633
I3
sS'CGME'
p1634
I1
sS'PMPG'
p1635
I1
sS'FDLY'
p1636
I6
sS'PFDL'
p1637
I2
sS'PFDM'
p1638
I1
sS'EARQ'
p1639
I1
sS'DNSE'
p1640
I1
sS'KKRA'
p1641
I1
sS'KTFK'
p1642
I1
sS'ETRE'
p1643
I2
sS'LVTK'
p1644
I1
sS'TQQL'
p1645
I3
sS'ETRA'
p1646
I2
sS'LVTL'
p1647
I2
sS'KKRP'
p1648
I1
sS'KKRT'
p1649
I3
sS'KKRV'
p1650
I1
sS'TQQQ'
p1651
I1
sS'GLQS'
p1652
I1
sS'GLQT'
p1653
I1
sS'IDVA'
p1654
I4
sS'TERE'
p1655
I1
sS'VGAE'
p1656
I2
sS'QMCA'
p1657
I1
sS'IYKP'
p1658
I1
sS'LEDD'
p1659
I3
sS'TERW'
p1660
I1
sS'LLPA'
p1661
I2
sS'ADRS'
p1662
I2
sS'RVLD'
p1663
I1
sS'ADRW'
p1664
I1
sS'RVLG'
p1665
I3
sS'LTFM'
p1666
I2
sS'RVLR'
p1667
I1
sS'RVLS'
p1668
I1
sS'DNAE'
p1669
I1
sS'ASLI'
p1670
I1
sS'ADRK'
p1671
I2
sS'VGSM'
p1672
I1
sS'TPGS'
p1673
I1
sS'TMYE'
p1674
I2
sS'LLNG'
p1675
I1
sS'QGLQ'
p1676
I1
sS'LHSA'
p1677
I1
sS'LLNK'
p1678
I1
sS'PFDV'
p1679
I1
sS'QGLG'
p1680
I5
sS'NMSA'
p1681
I1
sS'DVRP'
p1682
I1
sS'EQGQ'
p1683
I1
sS'EEDL'
p1684
I2
sS'EQGT'
p1685
I1
sS'LRQP'
p1686
I1
sS'EEDG'
p1687
I9
sS'YRAK'
p1688
I1
sS'YLRY'
p1689
I4
sS'CLMV'
p1690
I3
sS'AGTY'
p1691
I1
sS'HAVE'
p1692
I1
sS'VHSL'
p1693
I1
sS'RAED'
p1694
I2
sS'QACT'
p1695
I1
sS'GREV'
p1696
I4
sS'FTLE'
p1697
I1
sS'FLIY'
p1698
I1
sS'PSNT'
p1699
I2
sS'GRER'
p1700
I1
sS'VDAV'
p1701
I1
sS'VDAP'
p1702
I1
sS'ASKA'
p1703
I1
sS'GREM'
p1704
I1
sS'FEGL'
p1705
I4
sS'VDAA'
p1706
I1
sS'GREK'
p1707
I1
sS'PPPQ'
p1708
I2
sS'GRKV'
p1709
I1
sS'VQRL'
p1710
I1
sS'PTME'
p1711
I1
sS'RFTF'
p1712
I1
sS'MAHS'
p1713
I2
sS'RAKR'
p1714
I2
sS'FQTL'
p1715
I2
sS'HGVA'
p1716
I2
sS'ARQD'
p1717
I1
sS'ALET'
p1718
I1
sS'PLKP'
p1719
I1
sS'KTTH'
p1720
I4
sS'ARQL'
p1721
I5
sS'GLGP'
p1722
I2
sS'GLGQ'
p1723
I1
sS'GLGR'
p1724
I2
sS'KRHA'
p1725
I1
sS'ALEK'
p1726
I2
sS'ALEA'
p1727
I1
sS'LPIP'
p1728
I1
sS'AMYT'
p1729
I1
sS'SISA'
p1730
I1
sS'VDWE'
p1731
I2
sS'AEDP'
p1732
I2
sS'NWDI'
p1733
I1
sS'QEAC'
p1734
I1
sS'CSDL'
p1735
I1
sS'AAET'
p1736
I2
sS'QKGQ'
p1737
I2
sS'QKGR'
p1738
I1
sS'LDDK'
p1739
I1
sS'TLDV'
p1740
I1
sS'LSLL'
p1741
I3
sS'TLDA'
p1742
I1
sS'PVTL'
p1743
I1
sS'GVGR'
p1744
I1
sS'GVGP'
p1745
I1
sS'LYGT'
p1746
I1
sS'AYIS'
p1747
I1
sS'SNHD'
p1748
I2
sS'NYSR'
p1749
I1
sS'VITT'
p1750
I1
sS'KRTI'
p1751
I2
sS'YFQA'
p1752
I3
sS'KLRS'
p1753
I1
sS'RSKA'
p1754
I2
sS'HTLQ'
p1755
I1
sS'EERP'
p1756
I1
sS'YFQS'
p1757
I1
sS'KLRA'
p1758
I3
sS'TKFV'
p1759
I2
sS'AAVH'
p1760
I1
sS'AQQL'
p1761
I1
sS'HKPA'
p1762
I2
sS'GTEV'
p1763
I2
sS'GNIL'
p1764
I1
sS'SQHV'
p1765
I1
sS'GTER'
p1766
I1
sS'LLSD'
p1767
I2
sS'LVIT'
p1768
I1
sS'SLHS'
p1769
I3
sS'TLVE'
p1770
I1
sS'GVIQ'
p1771
I3
sS'LVIA'
p1772
I1
sS'HSRD'
p1773
I1
sS'TLVL'
p1774
I7
sS'SDIT'
p1775
I2
sS'RYQL'
p1776
I1
sS'LPER'
p1777
I1
sS'VLLT'
p1778
I3
sS'CYRA'
p1779
I1
sS'VLLR'
p1780
I1
sS'SALN'
p1781
I1
sS'TIRK'
p1782
I1
sS'TRFL'
p1783
I1
sS'FDMD'
p1784
I1
sS'VLLG'
p1785
I1
sS'LSCD'
p1786
I1
sS'MLQM'
p1787
I3
sS'EASS'
p1788
I2
sS'VLLK'
p1789
I1
sS'HRLM'
p1790
I1
sS'TVVD'
p1791
I2
sS'LSQK'
p1792
I2
sS'ACHK'
p1793
I3
sS'STVS'
p1794
I1
sS'QEES'
p1795
I1
sS'QEEY'
p1796
I1
sS'RWAL'
p1797
I2
sS'RWAS'
p1798
I1
sS'GAEQ'
p1799
I1
sS'SSTL'
p1800
I3
sS'QEEF'
p1801
I1
sS'GADR'
p1802
I1
sS'LEQG'
p1803
I1
sS'SVVT'
p1804
I2
sS'WALF'
p1805
I2
sS'SVFN'
p1806
I2
sS'IVKE'
p1807
I2
sS'CLPS'
p1808
I2
sS'EVSA'
p1809
I2
sS'SSYM'
p1810
I2
sS'LQAL'
p1811
I3
sS'EAAQ'
p1812
I1
sS'VGRE'
p1813
I1
sS'EAAR'
p1814
I1
sS'KQEE'
p1815
I1
sS'LQAA'
p1816
I1
sS'GCLN'
p1817
I6
sS'GGTA'
p1818
I2
sS'RLLA'
p1819
I1
sS'ELLL'
p1820
I2
sS'QNPK'
p1821
I1
sS'GCLR'
p1822
I1
sS'AIKE'
p1823
I1
sS'KEQD'
p1824
I1
sS'AVLP'
p1825
I1
sS'AVLR'
p1826
I3
sS'TSRH'
p1827
I1
sS'SLVL'
p1828
I2
sS'MDYA'
p1829
I2
sS'SLVG'
p1830
I1
sS'LQLY'
p1831
I1
sS'ISRF'
p1832
I1
sS'LEEL'
p1833
I1
sS'ISRE'
p1834
I1
sS'RNLL'
p1835
I1
sS'TEVT'
p1836
I2
sS'QVQS'
p1837
I1
sS'QSWS'
p1838
I3
sS'LVGA'
p1839
I1
sS'LCQS'
p1840
I1
sS'WIYN'
p1841
I1
sS'LAED'
p1842
I2
sS'GHVL'
p1843
I1
sS'SYLR'
p1844
I2
sS'DRKV'
p1845
I2
sS'KRKQ'
p1846
I1
sS'TWNL'
p1847
I4
sS'ARPF'
p1848
I2
sS'AEAQ'
p1849
I1
sS'AEAP'
p1850
I1
sS'ARPC'
p1851
I4
sS'AEAR'
p1852
I1
sS'HGQR'
p1853
I1
sS'AEAI'
p1854
I2
sS'QPAK'
p1855
I1
sS'NILS'
p1856
I1
sS'AGET'
p1857
I2
sS'KKSG'
p1858
I1
sS'QAAQ'
p1859
I2
sS'LSYS'
p1860
I1
sS'APRR'
p1861
I1
sS'GLPN'
p1862
I1
sS'KTET'
p1863
I1
sS'KGKA'
p1864
I1
sS'KESK'
p1865
I1
sS'LLQL'
p1866
I1
sS'LGKV'
p1867
I1
sS'LLQG'
p1868
I3
sS'LEKE'
p1869
I2
sS'LEKG'
p1870
I2
sS'MVHS'
p1871
I1
sS'ILSN'
p1872
I1
sS'THKL'
p1873
I4
sS'MQQK'
p1874
I1
sS'LRRA'
p1875
I1
sS'KPYM'
p1876
I1
sS'LRRN'
p1877
I2
sS'NQKE'
p1878
I1
sS'DVAL'
p1879
I1
sS'EESK'
p1880
I1
sS'VPAL'
p1881
I1
sS'YFPS'
p1882
I1
sS'DVAR'
p1883
I4
sS'LHCS'
p1884
I1
sS'KPKH'
p1885
I2
sS'IMAH'
p1886
I2
sS'ELSL'
p1887
I2
sS'RSLL'
p1888
I1
sS'LHCY'
p1889
I2
sS'IRGY'
p1890
I2
sS'VRFQ'
p1891
I1
sS'RDLF'
p1892
I3
sS'EQDP'
p1893
I2
sS'YNGS'
p1894
I3
sS'LHCC'
p1895
I1
sS'IMAY'
p1896
I1
sS'LHCD'
p1897
I1
sS'WSPK'
p1898
I1
sS'ELSR'
p1899
I2
sS'EQDG'
p1900
I1
sS'CLLR'
p1901
I2
sS'ASLQ'
p1902
I1
sS'ASLV'
p1903
I1
sS'FNEP'
p1904
I2
sS'SDIS'
p1905
I1
sS'PSAE'
p1906
I1
sS'ASLL'
p1907
I1
sS'RFTC'
p1908
I1
sS'TVQE'
p1909
I1
sS'GIMA'
p1910
I3
sS'TRQE'
p1911
I2
sS'TVQQ'
p1912
I1
sS'GIMV'
p1913
I1
sS'TVQR'
p1914
I1
sS'KAAF'
p1915
I1
sS'RCTG'
p1916
I1
sS'KAAL'
p1917
I1
sS'GAEA'
p1918
I4
sS'NHDR'
p1919
I2
sS'KAAS'
p1920
I1
sS'RCTS'
p1921
I1
sS'EPHA'
p1922
I3
sS'IHPA'
p1923
I1
sS'KHSI'
p1924
I2
sS'KLQC'
p1925
I1
sS'KLQA'
p1926
I1
sS'HFMI'
p1927
I2
sS'DAAA'
p1928
I1
sS'NRES'
p1929
I4
sS'VDTG'
p1930
I2
sS'KSKA'
p1931
I1
sS'VDTE'
p1932
I2
sS'GPFD'
p1933
I4
sS'GTVS'
p1934
I1
sS'GTVV'
p1935
I2
sS'SNEK'
p1936
I1
sS'TLEN'
p1937
I1
sS'DDKE'
p1938
I1
sS'PPKG'
p1939
I1
sS'QQTQ'
p1940
I1
sS'AFRW'
p1941
I1
sS'PGSK'
p1942
I1
sS'PPKS'
p1943
I1
sS'PPKR'
p1944
I1
sS'HPAR'
p1945
I2
sS'ISSE'
p1946
I1
sS'QTLG'
p1947
I1
sS'RRNH'
p1948
I1
sS'NITA'
p1949
I2
sS'ISST'
p1950
I3
sS'LVDA'
p1951
I1
sS'RSIS'
p1952
I1
sS'APCS'
p1953
I1
sS'RRNY'
p1954
I1
sS'QTLR'
p1955
I1
sS'CQKL'
p1956
I1
sS'YQLA'
p1957
I1
sS'EDLH'
p1958
I1
sS'RLCM'
p1959
I1
sS'LMVL'
p1960
I3
sS'EDLS'
p1961
I2
sS'EDLR'
p1962
I1
sS'EDLQ'
p1963
I2
sS'DLQN'
p1964
I1
sS'PSDL'
p1965
I1
sS'ISAS'
p1966
I1
sS'VQDI'
p1967
I2
sS'QQAC'
p1968
I1
sS'LAVA'
p1969
I2
sS'FDRG'
p1970
I4
sS'VRQS'
p1971
I1
sS'LGQE'
p1972
I1
sS'EAPR'
p1973
I1
sS'TGDY'
p1974
I1
sS'AKDT'
p1975
I1
sS'ALAA'
p1976
I1
sS'KILQ'
p1977
I1
sS'KILR'
p1978
I1
sS'LGQA'
p1979
I1
sS'VALS'
p1980
I1
sS'EFLR'
p1981
I1
sS'TGDA'
p1982
I1
sS'CELL'
p1983
I1
sS'IIPT'
p1984
I1
sS'FQSL'
p1985
I1
sS'LQNP'
p1986
I1
sS'LLRR'
p1987
I2
sS'LLRS'
p1988
I5
sS'LLRW'
p1989
I3
sS'STSV'
p1990
I1
sS'LAEA'
p1991
I2
sS'LLRK'
p1992
I2
sS'YKPF'
p1993
I1
sS'PDNA'
p1994
I1
sS'YPRS'
p1995
I2
sS'SPSE'
p1996
I1
sS'LLRF'
p1997
I2
sS'LLRG'
p1998
I1
sS'LADD'
p1999
I1
sS'RTSV'
p2000
I1
sS'LPMP'
p2001
I1
sS'GSRL'
p2002
I5
sS'LADL'
p2003
I4
sS'TPAA'
p2004
I1
sS'CAVL'
p2005
I2
sS'LADK'
p2006
I1
sS'EAFR'
p2007
I1
sS'RMCA'
p2008
I1
sS'GSRR'
p2009
I2
sS'DEQA'
p2010
I3
sS'EVRQ'
p2011
I1
sS'QPVR'
p2012
I1
sS'RHAR'
p2013
I1
sS'LETL'
p2014
I2
sS'DKEE'
p2015
I1
sS'PKPS'
p2016
I1
sS'STAV'
p2017
I2
sS'CLKI'
p2018
I1
sS'IRFQ'
p2019
I1
sS'AGVI'
p2020
I3
sS'ELRQ'
p2021
I1
sS'CLKM'
p2022
I2
sS'ELRS'
p2023
I1
sS'QDIL'
p2024
I2
sS'VAAR'
p2025
I2
sS'VAAS'
p2026
I2
sS'HMLL'
p2027
I6
sS'STAD'
p2028
I3
sS'QRLQ'
p2029
I2
sS'AGVP'
p2030
I1
sS'QRLR'
p2031
I1
sS'QDGR'
p2032
I3
sS'DAPC'
p2033
I1
sS'QKWQ'
p2034
I2
sS'QKWT'
p2035
I1
sS'RESR'
p2036
I4
sS'QKWK'
p2037
I2
sS'QKWM'
p2038
I1
sS'VSVR'
p2039
I1
sS'VHIA'
p2040
I3
sS'FIGC'
p2041
I5
sS'SYME'
p2042
I1
sS'CCGA'
p2043
I1
sS'SYMQ'
p2044
I2
sS'DLAQ'
p2045
I1
sS'AFNP'
p2046
I1
sS'EDLL'
p2047
I3
sS'TAVD'
p2048
I2
sS'WFEG'
p2049
I4
sS'QVLD'
p2050
I2
sS'TAVV'
p2051
I2
sS'TWQG'
p2052
I1
sS'TAVS'
p2053
I1
sS'TGVG'
p2054
I1
sS'GLES'
p2055
I4
sS'VFNE'
p2056
I2
sS'RWQR'
p2057
I1
sS'ESRV'
p2058
I1
sS'RWQW'
p2059
I1
sS'KAPR'
p2060
I1
sS'WNLD'
p2061
I4
sS'RLCT'
p2062
I4
sS'ILLS'
p2063
I2
sS'ESCL'
p2064
I2
sS'HKRT'
p2065
I2
sS'LRAL'
p2066
I3
sS'MASE'
p2067
I1
sS'SQIL'
p2068
I1
sS'LYSL'
p2069
I1
sS'LYSM'
p2070
I2
sS'RPKH'
p2071
I1
sS'RRSP'
p2072
I1
sS'SEKK'
p2073
I1
sS'AAPR'
p2074
I1
sS'MASS'
p2075
I2
sS'YDIR'
p2076
I2
sS'LSKQ'
p2077
I1
sS'SSDV'
p2078
I1
sS'RPKR'
p2079
I1
sS'RRSG'
p2080
I1
sS'AETV'
p2081
I1
sS'LRSV'
p2082
I3
sS'GLKG'
p2083
I1
sS'ILRE'
p2084
I1
sS'LRSQ'
p2085
I2
sS'AVDT'
p2086
I2
sS'GLKW'
p2087
I1
sS'LYED'
p2088
I3
sS'LRSM'
p2089
I1
sS'LRSL'
p2090
I2
sS'LRSK'
p2091
I2
sS'LRSI'
p2092
I1
sS'SWSP'
p2093
I3
sS'AATR'
p2094
I2
sS'ESRF'
p2095
I4
sS'ELDA'
p2096
I1
sS'AVDS'
p2097
I2
sS'MQAT'
p2098
I3
sS'EGLE'
p2099
I4
sS'KVWT'
p2100
I1
sS'SSRL'
p2101
I2
sS'YSAQ'
p2102
I1
sS'LPGE'
p2103
I1
sS'SSRR'
p2104
I2
sS'GVKW'
p2105
I1
sS'RYSC'
p2106
I4
sS'LSVF'
p2107
I3
sS'PTLA'
p2108
I2
sS'MLSY'
p2109
I1
sS'EAQE'
p2110
I1
sS'QDPS'
p2111
I2
sS'PTLV'
p2112
I1
sS'ESRI'
p2113
I7
sS'VTTA'
p2114
I1
sS'PRRS'
p2115
I1
sS'MGSQ'
p2116
I1
sS'KLNP'
p2117
I3
sS'PRRK'
p2118
I1
sS'DVLV'
p2119
I1
sS'TLFS'
p2120
I2
sS'KLNC'
p2121
I1
sS'FYSL'
p2122
I2
sS'REKP'
p2123
I1
sS'REKQ'
p2124
I1
sS'NCDP'
p2125
I1
sS'PPWF'
p2126
I2
sS'KFVA'
p2127
I2
sS'LSSI'
p2128
I2
sS'KDFL'
p2129
I1
sS'EPSP'
p2130
I1
sS'KDFI'
p2131
I1
sS'LSSQ'
p2132
I2
sS'GQKW'
p2133
I6
sS'LACN'
p2134
I1
sS'VGPK'
p2135
I1
sS'SVPD'
p2136
I1
sS'IKKT'
p2137
I1
sS'LLAK'
p2138
I1
sS'PKSG'
p2139
I1
sS'LLAI'
p2140
I1
sS'PKSK'
p2141
I1
sS'TFMG'
p2142
I2
sS'LLAD'
p2143
I4
sS'PKSL'
p2144
I1
sS'VQEA'
p2145
I1
sS'PKSV'
p2146
I1
sS'WFSC'
p2147
I4
sS'QLLW'
p2148
I1
sS'CFPS'
p2149
I1
sS'QLLS'
p2150
I3
sS'QLLQ'
p2151
I1
sS'EMLR'
p2152
I2
sS'QLLE'
p2153
I4
sS'QLLD'
p2154
I2
sS'QLLC'
p2155
I1
sS'RGYL'
p2156
I2
sS'PKAL'
p2157
I2
sS'HNVS'
p2158
I1
sS'RNHS'
p2159
I1
sS'DWEY'
p2160
I2
sS'TVQG'
p2161
I1
sS'LPQP'
p2162
I1
sS'RLNP'
p2163
I2
sS'SLTP'
p2164
I2
sS'GVAG'
p2165
I2
sS'LVEA'
p2166
I1
sS'ETEE'
p2167
I4
sS'WKSP'
p2168
I1
sS'LLSE'
p2169
I3
sS'DKVL'
p2170
I1
sS'LHSE'
p2171
I1
sS'YEDG'
p2172
I4
sS'LESC'
p2173
I2
sS'LHSM'
p2174
I1
sS'LHSL'
p2175
I2
sS'LLSK'
p2176
I1
sS'LHSS'
p2177
I1
sS'LLSV'
p2178
I1
sS'LHSY'
p2179
I1
sS'KWMP'
p2180
I1
sS'MYTA'
p2181
I1
sS'QGYV'
p2182
I1
sS'AEGR'
p2183
I1
sS'GYLR'
p2184
I6
sS'SGEI'
p2185
I1
sS'PGEP'
p2186
I1
sS'KRMC'
p2187
I1
sS'ARVT'
p2188
I6
sS'LVSK'
p2189
I1
sS'FTSE'
p2190
I1
sS'TAGQ'
p2191
I1
sS'GLVT'
p2192
I2
sS'MKSL'
p2193
I3
sS'LVSE'
p2194
I1
sS'TAGE'
p2195
I2
sS'QSKQ'
p2196
I2
sS'ERWQ'
p2197
I1
sS'QSKS'
p2198
I1
sS'ETWH'
p2199
I2
sS'YKPQ'
p2200
I1
sS'STRY'
p2201
I1
sS'ALTL'
p2202
I1
sS'YKQS'
p2203
I1
sS'IPGS'
p2204
I1
sS'YLGT'
p2205
I1
sS'FMVL'
p2206
I4
sS'SPRR'
p2207
I1
sS'VQQA'
p2208
I1
sS'SPRK'
p2209
I1
sS'LQMD'
p2210
I2
sS'LQME'
p2211
I2
sS'NVKA'
p2212
I8
sS'YKQN'
p2213
I2
sS'SPRD'
p2214
I1
sS'LQML'
p2215
I1
sS'VDDD'
p2216
I2
sS'VDDC'
p2217
I1
sS'LYDT'
p2218
I2
sS'VMAS'
p2219
I2
sS'PEGW'
p2220
I4
sS'ERGS'
p2221
I1
sS'ASAP'
p2222
I1
sS'AGAL'
p2223
I2
sS'IRKG'
p2224
I1
sS'EQHG'
p2225
I1
sS'EEQP'
p2226
I3
sS'EGRE'
p2227
I1
sS'ELGQ'
p2228
I1
sS'VGLI'
p2229
I1
sS'TEEF'
p2230
I2
sS'QMTG'
p2231
I1
sS'TEEE'
p2232
I2
sS'RLCL'
p2233
I3
sS'ALFS'
p2234
I2
sS'TEEY'
p2235
I4
sS'YLQQ'
p2236
I2
sS'TEEQ'
p2237
I1
sS'SRLC'
p2238
I7
sS'NPYG'
p2239
I2
sS'SEEF'
p2240
I1
sS'GRFT'
p2241
I1
sS'VQYN'
p2242
I2
sS'NPYS'
p2243
I2
sS'ASNE'
p2244
I1
sS'PTCL'
p2245
I1
sS'YFLC'
p2246
I2
sS'QTGS'
p2247
I2
sS'VTQQ'
p2248
I4
sS'WASS'
p2249
I1
sS'GSLN'
p2250
I3
sS'FYRL'
p2251
I1
sS'GSLL'
p2252
I1
sS'GTTV'
p2253
I3
sS'PTCS'
p2254
I1
sS'SCAT'
p2255
I2
sS'ACKF'
p2256
I1
sS'QKLL'
p2257
I3
sS'LSRG'
p2258
I1
sS'KACE'
p2259
I1
sS'KACD'
p2260
I1
sS'KSGY'
p2261
I4
sS'LSRR'
p2262
I1
sS'SVQY'
p2263
I2
sS'GAGL'
p2264
I1
sS'KSGM'
p2265
I1
sS'NGVL'
p2266
I1
sS'KSGI'
p2267
I1
sS'TTEL'
p2268
I1
sS'KFGV'
p2269
I4
sS'FLRV'
p2270
I1
sS'HIAC'
p2271
I3
sS'QFLD'
p2272
I2
sS'LKED'
p2273
I2
sS'KAQL'
p2274
I1
sS'SGYL'
p2275
I4
sS'LRFL'
p2276
I1
sS'LRFM'
p2277
I1
sS'LYRL'
p2278
I2
sS'DFQG'
p2279
I2
sS'SSEF'
p2280
I1
sS'LFGS'
p2281
I3
sS'SSEL'
p2282
I1
sS'ADLL'
p2283
I4
sS'ADLG'
p2284
I1
sS'DEAA'
p2285
I1
sS'FFLV'
p2286
I2
sS'CGAK'
p2287
I1
sS'ITAE'
p2288
I2
sS'SLSC'
p2289
I1
sS'ETDS'
p2290
I1
sS'LPRD'
p2291
I1
sS'SLSL'
p2292
I3
sS'RTLK'
p2293
I1
sS'SLSR'
p2294
I3
sS'SLSS'
p2295
I2
sS'SLSY'
p2296
I3
sS'WKPP'
p2297
I1
sS'APEL'
p2298
I2
sS'GEIR'
p2299
I1
sS'HAGV'
p2300
I3
sS'ESFE'
p2301
I1
sS'SQKP'
p2302
I2
sS'SLED'
p2303
I4
sS'SLEE'
p2304
I1
sS'TLYG'
p2305
I1
sS'VTKE'
p2306
I1
sS'TLYD'
p2307
I2
sS'RKKR'
p2308
I2
sS'PRAR'
p2309
I4
sS'MLRW'
p2310
I2
sS'MLRV'
p2311
I2
sS'LSLS'
p2312
I4
sS'LRGV'
p2313
I1
sS'VYAG'
p2314
I1
sS'TREQ'
p2315
I2
sS'RKKK'
p2316
I1
sS'FYDT'
p2317
I1
sS'ETVQ'
p2318
I2
sS'QSLA'
p2319
I1
sS'QALI'
p2320
I1
sS'QSLH'
p2321
I2
sS'QALA'
p2322
I2
sS'FTPL'
p2323
I1
sS'QALE'
p2324
I2
sS'SRFR'
p2325
I3
sS'QALP'
p2326
I1
sS'TSSD'
p2327
I1
sS'LTAG'
p2328
I3
sS'QPPK'
p2329
I2
sS'CEEV'
p2330
I1
sS'THFM'
p2331
I2
sS'LQLP'
p2332
I1
sS'IMVH'
p2333
I1
sS'RQKL'
p2334
I3
sS'QPPS'
p2335
I2
sS'QPPR'
p2336
I2
sS'ALRL'
p2337
I2
sS'TRKG'
p2338
I1
sS'DHII'
p2339
I3
sS'LTAA'
p2340
I3
sS'FMGL'
p2341
I1
sS'SVSY'
p2342
I3
sS'IPTS'
p2343
I1
sS'SVST'
p2344
I1
sS'EADE'
p2345
I1
sS'FFQL'
p2346
I3
sS'SVSN'
p2347
I2
sS'HSEK'
p2348
I1
sS'SVSK'
p2349
I1
sS'FFQT'
p2350
I2
sS'IPTC'
p2351
I1
sS'FMGS'
p2352
I1
sS'SHKP'
p2353
I2
sS'RKRP'
p2354
I1
sS'QLYL'
p2355
I1
sS'MYSV'
p2356
I2
sS'TALR'
p2357
I1
sS'PKRA'
p2358
I2
sS'SDLA'
p2359
I1
sS'DLQA'
p2360
I1
sS'SDLL'
p2361
I1
sS'DLQM'
p2362
I1
sS'PKRV'
p2363
I1
sS'GCVR'
p2364
I1
sS'PKRS'
p2365
I1
sS'AEDG'
p2366
I2
sS'ALAC'
p2367
I1
sS'LRQK'
p2368
I3
sS'ALAG'
p2369
I1
sS'ALAK'
p2370
I1
sS'LHNV'
p2371
I1
sS'QKLK'
p2372
I1
sS'SFEA'
p2373
I1
sS'TEDY'
p2374
I1
sS'TKKV'
p2375
I1
sS'ALAS'
p2376
I2
sS'ELTG'
p2377
I1
sS'ALAV'
p2378
I2
sS'RQEL'
p2379
I2
sS'MQQF'
p2380
I2
sS'LPSN'
p2381
I2
sS'VSTS'
p2382
I1
sS'SYAA'
p2383
I1
sS'VSTV'
p2384
I1
sS'RSYL'
p2385
I2
sS'TFYD'
p2386
I1
sS'KRPA'
p2387
I1
sS'YRLL'
p2388
I1
sS'VSTA'
p2389
I5
sS'YNDS'
p2390
I1
sS'SKYV'
p2391
I1
sS'LLTA'
p2392
I3
sS'SLPN'
p2393
I1
sS'VSSE'
p2394
I1
sS'GWFM'
p2395
I1
sS'LLTL'
p2396
I1
sS'LLTP'
p2397
I1
sS'GWFS'
p2398
I4
sS'MAMY'
p2399
I1
sS'PSPK'
p2400
I2
sS'PGDL'
p2401
I1
sS'RDYA'
p2402
I2
sS'CFPG'
p2403
I1
sS'DYFP'
p2404
I1
sS'LDVL'
p2405
I1
sS'PNGL'
p2406
I1
sS'SRAG'
p2407
I1
sS'FLSY'
p2408
I1
sS'FQLL'
p2409
I3
sS'YAAQ'
p2410
I1
sS'FLSV'
p2411
I2
sS'EGNI'
p2412
I1
sS'DALV'
p2413
I1
sS'LKDK'
p2414
I2
sS'GRSC'
p2415
I2
sS'YSNR'
p2416
I2
sS'FQLP'
p2417
I3
sS'FLSA'
p2418
I1
sS'HDRS'
p2419
I2
sS'PRSL'
p2420
I2
sS'AGRS'
p2421
I2
sS'LDHV'
p2422
I1
sS'LDHI'
p2423
I3
sS'LIHP'
p2424
I1
sS'PLSL'
p2425
I1
sS'HEPQ'
p2426
I1
sS'WDER'
p2427
I1
sS'PQRQ'
p2428
I1
sS'PQRP'
p2429
I3
sS'CDRS'
p2430
I2
sS'KPAP'
p2431
I1
sS'LRQS'
p2432
I1
sS'GLIQ'
p2433
I1
sS'VDET'
p2434
I1
sS'VFQE'
p2435
I1
sS'SNTK'
p2436
I2
sS'SELV'
p2437
I1
sS'SELL'
p2438
I1
sS'KGRF'
p2439
I1
sS'GDNT'
p2440
I1
sS'KGRL'
p2441
I1
sS'AARQ'
p2442
I3
sS'RSGV'
p2443
I2
sS'AARS'
p2444
I2
sS'PTRS'
p2445
I1
sS'RSGI'
p2446
I1
sS'AWVS'
p2447
I1
sS'REQH'
p2448
I1
sS'HVLL'
p2449
I1
sS'AARD'
p2450
I1
sS'AARE'
p2451
I1
sS'SELS'
p2452
I1
s.