(dp1
S'LPAQ'
p2
I1
sS'ATYS'
p3
I1
sS'LIFL'
p4
I4
sS'RGIF'
p5
I2
sS'ATYA'
p6
I1
sS'GKRG'
p7
I1
sS'SQLG'
p8
I6
sS'GDRG'
p9
I6
sS'SMLV'
p10
I1
sS'FYLD'
p11
I3
sS'YSCK'
p12
I1
sS'LASC'
p13
I1
sS'PRNC'
p14
I2
sS'RDWE'
p15
I1
sS'RDWD'
p16
I2
sS'TYDA'
p17
I1
sS'NRTF'
p18
I1
sS'RDWA'
p19
I4
sS'HANL'
p20
I3
sS'EGPT'
p21
I1
sS'YSQC'
p22
I1
sS'TLHA'
p23
I1
sS'EGPR'
p24
I1
sS'AGLK'
p25
I1
sS'TVLC'
p26
I9
sS'HANY'
p27
I3
sS'RDWT'
p28
I2
sS'GSMN'
p29
I3
sS'RLLG'
p30
I1
sS'ASSL'
p31
I3
sS'ACLK'
p32
I1
sS'HDFA'
p33
I2
sS'ASSV'
p34
I1
sS'ETGF'
p35
I2
sS'GSQL'
p36
I6
sS'EAEK'
p37
I7
sS'FDGN'
p38
I1
sS'ETGA'
p39
I1
sS'FFRD'
p40
I3
sS'GQES'
p41
I1
sS'GQER'
p42
I1
sS'CRTE'
p43
I3
sS'FFRT'
p44
I1
sS'RMDG'
p45
I1
sS'LTKH'
p46
I2
sS'LAAQ'
p47
I2
sS'ATYK'
p48
I1
sS'DQGS'
p49
I1
sS'VNFK'
p50
I1
sS'MIYP'
p51
I1
sS'SFKV'
p52
I2
sS'DQGE'
p53
I1
sS'GCPG'
p54
I7
sS'DLRE'
p55
I1
sS'LLCL'
p56
I2
sS'VNFY'
p57
I1
sS'SDKL'
p58
I5
sS'WWYH'
p59
I3
sS'WWYK'
p60
I1
sS'WWYN'
p61
I2
sS'WWYA'
p62
I2
sS'GARG'
p63
I2
sS'NCHV'
p64
I1
sS'NCHQ'
p65
I1
sS'GMRG'
p66
I1
sS'WWYF'
p67
I3
sS'WWYS'
p68
I2
sS'WWYR'
p69
I1
sS'QQSE'
p70
I3
sS'ERGT'
p71
I1
sS'QNNM'
p72
I1
sS'ERGP'
p73
I1
sS'IGER'
p74
I1
sS'ERGS'
p75
I2
sS'NMLF'
p76
I1
sS'LPSC'
p77
I1
sS'EDCN'
p78
I2
sS'RRID'
p79
I1
sS'ERGE'
p80
I2
sS'ERGF'
p81
I1
sS'ERGA'
p82
I1
sS'NSLF'
p83
I1
sS'ERGL'
p84
I3
sS'FQVA'
p85
I2
sS'GHRY'
p86
I1
sS'HLPD'
p87
I1
sS'RAVG'
p88
I1
sS'NCAE'
p89
I2
sS'VSEF'
p90
I1
sS'VSEE'
p91
I1
sS'VSEA'
p92
I1
sS'VSEM'
p93
I7
sS'EFWL'
p94
I15
sS'EHGE'
p95
I3
sS'TASP'
p96
I1
sS'NGLP'
p97
I1
sS'AKGY'
p98
I1
sS'GRQG'
p99
I1
sS'GNHF'
p100
I1
sS'GNHD'
p101
I1
sS'FVEG'
p102
I3
sS'WKGY'
p103
I1
sS'GNHR'
p104
I1
sS'GNHQ'
p105
I3
sS'NCAV'
p106
I4
sS'SYRA'
p107
I1
sS'ALGS'
p108
I1
sS'YKSF'
p109
I1
sS'TGIP'
p110
I1
sS'PQQS'
p111
I3
sS'CSSQ'
p112
I1
sS'THGS'
p113
I1
sS'VVIQ'
p114
I1
sS'EHQC'
p115
I4
sS'SGIQ'
p116
I1
sS'GPTG'
p117
I3
sS'GLHT'
p118
I1
sS'LRVD'
p119
I9
sS'LRVE'
p120
I1
sS'MVLG'
p121
I1
sS'FPLA'
p122
I1
sS'SEMK'
p123
I7
sS'ALGK'
p124
I1
sS'SCQQ'
p125
I1
sS'MNDS'
p126
I3
sS'RSFS'
p127
I1
sS'RSFQ'
p128
I2
sS'KGST'
p129
I1
sS'RSFK'
p130
I1
sS'QRGP'
p131
I1
sS'KGSY'
p132
I1
sS'AGQS'
p133
I1
sS'WYMI'
p134
I1
sS'EVKL'
p135
I1
sS'EVKM'
p136
I1
sS'SVNF'
p137
I1
sS'RQDG'
p138
I5
sS'YLSG'
p139
I1
sS'EVKV'
p140
I4
sS'PGAK'
p141
I1
sS'FPGP'
p142
I2
sS'NKLT'
p143
I1
sS'NLDG'
p144
I1
sS'NLDD'
p145
I1
sS'YRDW'
p146
I6
sS'DVKI'
p147
I1
sS'GKMG'
p148
I3
sS'ELKV'
p149
I1
sS'AAAH'
p150
I1
sS'QFFS'
p151
I1
sS'DVKV'
p152
I1
sS'PMLW'
p153
I1
sS'GAAP'
p154
I1
sS'GAAT'
p155
I1
sS'EKYR'
p156
I3
sS'EKYK'
p157
I8
sS'KFSE'
p158
I1
sS'GAAG'
p159
I5
sS'DTCP'
p160
I6
sS'EKYM'
p161
I1
sS'RELL'
p162
I1
sS'RELE'
p163
I1
sS'DGSV'
p164
I12
sS'DGST'
p165
I1
sS'LEDF'
p166
I4
sS'HTIY'
p167
I5
sS'DGSI'
p168
I2
sS'NHRF'
p169
I1
sS'LKGE'
p170
I2
sS'PQGL'
p171
I2
sS'TNEL'
p172
I2
sS'SSCA'
p173
I1
sS'PQGP'
p174
I4
sS'AMRP'
p175
I1
sS'LMDF'
p176
I1
sS'RCQE'
p177
I1
sS'GASG'
p178
I1
sS'HDQD'
p179
I2
sS'GQTS'
p180
I1
sS'NQSF'
p181
I1
sS'EMKF'
p182
I1
sS'EMKI'
p183
I2
sS'APGS'
p184
I1
sS'APGP'
p185
I3
sS'EMKL'
p186
I1
sS'GEKE'
p187
I1
sS'APGL'
p188
I1
sS'NSCH'
p189
I1
sS'EMKV'
p190
I5
sS'AVGV'
p191
I1
sS'APGE'
p192
I2
sS'LMGP'
p193
I1
sS'IHTF'
p194
I1
sS'SLCV'
p195
I1
sS'RGHR'
p196
I1
sS'YMLV'
p197
I1
sS'GWLV'
p198
I6
sS'KDCK'
p199
I1
sS'GVLG'
p200
I1
sS'RRVR'
p201
I1
sS'RGHF'
p202
I3
sS'RGET'
p203
I2
sS'RGHI'
p204
I1
sS'RMAD'
p205
I1
sS'GTHG'
p206
I1
sS'YSDC'
p207
I1
sS'GDQG'
p208
I5
sS'DHYQ'
p209
I1
sS'SAAL'
p210
I2
sS'SAAK'
p211
I1
sS'PHNN'
p212
I1
sS'QSNL'
p213
I2
sS'TCPE'
p214
I7
sS'RYHG'
p215
I1
sS'FDGI'
p216
I2
sS'PGTN'
p217
I3
sS'PGTM'
p218
I2
sS'TGHN'
p219
I1
sS'RVDL'
p220
I9
sS'SFTT'
p221
I1
sS'PYRR'
p222
I1
sS'RVDG'
p223
I3
sS'ALQA'
p224
I1
sS'IDLE'
p225
I3
sS'LGNE'
p226
I1
sS'LGND'
p227
I14
sS'IDLA'
p228
I1
sS'LGNF'
p229
I2
sS'FPVL'
p230
I1
sS'TMEL'
p231
I1
sS'LTLQ'
p232
I2
sS'MLFS'
p233
I1
sS'LTLT'
p234
I1
sS'GSVN'
p235
I1
sS'GSVD'
p236
I11
sS'VKMV'
p237
I1
sS'GQFL'
p238
I2
sS'LTLG'
p239
I3
sS'LTLH'
p240
I1
sS'FFST'
p241
I3
sS'RVRM'
p242
I1
sS'CPGA'
p243
I1
sS'LLDR'
p244
I3
sS'CPGF'
p245
I1
sS'CPGL'
p246
I7
sS'SPAG'
p247
I2
sS'CPGP'
p248
I1
sS'DQFF'
p249
I1
sS'IKNL'
p250
I1
sS'GGQG'
p251
I1
sS'TFHN'
p252
I1
sS'DLSD'
p253
I1
sS'NFYR'
p254
I2
sS'NYGT'
p255
I4
sS'WYNA'
p256
I1
sS'LTPH'
p257
I1
sS'TGKG'
p258
I1
sS'ANSM'
p259
I1
sS'YLRG'
p260
I5
sS'AGRG'
p261
I2
sS'ALCR'
p262
I1
sS'NNQS'
p263
I1
sS'VAEM'
p264
I2
sS'FFRS'
p265
I1
sS'SKGE'
p266
I2
sS'RAYC'
p267
I1
sS'RGVA'
p268
I1
sS'FSTH'
p269
I1
sS'MMYK'
p270
I3
sS'CAMG'
p271
I1
sS'RSWS'
p272
I1
sS'SYQV'
p273
I1
sS'LLVL'
p274
I1
sS'SMEL'
p275
I2
sS'GNEN'
p276
I1
sS'IFLQ'
p277
I1
sS'FGKQ'
p278
I3
sS'DLEG'
p279
I2
sS'LLVC'
p280
I1
sS'LLVA'
p281
I1
sS'TSEL'
p282
I4
sS'QGTN'
p283
I2
sS'HPYR'
p284
I1
sS'VASS'
p285
I4
sS'KIRP'
p286
I4
sS'GLYY'
p287
I3
sS'LGAA'
p288
I1
sS'GLYH'
p289
I1
sS'KIRA'
p290
I2
sS'PGFP'
p291
I1
sS'GLYL'
p292
I3
sS'HFFS'
p293
I1
sS'ASCY'
p294
I1
sS'CHES'
p295
I1
sS'AAPA'
p296
I1
sS'YHLC'
p297
I1
sS'KCHE'
p298
I1
sS'ASCQ'
p299
I1
sS'DTRG'
p300
I1
sS'EILN'
p301
I3
sS'AAPS'
p302
I1
sS'NHSG'
p303
I1
sS'DQGD'
p304
I4
sS'FLQG'
p305
I1
sS'GPAG'
p306
I3
sS'MAWA'
p307
I1
sS'GPAC'
p308
I1
sS'PQLT'
p309
I1
sS'LIVG'
p310
I3
sS'LREF'
p311
I1
sS'SWET'
p312
I1
sS'GPSQ'
p313
I2
sS'SIGD'
p314
I3
sS'LFTT'
p315
I1
sS'GGPA'
p316
I1
sS'TQGH'
p317
I1
sS'KIIL'
p318
I4
sS'SIGN'
p319
I1
sS'TQGT'
p320
I2
sS'GPSG'
p321
I1
sS'EHPS'
p322
I1
sS'SGNC'
p323
I1
sS'PQPC'
p324
I1
sS'AYCD'
p325
I1
sS'KYQS'
p326
I1
sS'NFKG'
p327
I1
sS'QDGS'
p328
I5
sS'TEHQ'
p329
I4
sS'GDLG'
p330
I1
sS'SWKG'
p331
I1
sS'CSLA'
p332
I1
sS'SSNS'
p333
I1
sS'AMAL'
p334
I1
sS'EPGD'
p335
I1
sS'SSNC'
p336
I2
sS'SSNL'
p337
I2
sS'EPGS'
p338
I2
sS'EPGP'
p339
I2
sS'EPGQ'
p340
I1
sS'FHGA'
p341
I2
sS'KVSE'
p342
I6
sS'RIDG'
p343
I1
sS'GDPG'
p344
I4
sS'TILQ'
p345
I2
sS'TILR'
p346
I2
sS'RIDV'
p347
I1
sS'GSAG'
p348
I2
sS'GDPV'
p349
I1
sS'GSAA'
p350
I2
sS'TLSG'
p351
I1
sS'GMRA'
p352
I1
sS'HALT'
p353
I7
sS'AGNS'
p354
I1
sS'YSSF'
p355
I8
sS'EGRA'
p356
I1
sS'ESYA'
p357
I3
sS'NNMA'
p358
I1
sS'DTDG'
p359
I7
sS'ESYK'
p360
I4
sS'NNML'
p361
I1
sS'HYSY'
p362
I2
sS'NRLF'
p363
I1
sS'INWS'
p364
I1
sS'INWL'
p365
I2
sS'NNMS'
p366
I1
sS'INWK'
p367
I2
sS'INWG'
p368
I1
sS'NGSE'
p369
I4
sS'LTMW'
p370
I1
sS'LVAF'
p371
I1
sS'DHDS'
p372
I1
sS'LVAS'
p373
I4
sS'LTME'
p374
I1
sS'VKLV'
p375
I1
sS'PSCP'
p376
I2
sS'LLER'
p377
I1
sS'LLTN'
p378
I1
sS'WLVF'
p379
I6
sS'KYSS'
p380
I7
sS'KYSY'
p381
I1
sS'GQGH'
p382
I1
sS'PGQL'
p383
I1
sS'GQGP'
p384
I1
sS'GQGS'
p385
I1
sS'LLEH'
p386
I3
sS'DNHS'
p387
I1
sS'CPPT'
p388
I2
sS'NGAP'
p389
I1
sS'PPGP'
p390
I6
sS'QLHS'
p391
I1
sS'VLFL'
p392
I1
sS'GWYT'
p393
I7
sS'NGNR'
p394
I1
sS'GWYH'
p395
I1
sS'GWYK'
p396
I1
sS'GALG'
p397
I2
sS'GWYM'
p398
I1
sS'HYAT'
p399
I1
sS'DSGP'
p400
I1
sS'YAVS'
p401
I1
sS'NSLT'
p402
I1
sS'QQQE'
p403
I1
sS'EPQP'
p404
I1
sS'RRKD'
p405
I1
sS'SQPG'
p406
I3
sS'LLWI'
p407
I1
sS'SDGS'
p408
I2
sS'GHPY'
p409
I1
sS'YRSN'
p410
I1
sS'YNSC'
p411
I1
sS'GHPG'
p412
I1
sS'GEPG'
p413
I8
sS'PGAL'
p414
I1
sS'PGAA'
p415
I3
sS'QPGI'
p416
I4
sS'LPGH'
p417
I1
sS'MKIR'
p418
I6
sS'GEPQ'
p419
I1
sS'PGAP'
p420
I6
sS'TWTA'
p421
I1
sS'HLCL'
p422
I1
sS'EKGE'
p423
I4
sS'QGKG'
p424
I1
sS'LVCL'
p425
I1
sS'RGST'
p426
I1
sS'ADFE'
p427
I1
sS'ATGP'
p428
I5
sS'RGSP'
p429
I1
sS'FVGG'
p430
I1
sS'ALPV'
p431
I1
sS'RVEL'
p432
I1
sS'RMML'
p433
I1
sS'KGMR'
p434
I1
sS'LGAQ'
p435
I2
sS'GNWE'
p436
I1
sS'LGAF'
p437
I4
sS'NTGN'
p438
I1
sS'GPRS'
p439
I2
sS'GPRT'
p440
I6
sS'IMDL'
p441
I1
sS'MAFS'
p442
I1
sS'VDHY'
p443
I1
sS'GPRE'
p444
I1
sS'GYHY'
p445
I1
sS'FATY'
p446
I1
sS'GPRN'
p447
I2
sS'PSGP'
p448
I1
sS'HCAV'
p449
I1
sS'TYSS'
p450
I1
sS'PLLV'
p451
I1
sS'QDFQ'
p452
I1
sS'WTSY'
p453
I2
sS'LTQG'
p454
I1
sS'VGHP'
p455
I1
sS'GYHG'
p456
I1
sS'AEKF'
p457
I1
sS'YKGA'
p458
I3
sS'AGSK'
p459
I1
sS'AEKY'
p460
I7
sS'FRIH'
p461
I3
sS'HHAN'
p462
I3
sS'YKGK'
p463
I3
sS'VADE'
p464
I3
sS'CHVS'
p465
I2
sS'YNAC'
p466
I1
sS'LHIK'
p467
I1
sS'NNRL'
p468
I1
sS'HKGK'
p469
I1
sS'TYAN'
p470
I1
sS'YFHC'
p471
I3
sS'NFFS'
p472
I1
sS'ENIH'
p473
I1
sS'GDAG'
p474
I1
sS'METD'
p475
I4
sS'GDAL'
p476
I1
sS'KAGP'
p477
I6
sS'NGRY'
p478
I7
sS'EGSA'
p479
I1
sS'NGRS'
p480
I1
sS'GACP'
p481
I2
sS'EGSN'
p482
I1
sS'WSSY'
p483
I1
sS'WSSG'
p484
I1
sS'DGGG'
p485
I14
sS'TFRL'
p486
I1
sS'DAGQ'
p487
I1
sS'HDCH'
p488
I1
sS'AAQA'
p489
I2
sS'RSDG'
p490
I2
sS'AAQF'
p491
I1
sS'GYNY'
p492
I5
sS'FLVA'
p493
I4
sS'RPLV'
p494
I1
sS'CDMS'
p495
I1
sS'RPLT'
p496
I7
sS'FENI'
p497
I1
sS'SNCA'
p498
I5
sS'CDMD'
p499
I10
sS'CDME'
p500
I4
sS'VLGA'
p501
I5
sS'VLGG'
p502
I1
sS'DSFR'
p503
I3
sS'WSAA'
p504
I1
sS'MLVL'
p505
I1
sS'VNWS'
p506
I1
sS'VNWR'
p507
I1
sS'VLGS'
p508
I1
sS'HPGK'
p509
I1
sS'EKEL'
p510
I1
sS'NELR'
p511
I2
sS'VNWK'
p512
I2
sS'ADHD'
p513
I1
sS'WLGN'
p514
I15
sS'GGAA'
p515
I1
sS'GGAG'
p516
I2
sS'YCDM'
p517
I1
sS'WLTG'
p518
I1
sS'YKLT'
p519
I3
sS'KVLD'
p520
I2
sS'GPNG'
p521
I1
sS'KGDP'
p522
I4
sS'GVNW'
p523
I4
sS'IQGE'
p524
I2
sS'MVVF'
p525
I3
sS'QELR'
p526
I2
sS'YQFA'
p527
I1
sS'GKQE'
p528
I3
sS'GTNG'
p529
I4
sS'GTNE'
p530
I2
sS'GDAC'
p531
I2
sS'LCLC'
p532
I2
sS'KVRL'
p533
I3
sS'SCKD'
p534
I2
sS'KVRP'
p535
I2
sS'GSFA'
p536
I2
sS'VSML'
p537
I1
sS'CISD'
p538
I1
sS'SCKV'
p539
I1
sS'LCLP'
p540
I1
sS'AVSE'
p541
I1
sS'QGDK'
p542
I4
sS'PGVV'
p543
I1
sS'PGVP'
p544
I6
sS'FTTY'
p545
I1
sS'DYLH'
p546
I2
sS'PGVK'
p547
I2
sS'GNMG'
p548
I1
sS'PGVA'
p549
I2
sS'FTTK'
p550
I1
sS'FTTH'
p551
I1
sS'ATFR'
p552
I1
sS'RTFA'
p553
I4
sS'LALG'
p554
I1
sS'ALSP'
p555
I1
sS'EANG'
p556
I1
sS'LNTG'
p557
I1
sS'LALS'
p558
I1
sS'GSTS'
p559
I1
sS'TIYP'
p560
I3
sS'EGSD'
p561
I5
sS'KLIL'
p562
I2
sS'RNCK'
p563
I1
sS'GSTG'
p564
I2
sS'RNCQ'
p565
I4
sS'RNCR'
p566
I1
sS'NNNF'
p567
I1
sS'TIYL'
p568
I8
sS'TMAR'
p569
I1
sS'DNIH'
p570
I5
sS'CPEL'
p571
I1
sS'GWTV'
p572
I9
sS'SPGV'
p573
I1
sS'QQLR'
p574
I5
sS'PGIR'
p575
I2
sS'PMVV'
p576
I3
sS'LLFL'
p577
I1
sS'DQDN'
p578
I8
sS'SPGE'
p579
I1
sS'CPEV'
p580
I6
sS'SPGK'
p581
I2
sS'WYHS'
p582
I1
sS'LTRG'
p583
I6
sS'NDSF'
p584
I3
sS'GSSE'
p585
I1
sS'VGGS'
p586
I1
sS'PDVK'
p587
I2
sS'WYHD'
p588
I1
sS'KYRL'
p589
I3
sS'WYHL'
p590
I1
sS'WYHN'
p591
I1
sS'STKD'
p592
I10
sS'VAGE'
p593
I1
sS'AKGD'
p594
I3
sS'NNSK'
p595
I1
sS'DTEP'
p596
I4
sS'NNSL'
p597
I1
sS'RGPD'
p598
I2
sS'VELE'
p599
I1
sS'QIQG'
p600
I2
sS'KHDF'
p601
I1
sS'DLGP'
p602
I1
sS'ADTC'
p603
I5
sS'LRCQ'
p604
I1
sS'YKVA'
p605
I2
sS'EGSR'
p606
I3
sS'QVAD'
p607
I1
sS'SDFE'
p608
I1
sS'YKVS'
p609
I5
sS'AFHL'
p610
I4
sS'TMWW'
p611
I1
sS'PGPK'
p612
I6
sS'GEQE'
p613
I1
sS'TDHG'
p614
I1
sS'RASM'
p615
I2
sS'WILP'
p616
I1
sS'HGNH'
p617
I1
sS'FWLG'
p618
I15
sS'RSCK'
p619
I2
sS'DGTV'
p620
I1
sS'YHNC'
p621
I1
sS'HKYG'
p622
I1
sS'NWLT'
p623
I1
sS'AMQW'
p624
I1
sS'NWLS'
p625
I1
sS'NHQF'
p626
I3
sS'VVVS'
p627
I1
sS'SGRP'
p628
I1
sS'PCLT'
p629
I1
sS'VVVI'
p630
I1
sS'MVGL'
p631
I1
sS'KDRD'
p632
I5
sS'SGRG'
p633
I3
sS'INGS'
p634
I2
sS'GNQE'
p635
I3
sS'GNQG'
p636
I1
sS'TQEH'
p637
I1
sS'HQSN'
p638
I2
sS'QDTE'
p639
I4
sS'PSFP'
p640
I1
sS'NKGN'
p641
I3
sS'SGLL'
p642
I1
sS'NDAN'
p643
I1
sS'SGLP'
p644
I2
sS'KGVR'
p645
I1
sS'PVNL'
p646
I1
sS'LDRG'
p647
I3
sS'DWES'
p648
I3
sS'KQLT'
p649
I1
sS'RGMR'
p650
I1
sS'LYLR'
p651
I2
sS'SSLE'
p652
I3
sS'AMGY'
p653
I1
sS'GVAG'
p654
I2
sS'GVAA'
p655
I1
sS'YQGA'
p656
I1
sS'SCHV'
p657
I1
sS'PVFC'
p658
I1
sS'SCHS'
p659
I1
sS'QFQG'
p660
I1
sS'WYRK'
p661
I1
sS'SETT'
p662
I4
sS'GDVS'
p663
I1
sS'RIFL'
p664
I1
sS'GIFL'
p665
I2
sS'CQPL'
p666
I2
sS'RIDL'
p667
I4
sS'LDLE'
p668
I2
sS'DPVN'
p669
I1
sS'WYTI'
p670
I7
sS'ELLD'
p671
I1
sS'ELLS'
p672
I1
sS'AALF'
p673
I4
sS'ELLT'
p674
I5
sS'EGTA'
p675
I3
sS'YAKY'
p676
I1
sS'HTFA'
p677
I1
sS'TVHA'
p678
I1
sS'DFAK'
p679
I2
sS'ACPD'
p680
I2
sS'HYQL'
p681
I1
sS'GIPG'
p682
I14
sS'GTCP'
p683
I1
sS'EAYK'
p684
I1
sS'RKDG'
p685
I1
sS'SHNN'
p686
I1
sS'DSSN'
p687
I1
sS'LNGL'
p688
I7
sS'GQAG'
p689
I1
sS'SQSC'
p690
I3
sS'LGQK'
p691
I1
sS'LGQE'
p692
I2
sS'LGQF'
p693
I2
sS'ADMK'
p694
I4
sS'KENP'
p695
I3
sS'TPHN'
p696
I1
sS'QLTL'
p697
I1
sS'ADEA'
p698
I4
sS'QLTI'
p699
I1
sS'LNGW'
p700
I4
sS'NCRE'
p701
I1
sS'SFGQ'
p702
I1
sS'LLGE'
p703
I1
sS'LNGR'
p704
I7
sS'LLGG'
p705
I1
sS'CPDV'
p706
I2
sS'VLDL'
p707
I2
sS'EKFQ'
p708
I1
sS'GANG'
p709
I1
sS'LDWE'
p710
I3
sS'HRDQ'
p711
I1
sS'TTVS'
p712
I4
sS'PKGG'
p713
I1
sS'PKGD'
p714
I9
sS'PKGE'
p715
I11
sS'RGCP'
p716
I5
sS'RPQK'
p717
I1
sS'PKGN'
p718
I1
sS'TCCT'
p719
I1
sS'EWES'
p720
I1
sS'PKGS'
p721
I1
sS'RPQQ'
p722
I3
sS'KYGI'
p723
I1
sS'LQGN'
p724
I1
sS'DNDA'
p725
I1
sS'DNDG'
p726
I1
sS'DNDE'
p727
I1
sS'SFQI'
p728
I2
sS'RDKI'
p729
I3
sS'YLMG'
p730
I1
sS'DNDN'
p731
I1
sS'HDSS'
p732
I1
sS'DNDL'
p733
I1
sS'LQGC'
p734
I2
sS'IYPT'
p735
I5
sS'DNDQ'
p736
I2
sS'DNDV'
p737
I2
sS'SFQV'
p738
I4
sS'LQGQ'
p739
I2
sS'LQGS'
p740
I1
sS'TSFA'
p741
I1
sS'GERG'
p742
I9
sS'MLVF'
p743
I1
sS'QSCA'
p744
I4
sS'AKMK'
p745
I1
sS'DCKE'
p746
I1
sS'QSCP'
p747
I2
sS'QAGI'
p748
I1
sS'DLVD'
p749
I4
sS'QSQS'
p750
I1
sS'HIHC'
p751
I1
sS'QSQP'
p752
I3
sS'GSRL'
p753
I1
sS'HSFS'
p754
I3
sS'QGEA'
p755
I3
sS'GNLG'
p756
I2
sS'AVRY'
p757
I1
sS'HLIF'
p758
I4
sS'WPML'
p759
I1
sS'LTAQ'
p760
I5
sS'HNNM'
p761
I2
sS'HNNN'
p762
I1
sS'HNNQ'
p763
I1
sS'HNNR'
p764
I1
sS'HNNS'
p765
I1
sS'RQVS'
p766
I1
sS'TAAP'
p767
I1
sS'SLTL'
p768
I1
sS'LTAN'
p769
I2
sS'LFST'
p770
I2
sS'GLLC'
p771
I1
sS'TQDT'
p772
I2
sS'GPPG'
p773
I15
sS'MADE'
p774
I1
sS'TGQL'
p775
I1
sS'ETEK'
p776
I1
sS'WRSG'
p777
I4
sS'SHRD'
p778
I1
sS'LTSH'
p779
I1
sS'YKIY'
p780
I1
sS'KGAW'
p781
I4
sS'KGAP'
p782
I1
sS'KGAR'
p783
I2
sS'HQLT'
p784
I1
sS'LTSQ'
p785
I1
sS'LTSS'
p786
I4
sS'VEVR'
p787
I2
sS'HVSN'
p788
I2
sS'WWPM'
p789
I1
sS'VAFL'
p790
I1
sS'RALP'
p791
I1
sS'LEAS'
p792
I1
sS'LGPQ'
p793
I1
sS'LWIL'
p794
I1
sS'LHKS'
p795
I1
sS'NLHQ'
p796
I1
sS'VPGT'
p797
I3
sS'DDCP'
p798
I2
sS'VIQS'
p799
I2
sS'KPWA'
p800
I4
sS'GKAG'
p801
I6
sS'DDCL'
p802
I1
sS'AGIP'
p803
I1
sS'VPGK'
p804
I1
sS'HAAG'
p805
I1
sS'HAAD'
p806
I1
sS'YQVS'
p807
I1
sS'VRGE'
p808
I1
sS'LHSG'
p809
I1
sS'DTGA'
p810
I1
sS'DGIP'
p811
I2
sS'DGIR'
p812
I2
sS'DGIN'
p813
I5
sS'AAMR'
p814
I1
sS'DTGP'
p815
I1
sS'HASN'
p816
I1
sS'AQFQ'
p817
I1
sS'TSSG'
p818
I4
sS'KEGP'
p819
I1
sS'GYKY'
p820
I1
sS'HIKN'
p821
I1
sS'NWKS'
p822
I4
sS'FLTG'
p823
I4
sS'PQKS'
p824
I1
sS'INFY'
p825
I1
sS'SGSH'
p826
I1
sS'KDQD'
p827
I6
sS'NENL'
p828
I1
sS'DNYQ'
p829
I1
sS'GSDK'
p830
I5
sS'NGNQ'
p831
I2
sS'WTVF'
p832
I9
sS'GYKQ'
p833
I1
sS'GQPG'
p834
I1
sS'IQSC'
p835
I2
sS'EKGD'
p836
I4
sS'DKVV'
p837
I1
sS'EKGA'
p838
I3
sS'RLIV'
p839
I3
sS'EKGM'
p840
I1
sS'EKGI'
p841
I1
sS'EFQG'
p842
I1
sS'EKGV'
p843
I1
sS'EDFE'
p844
I3
sS'TDVE'
p845
I2
sS'RLIM'
p846
I2
sS'EDFN'
p847
I2
sS'GPLL'
p848
I1
sS'DFYR'
p849
I5
sS'RGLQ'
p850
I1
sS'RGLP'
p851
I2
sS'NGPK'
p852
I1
sS'NQES'
p853
I1
sS'ILGN'
p854
I2
sS'SLAS'
p855
I1
sS'RGLH'
p856
I2
sS'QERG'
p857
I1
sS'NQEL'
p858
I2
sS'RGLA'
p859
I1
sS'DFYL'
p860
I3
sS'SQAL'
p861
I2
sS'DTNG'
p862
I1
sS'GTLA'
p863
I1
sS'SGEQ'
p864
I1
sS'PTKE'
p865
I3
sS'VRYH'
p866
I1
sS'CTEH'
p867
I1
sS'YKKG'
p868
I5
sS'CTEL'
p869
I1
sS'RGPH'
p870
I2
sS'QNGR'
p871
I1
sS'PGPR'
p872
I1
sS'PGPQ'
p873
I5
sS'PGPP'
p874
I5
sS'QGFG'
p875
I4
sS'GEAG'
p876
I8
sS'GEAE'
p877
I3
sS'GEAC'
p878
I1
sS'PGPN'
p879
I1
sS'RGPP'
p880
I1
sS'RGPR'
p881
I2
sS'TGLS'
p882
I1
sS'VEGS'
p883
I1
sS'GYYY'
p884
I3
sS'VEGD'
p885
I1
sS'VEGN'
p886
I2
sS'TLQG'
p887
I1
sS'YASC'
p888
I1
sS'PGER'
p889
I1
sS'LVLL'
p890
I1
sS'TLQN'
p891
I1
sS'LVLF'
p892
I1
sS'LVLG'
p893
I5
sS'RKCH'
p894
I1
sS'NSGT'
p895
I1
sS'KYAD'
p896
I4
sS'GIQQ'
p897
I1
sS'LSDF'
p898
I1
sS'TTYD'
p899
I1
sS'LGPK'
p900
I1
sS'TMGP'
p901
I2
sS'DHGN'
p902
I1
sS'RMKP'
p903
I1
sS'LGPT'
p904
I1
sS'LGPS'
p905
I1
sS'NCQD'
p906
I4
sS'HQCI'
p907
I1
sS'KIVG'
p908
I1
sS'NDQY'
p909
I1
sS'FVLT'
p910
I1
sS'NDQG'
p911
I1
sS'FVLS'
p912
I1
sS'QCHT'
p913
I1
sS'LTTQ'
p914
I2
sS'SVEG'
p915
I1
sS'KGFG'
p916
I5
sS'CLCF'
p917
I1
sS'LHTS'
p918
I1
sS'AAAM'
p919
I1
sS'FRLL'
p920
I1
sS'CLCP'
p921
I1
sS'CLCS'
p922
I1
sS'IFLT'
p923
I2
sS'IFLV'
p924
I4
sS'SFPG'
p925
I1
sS'GQLL'
p926
I1
sS'GQLH'
p927
I1
sS'LERG'
p928
I1
sS'VLSL'
p929
I1
sS'GQLQ'
p930
I1
sS'VHAA'
p931
I1
sS'GESG'
p932
I3
sS'QGPP'
p933
I5
sS'GNAG'
p934
I3
sS'KSET'
p935
I1
sS'GESW'
p936
I1
sS'GSFG'
p937
I1
sS'VSHI'
p938
I1
sS'EQCL'
p939
I1
sS'AQGS'
p940
I1
sS'STGA'
p941
I1
sS'EGDV'
p942
I1
sS'TKHN'
p943
I2
sS'AQGE'
p944
I1
sS'YNLV'
p945
I1
sS'AWWY'
p946
I14
sS'GRYA'
p947
I1
sS'SGPS'
p948
I1
sS'GRYL'
p949
I6
sS'GRYN'
p950
I1
sS'SGPK'
p951
I1
sS'ASGR'
p952
I1
sS'SGPL'
p953
I1
sS'EKYN'
p954
I1
sS'CRPL'
p955
I7
sS'YGID'
p956
I1
sS'MRGE'
p957
I1
sS'GNSL'
p958
I1
sS'LTGL'
p959
I1
sS'MKFR'
p960
I1
sS'FLGG'
p961
I2
sS'CAAQ'
p962
I1
sS'TELT'
p963
I1
sS'TAQG'
p964
I5
sS'VVFC'
p965
I3
sS'QYAS'
p966
I1
sS'TGPK'
p967
I2
sS'NDGS'
p968
I1
sS'PVLL'
p969
I1
sS'TGPS'
p970
I1
sS'TGPR'
p971
I7
sS'TELL'
p972
I1
sS'GPKG'
p973
I23
sS'QESG'
p974
I1
sS'QESE'
p975
I4
sS'SKTF'
p976
I1
sS'LYYK'
p977
I3
sS'ESNL'
p978
I1
sS'YSYQ'
p979
I1
sS'PTDV'
p980
I2
sS'FHCH'
p981
I3
sS'CQDL'
p982
I4
sS'TCRT'
p983
I3
sS'GTSE'
p984
I4
sS'QLAL'
p985
I1
sS'GDTG'
p986
I2
sS'YSYK'
p987
I11
sS'GDTL'
p988
I1
sS'LRID'
p989
I5
sS'GKFS'
p990
I1
sS'YDAD'
p991
I1
sS'CQRG'
p992
I1
sS'EEVS'
p993
I1
sS'QFAK'
p994
I4
sS'RDQF'
p995
I1
sS'TLNG'
p996
I1
sS'DVDG'
p997
I2
sS'YKQL'
p998
I1
sS'DADH'
p999
I1
sS'KLVG'
p1000
I1
sS'ESEF'
p1001
I4
sS'VLTL'
p1002
I1
sS'KLVL'
p1003
I3
sS'TVFQ'
p1004
I9
sS'RTWT'
p1005
I1
sS'GTAG'
p1006
I3
sS'WAFS'
p1007
I1
sS'WAFP'
p1008
I1
sS'CTRD'
p1009
I3
sS'GIRG'
p1010
I5
sS'AQGT'
p1011
I4
sS'RRGP'
p1012
I1
sS'LKGD'
p1013
I4
sS'NYQF'
p1014
I1
sS'LGSH'
p1015
I1
sS'LSGA'
p1016
I1
sS'LGSA'
p1017
I2
sS'LSGR'
p1018
I1
sS'LSGS'
p1019
I1
sS'GGTQ'
p1020
I2
sS'LSGW'
p1021
I6
sS'SFAK'
p1022
I1
sS'SFAN'
p1023
I2
sS'GSEA'
p1024
I1
sS'GSEG'
p1025
I4
sS'GSEF'
p1026
I1
sS'ESWE'
p1027
I1
sS'TIHL'
p1028
I1
sS'STGI'
p1029
I1
sS'TTHD'
p1030
I1
sS'WATY'
p1031
I1
sS'PPTD'
p1032
I2
sS'WLDF'
p1033
I1
sS'KDLL'
p1034
I4
sS'RGAQ'
p1035
I2
sS'QEAG'
p1036
I1
sS'RLFS'
p1037
I1
sS'RGAC'
p1038
I1
sS'VGVL'
p1039
I1
sS'LGEF'
p1040
I7
sS'SFSI'
p1041
I4
sS'TVDF'
p1042
I1
sS'LGEK'
p1043
I1
sS'YKYA'
p1044
I4
sS'VAVI'
p1045
I1
sS'CLTG'
p1046
I2
sS'LGEV'
p1047
I1
sS'VAVA'
p1048
I1
sS'AFST'
p1049
I1
sS'SFST'
p1050
I5
sS'YKYS'
p1051
I1
sS'QGQA'
p1052
I1
sS'GETL'
p1053
I2
sS'ESGL'
p1054
I2
sS'GETG'
p1055
I3
sS'QTSF'
p1056
I1
sS'QGQP'
p1057
I1
sS'PEGR'
p1058
I1
sS'QGQT'
p1059
I1
sS'IRPQ'
p1060
I4
sS'QSET'
p1061
I3
sS'GHNN'
p1062
I1
sS'NACH'
p1063
I1
sS'LTNS'
p1064
I1
sS'MFQG'
p1065
I1
sS'DKLT'
p1066
I2
sS'DKLS'
p1067
I3
sS'RTEH'
p1068
I3
sS'IDWA'
p1069
I1
sS'PGSK'
p1070
I1
sS'PGSH'
p1071
I1
sS'VKVL'
p1072
I1
sS'VKVV'
p1073
I4
sS'PGSP'
p1074
I3
sS'SILR'
p1075
I3
sS'VDLV'
p1076
I4
sS'FGTL'
p1077
I1
sS'MKGG'
p1078
I1
sS'VDLR'
p1079
I1
sS'VDLS'
p1080
I1
sS'FAHY'
p1081
I1
sS'VDLQ'
p1082
I1
sS'VDLM'
p1083
I1
sS'GNRT'
p1084
I1
sS'VDLA'
p1085
I1
sS'NIHA'
p1086
I5
sS'SNLN'
p1087
I11
sS'FCDM'
p1088
I5
sS'GFGS'
p1089
I7
sS'GYFL'
p1090
I2
sS'GFGN'
p1091
I3
sS'NIHT'
p1092
I1
sS'GFGK'
p1093
I3
sS'KIYP'
p1094
I1
sS'LYLM'
p1095
I1
sS'VVGL'
p1096
I4
sS'DGSM'
p1097
I3
sS'VVGK'
p1098
I1
sS'DRAV'
p1099
I1
sS'TGAQ'
p1100
I1
sS'KGGS'
p1101
I1
sS'KGGQ'
p1102
I1
sS'WTAY'
p1103
I1
sS'WYKI'
p1104
I1
sS'RRMD'
p1105
I1
sS'TGAA'
p1106
I2
sS'WYKN'
p1107
I1
sS'SVDF'
p1108
I11
sS'TLTG'
p1109
I1
sS'QCIS'
p1110
I1
sS'KYKL'
p1111
I8
sS'FRMA'
p1112
I1
sS'LQSC'
p1113
I1
sS'LEGN'
p1114
I1
sS'STHD'
p1115
I1
sS'LEGY'
p1116
I1
sS'NLNG'
p1117
I14
sS'LEGS'
p1118
I6
sS'LEGT'
p1119
I2
sS'SRTF'
p1120
I3
sS'KYKS'
p1121
I1
sS'GKGS'
p1122
I1
sS'SEEQ'
p1123
I1
sS'GVPG'
p1124
I6
sS'SGQL'
p1125
I1
sS'GKGY'
p1126
I6
sS'PAMQ'
p1127
I1
sS'CAAL'
p1128
I2
sS'PAMA'
p1129
I1
sS'DVED'
p1130
I1
sS'AAKG'
p1131
I1
sS'GDEN'
p1132
I3
sS'TKEN'
p1133
I3
sS'RSNL'
p1134
I1
sS'ANGS'
p1135
I1
sS'ACSL'
p1136
I1
sS'SCYR'
p1137
I1
sS'NPMV'
p1138
I3
sS'EGEV'
p1139
I3
sS'AQDT'
p1140
I2
sS'ANLN'
p1141
I3
sS'YRLI'
p1142
I3
sS'AQDK'
p1143
I2
sS'SDKI'
p1144
I1
sS'VPGI'
p1145
I2
sS'IILQ'
p1146
I4
sS'CHHA'
p1147
I3
sS'CATG'
p1148
I5
sS'DNDT'
p1149
I4
sS'VSSS'
p1150
I1
sS'SAGN'
p1151
I1
sS'GFDG'
p1152
I2
sS'EGYK'
p1153
I1
sS'SAGD'
p1154
I1
sS'ESPS'
p1155
I1
sS'YATF'
p1156
I1
sS'SSYR'
p1157
I1
sS'IQQL'
p1158
I1
sS'NCAM'
p1159
I3
sS'NCAA'
p1160
I3
sS'GEKG'
p1161
I14
sS'QLGE'
p1162
I6
sS'AVAL'
p1163
I1
sS'FLGM'
p1164
I1
sS'RLGE'
p1165
I1
sS'NGLY'
p1166
I7
sS'APGK'
p1167
I1
sS'NWGT'
p1168
I1
sS'FSGL'
p1169
I1
sS'FEDN'
p1170
I1
sS'RPFT'
p1171
I1
sS'KHAN'
p1172
I3
sS'NQGE'
p1173
I1
sS'CQEG'
p1174
I1
sS'CKVS'
p1175
I1
sS'PTEV'
p1176
I2
sS'RRVD'
p1177
I3
sS'GTRG'
p1178
I2
sS'PLTV'
p1179
I9
sS'TLAA'
p1180
I2
sS'PACL'
p1181
I1
sS'TYKQ'
p1182
I1
sS'PTEE'
p1183
I1
sS'SQCH'
p1184
I1
sS'AFVG'
p1185
I1
sS'AFVE'
p1186
I3
sS'RGVG'
p1187
I1
sS'MYKG'
p1188
I3
sS'QLQS'
p1189
I1
sS'NMGD'
p1190
I1
sS'LPTE'
p1191
I2
sS'TSQN'
p1192
I1
sS'HSCA'
p1193
I1
sS'LCTA'
p1194
I1
sS'TANG'
p1195
I2
sS'HSCH'
p1196
I1
sS'HLDG'
p1197
I1
sS'LTDH'
p1198
I1
sS'GQSQ'
p1199
I1
sS'KMKP'
p1200
I1
sS'TGNC'
p1201
I1
sS'WESY'
p1202
I4
sS'PAQA'
p1203
I1
sS'ETLT'
p1204
I1
sS'TNSG'
p1205
I1
sS'FHNN'
p1206
I1
sS'CKDL'
p1207
I4
sS'VKGE'
p1208
I2
sS'MSTD'
p1209
I1
sS'ETLN'
p1210
I1
sS'LSFL'
p1211
I1
sS'PPGS'
p1212
I1
sS'DSLT'
p1213
I8
sS'DSLS'
p1214
I2
sS'PPGV'
p1215
I2
sS'PPGA'
p1216
I1
sS'TAWL'
p1217
I1
sS'PPGE'
p1218
I1
sS'KHAT'
p1219
I1
sS'PPGI'
p1220
I2
sS'ADFD'
p1221
I1
sS'PPGK'
p1222
I2
sS'LSFQ'
p1223
I1
sS'GLSE'
p1224
I1
sS'HNCH'
p1225
I1
sS'LVVV'
p1226
I1
sS'KIHL'
p1227
I5
sS'LTVL'
p1228
I9
sS'LTVH'
p1229
I1
sS'KGDA'
p1230
I3
sS'YKLI'
p1231
I2
sS'KGDL'
p1232
I1
sS'KGDK'
p1233
I17
sS'KGDT'
p1234
I2
sS'KGDR'
p1235
I6
sS'KGDS'
p1236
I1
sS'YKLV'
p1237
I3
sS'KGDQ'
p1238
I5
sS'GSID'
p1239
I1
sS'SFRI'
p1240
I3
sS'LGDA'
p1241
I1
sS'SFRM'
p1242
I1
sS'LLLS'
p1243
I1
sS'LQDF'
p1244
I1
sS'LLLL'
p1245
I1
sS'LGDT'
p1246
I1
sS'LLLF'
p1247
I1
sS'LLLG'
p1248
I1
sS'MKVR'
p1249
I5
sS'RPAM'
p1250
I2
sS'QSFR'
p1251
I1
sS'QSFS'
p1252
I1
sS'VSNY'
p1253
I4
sS'PGLP'
p1254
I7
sS'GNCA'
p1255
I5
sS'PGLK'
p1256
I1
sS'VAGP'
p1257
I2
sS'VSNL'
p1258
I2
sS'FYRE'
p1259
I1
sS'KHNN'
p1260
I2
sS'FYRD'
p1261
I6
sS'TAYK'
p1262
I1
sS'LFLS'
p1263
I1
sS'PSLG'
p1264
I1
sS'ENEK'
p1265
I3
sS'QKSE'
p1266
I1
sS'LFLH'
p1267
I1
sS'HIHA'
p1268
I2
sS'PELK'
p1269
I1
sS'CREL'
p1270
I1
sS'PSLW'
p1271
I1
sS'FQRR'
p1272
I15
sS'FAKY'
p1273
I11
sS'GLAV'
p1274
I1
sS'FGSQ'
p1275
I6
sS'FGSR'
p1276
I1
sS'FLEG'
p1277
I3
sS'FAKM'
p1278
I1
sS'DMST'
p1279
I1
sS'WYFH'
p1280
I3
sS'TGRG'
p1281
I1
sS'HQFA'
p1282
I3
sS'IGNE'
p1283
I1
sS'NDES'
p1284
I1
sS'QPLT'
p1285
I2
sS'MWWP'
p1286
I1
sS'FEGK'
p1287
I1
sS'FEGN'
p1288
I4
sS'QKEL'
p1289
I1
sS'FEGS'
p1290
I3
sS'KFQG'
p1291
I1
sS'GTQQ'
p1292
I4
sS'NSKT'
p1293
I1
sS'SSHR'
p1294
I1
sS'GTQD'
p1295
I2
sS'AYKK'
p1296
I1
sS'SEFW'
p1297
I6
sS'YPTK'
p1298
I3
sS'NDKI'
p1299
I5
sS'AGDS'
p1300
I9
sS'AYKR'
p1301
I2
sS'AYKQ'
p1302
I2
sS'PALD'
p1303
I1
sS'DFFR'
p1304
I5
sS'ENLH'
p1305
I1
sS'KELG'
p1306
I2
sS'AAHK'
p1307
I1
sS'KELL'
p1308
I5
sS'PTTG'
p1309
I1
sS'ESGQ'
p1310
I1
sS'MNCA'
p1311
I1
sS'KLTL'
p1312
I3
sS'KLTI'
p1313
I3
sS'TKDR'
p1314
I5
sS'TKDQ'
p1315
I6
sS'ESGA'
p1316
I1
sS'CKEL'
p1317
I5
sS'GTGG'
p1318
I2
sS'GTGQ'
p1319
I1
sS'TLTV'
p1320
I1
sS'GSYA'
p1321
I1
sS'GSYL'
p1322
I3
sS'GATL'
p1323
I1
sS'GATM'
p1324
I1
sS'WGTG'
p1325
I1
sS'DENE'
p1326
I3
sS'SSQA'
p1327
I1
sS'EVDH'
p1328
I1
sS'GSKG'
p1329
I2
sS'DTLC'
p1330
I1
sS'AAFH'
p1331
I4
sS'NEKY'
p1332
I3
sS'PHES'
p1333
I1
sS'DLLE'
p1334
I4
sS'REWE'
p1335
I1
sS'NGKR'
p1336
I1
sS'SSVE'
p1337
I1
sS'QEGP'
p1338
I1
sS'RLDG'
p1339
I2
sS'WYSQ'
p1340
I1
sS'DSYK'
p1341
I2
sS'ILSG'
p1342
I1
sS'LGGF'
p1343
I1
sS'LGGG'
p1344
I2
sS'LGGA'
p1345
I1
sS'LGGS'
p1346
I1
sS'LGGP'
p1347
I1
sS'DWAT'
p1348
I1
sS'DLLD'
p1349
I2
sS'GEVS'
p1350
I3
sS'DWAS'
p1351
I1
sS'VSMT'
p1352
I1
sS'QGSE'
p1353
I2
sS'YYSY'
p1354
I3
sS'GEVD'
p1355
I1
sS'DLLT'
p1356
I2
sS'DWAA'
p1357
I3
sS'DLLW'
p1358
I1
sS'QGSP'
p1359
I2
sS'QGSS'
p1360
I2
sS'VSMK'
p1361
I3
sS'SEAN'
p1362
I1
sS'SWRG'
p1363
I1
sS'QGAW'
p1364
I4
sS'QGAT'
p1365
I1
sS'ATMV'
p1366
I1
sS'GPDG'
p1367
I2
sS'AVNF'
p1368
I1
sS'GEDC'
p1369
I2
sS'ATMA'
p1370
I1
sS'RTCK'
p1371
I5
sS'DFED'
p1372
I1
sS'KKGF'
p1373
I5
sS'EACS'
p1374
I1
sS'QVSE'
p1375
I3
sS'RYAV'
p1376
I1
sS'QVSG'
p1377
I1
sS'RTCT'
p1378
I1
sS'SRVA'
p1379
I1
sS'YGTR'
p1380
I2
sS'YHSC'
p1381
I1
sS'SHIH'
p1382
I1
sS'FGRQ'
p1383
I2
sS'YGTG'
p1384
I2
sS'SINF'
p1385
I1
sS'SGAT'
p1386
I1
sS'HHYS'
p1387
I1
sS'QDLL'
p1388
I4
sS'SGAC'
p1389
I1
sS'HGEI'
p1390
I3
sS'ELEA'
p1391
I1
sS'QVAG'
p1392
I1
sS'DRGY'
p1393
I1
sS'NDTN'
p1394
I4
sS'AEMK'
p1395
I2
sS'DRGE'
p1396
I7
sS'KRGF'
p1397
I5
sS'ELED'
p1398
I1
sS'KRGE'
p1399
I1
sS'KGEA'
p1400
I6
sS'QLTG'
p1401
I1
sS'KGED'
p1402
I2
sS'KYML'
p1403
I1
sS'KGEK'
p1404
I2
sS'NLLR'
p1405
I1
sS'YPTE'
p1406
I1
sS'KGEP'
p1407
I7
sS'KGES'
p1408
I2
sS'KGER'
p1409
I3
sS'KGET'
p1410
I1
sS'SMND'
p1411
I3
sS'VVSM'
p1412
I1
sS'SEGT'
p1413
I1
sS'SGWH'
p1414
I5
sS'SEGL'
p1415
I4
sS'GVRG'
p1416
I1
sS'AEQY'
p1417
I1
sS'NSNC'
p1418
I1
sS'LRLT'
p1419
I1
sS'NFLG'
p1420
I2
sS'GKEG'
p1421
I1
sS'PHTS'
p1422
I1
sS'KNCH'
p1423
I1
sS'GDKG'
p1424
I21
sS'MDGS'
p1425
I1
sS'KLSI'
p1426
I3
sS'FNGN'
p1427
I1
sS'EGKH'
p1428
I1
sS'RDND'
p1429
I5
sS'LHAA'
p1430
I1
sS'VALG'
p1431
I1
sS'FRAT'
p1432
I1
sS'IRAS'
p1433
I2
sS'DEAE'
p1434
I4
sS'EGGG'
p1435
I1
sS'CAVN'
p1436
I1
sS'CAVL'
p1437
I1
sS'CAVM'
p1438
I1
sS'FQGK'
p1439
I1
sS'DLED'
p1440
I3
sS'GTAS'
p1441
I1
sS'ILQS'
p1442
I3
sS'CFGT'
p1443
I1
sS'FQGA'
p1444
I3
sS'FLHI'
p1445
I1
sS'CAVR'
p1446
I1
sS'FQGS'
p1447
I1
sS'ILQG'
p1448
I3
sS'IRGP'
p1449
I2
sS'MGPP'
p1450
I3
sS'AAGA'
p1451
I1
sS'CTAA'
p1452
I1
sS'AAGL'
p1453
I1
sS'VLYQ'
p1454
I1
sS'GSHG'
p1455
I1
sS'TVSM'
p1456
I3
sS'GSHE'
p1457
I2
sS'AAGT'
p1458
I1
sS'PTGQ'
p1459
I1
sS'PTGP'
p1460
I2
sS'AAGP'
p1461
I3
sS'TTKD'
p1462
I1
sS'MGPH'
p1463
I1
sS'MGPK'
p1464
I1
sS'MDTR'
p1465
I1
sS'NHFF'
p1466
I1
sS'GAKD'
p1467
I1
sS'GAKG'
p1468
I3
sS'NWSA'
p1469
I1
sS'RGFQ'
p1470
I1
sS'SHLD'
p1471
I1
sS'MDTE'
p1472
I1
sS'MDTD'
p1473
I7
sS'NWSS'
p1474
I1
sS'RGFG'
p1475
I5
sS'GGKN'
p1476
I1
sS'GPHT'
p1477
I1
sS'YADM'
p1478
I4
sS'YADC'
p1479
I1
sS'IHLP'
p1480
I1
sS'YADG'
p1481
I5
sS'KGYH'
p1482
I1
sS'FSEG'
p1483
I1
sS'GEIL'
p1484
I3
sS'GPHE'
p1485
I1
sS'FQIQ'
p1486
I2
sS'KYRS'
p1487
I3
sS'GPHK'
p1488
I1
sS'LIMD'
p1489
I2
sS'MELS'
p1490
I2
sS'TLCQ'
p1491
I1
sS'PLVL'
p1492
I1
sS'VIGE'
p1493
I1
sS'PLVV'
p1494
I1
sS'QFLE'
p1495
I2
sS'MELG'
p1496
I1
sS'MELD'
p1497
I1
sS'RQGS'
p1498
I1
sS'MDFE'
p1499
I1
sS'RGTA'
p1500
I1
sS'ATLL'
p1501
I1
sS'AVMF'
p1502
I1
sS'LKVL'
p1503
I1
sS'DKIH'
p1504
I5
sS'RGTH'
p1505
I1
sS'LPVF'
p1506
I1
sS'TSSC'
p1507
I1
sS'NMAF'
p1508
I1
sS'APAL'
p1509
I1
sS'YTIY'
p1510
I6
sS'LVFQ'
p1511
I6
sS'SHGS'
p1512
I1
sS'YTIH'
p1513
I1
sS'LVFC'
p1514
I1
sS'LCVT'
p1515
I1
sS'CCTE'
p1516
I1
sS'MQWP'
p1517
I1
sS'FHLI'
p1518
I4
sS'LPDC'
p1519
I9
sS'LCDM'
p1520
I9
sS'HSSN'
p1521
I2
sS'PREL'
p1522
I1
sS'ADGI'
p1523
I5
sS'WAAF'
p1524
I4
sS'ASGP'
p1525
I1
sS'LGTE'
p1526
I2
sS'WAAY'
p1527
I3
sS'QCLT'
p1528
I1
sS'TQQL'
p1529
I4
sS'GLQG'
p1530
I1
sS'KTFA'
p1531
I1
sS'DRDN'
p1532
I5
sS'WYNS'
p1533
I1
sS'HTSN'
p1534
I2
sS'KMGP'
p1535
I3
sS'IDVE'
p1536
I1
sS'DCPP'
p1537
I2
sS'YKNC'
p1538
I1
sS'LLPS'
p1539
I1
sS'LWLL'
p1540
I1
sS'KYNL'
p1541
I1
sS'AWAL'
p1542
I1
sS'VGSY'
p1543
I3
sS'DESP'
p1544
I1
sS'LTFH'
p1545
I1
sS'SLEG'
p1546
I3
sS'SFLG'
p1547
I1
sS'ADRI'
p1548
I1
sS'YLHL'
p1549
I2
sS'QGLP'
p1550
I2
sS'DLMD'
p1551
I1
sS'GGWL'
p1552
I6
sS'GNET'
p1553
I1
sS'MKPW'
p1554
I4
sS'NMSF'
p1555
I1
sS'GGWT'
p1556
I9
sS'APSL'
p1557
I1
sS'AGTN'
p1558
I1
sS'NYAD'
p1559
I3
sS'AGTC'
p1560
I1
sS'ILDD'
p1561
I2
sS'WHTI'
p1562
I5
sS'YRAG'
p1563
I1
sS'YHDC'
p1564
I1
sS'FKGA'
p1565
I1
sS'ASKV'
p1566
I1
sS'ILPS'
p1567
I1
sS'ISDK'
p1568
I1
sS'PSNC'
p1569
I1
sS'CAEQ'
p1570
I1
sS'CAMM'
p1571
I3
sS'FGQG'
p1572
I1
sS'YRSF'
p1573
I3
sS'SYKK'
p1574
I4
sS'SYKV'
p1575
I7
sS'SYKQ'
p1576
I1
sS'SYKR'
p1577
I3
sS'CAEK'
p1578
I1
sS'SYKY'
p1579
I4
sS'FQTL'
p1580
I1
sS'GLGA'
p1581
I2
sS'WDSY'
p1582
I2
sS'DTEG'
p1583
I1
sS'LSPL'
p1584
I1
sS'HFLT'
p1585
I1
sS'HFLS'
p1586
I3
sS'LILG'
p1587
I2
sS'GSNK'
p1588
I1
sS'GVGH'
p1589
I1
sS'RLTM'
p1590
I2
sS'LDDC'
p1591
I3
sS'GKHA'
p1592
I4
sS'GKHD'
p1593
I1
sS'RRQD'
p1594
I5
sS'SSFQ'
p1595
I4
sS'SSFS'
p1596
I4
sS'LRMK'
p1597
I1
sS'NYSY'
p1598
I5
sS'DFDG'
p1599
I1
sS'LDRA'
p1600
I1
sS'YQSF'
p1601
I1
sS'VVLL'
p1602
I1
sS'NYSC'
p1603
I1
sS'QGTS'
p1604
I4
sS'AGFG'
p1605
I1
sS'SGTQ'
p1606
I4
sS'LPSL'
p1607
I1
sS'VRLT'
p1608
I1
sS'ANGN'
p1609
I2
sS'ANGI'
p1610
I4
sS'KSYA'
p1611
I2
sS'ANGV'
p1612
I4
sS'ANGP'
p1613
I1
sS'GTMG'
p1614
I2
sS'VRLI'
p1615
I2
sS'RFAK'
p1616
I1
sS'GVIG'
p1617
I1
sS'RGEA'
p1618
I2
sS'LPEG'
p1619
I1
sS'RGEK'
p1620
I9
sS'GTEF'
p1621
I2
sS'SLHS'
p1622
I1
sS'RGER'
p1623
I4
sS'RGES'
p1624
I2
sS'VLLV'
p1625
I2
sS'WGRY'
p1626
I1
sS'DRGH'
p1627
I1
sS'EASK'
p1628
I1
sS'VRPA'
p1629
I2
sS'VLLP'
p1630
I1
sS'CYRS'
p1631
I1
sS'VLLC'
p1632
I1
sS'DCQP'
p1633
I2
sS'ACHS'
p1634
I1
sS'PRTC'
p1635
I6
sS'AADT'
p1636
I5
sS'KNLP'
p1637
I1
sS'GSIN'
p1638
I1
sS'DTNK'
p1639
I3
sS'LSQG'
p1640
I1
sS'NGIN'
p1641
I4
sS'SDCH'
p1642
I1
sS'YASN'
p1643
I1
sS'NWRS'
p1644
I4
sS'RYNY'
p1645
I1
sS'GADR'
p1646
I1
sS'EVSM'
p1647
I1
sS'EVSN'
p1648
I3
sS'EAAA'
p1649
I1
sS'PDCQ'
p1650
I2
sS'LTGH'
p1651
I1
sS'LTGK'
p1652
I1
sS'PDCR'
p1653
I7
sS'CLPT'
p1654
I2
sS'LTGP'
p1655
I2
sS'WALQ'
p1656
I1
sS'LTGW'
p1657
I5
sS'PWAA'
p1658
I4
sS'CLPE'
p1659
I1
sS'IDGT'
p1660
I1
sS'LQAA'
p1661
I1
sS'GNDY'
p1662
I2
sS'SMNC'
p1663
I1
sS'PDGI'
p1664
I2
sS'QQEA'
p1665
I1
sS'GNDK'
p1666
I5
sS'WELR'
p1667
I1
sS'GNDH'
p1668
I2
sS'GNDN'
p1669
I5
sS'DLNT'
p1670
I1
sS'GCLP'
p1671
I1
sS'QLRI'
p1672
I5
sS'TFAH'
p1673
I1
sS'TFAK'
p1674
I4
sS'AVLY'
p1675
I1
sS'TEVR'
p1676
I2
sS'QGCP'
p1677
I2
sS'ADCH'
p1678
I1
sS'NGGK'
p1679
I1
sS'AVLL'
p1680
I1
sS'NAGD'
p1681
I3
sS'AFSG'
p1682
I1
sS'GGFL'
p1683
I1
sS'TFAT'
p1684
I1
sS'TCKD'
p1685
I1
sS'TCKE'
p1686
I4
sS'TNGL'
p1687
I1
sS'GEFW'
p1688
I7
sS'KMVG'
p1689
I1
sS'LCQR'
p1690
I1
sS'LVGL'
p1691
I1
sS'TSNL'
p1692
I2
sS'SYLD'
p1693
I3
sS'CNLD'
p1694
I2
sS'YNYS'
p1695
I6
sS'YRRV'
p1696
I1
sS'GHSF'
p1697
I3
sS'WYAS'
p1698
I1
sS'TLLL'
p1699
I1
sS'ALDT'
p1700
I1
sS'TGWY'
p1701
I5
sS'LYHK'
p1702
I1
sS'SNYG'
p1703
I4
sS'WYAD'
p1704
I1
sS'NDHI'
p1705
I2
sS'QAAD'
p1706
I4
sS'PGIN'
p1707
I2
sS'PGIP'
p1708
I10
sS'GLPG'
p1709
I14
sS'LGKF'
p1710
I1
sS'SSGI'
p1711
I1
sS'KGKH'
p1712
I4
sS'TEQC'
p1713
I1
sS'MGYH'
p1714
I1
sS'ECGA'
p1715
I1
sS'LHQL'
p1716
I1
sS'NDNH'
p1717
I1
sS'NDNI'
p1718
I5
sS'SNKL'
p1719
I1
sS'HESN'
p1720
I1
sS'PVGP'
p1721
I1
sS'HESY'
p1722
I3
sS'DFEG'
p1723
I8
sS'DHIH'
p1724
I2
sS'TNKG'
p1725
I3
sS'WYSD'
p1726
I1
sS'FNNS'
p1727
I1
sS'SEAA'
p1728
I1
sS'DFEN'
p1729
I1
sS'SGWY'
p1730
I1
sS'GLHK'
p1731
I1
sS'QYHG'
p1732
I1
sS'HKSY'
p1733
I2
sS'NLVL'
p1734
I1
sS'DCLP'
p1735
I1
sS'AGEA'
p1736
I1
sS'NNFF'
p1737
I1
sS'VRMM'
p1738
I1
sS'DVSS'
p1739
I1
sS'QDND'
p1740
I8
sS'TEGG'
p1741
I1
sS'KGYN'
p1742
I3
sS'ELSG'
p1743
I1
sS'KGYK'
p1744
I1
sS'AWLD'
p1745
I1
sS'AAYK'
p1746
I3
sS'NLPA'
p1747
I1
sS'IRGE'
p1748
I3
sS'ELSR'
p1749
I1
sS'DVSH'
p1750
I1
sS'KGYY'
p1751
I3
sS'DVSN'
p1752
I1
sS'YPTT'
p1753
I1
sS'VDFY'
p1754
I8
sS'MRPL'
p1755
I1
sS'YHGA'
p1756
I3
sS'HTSY'
p1757
I2
sS'VDFE'
p1758
I4
sS'VDFF'
p1759
I4
sS'GGGW'
p1760
I15
sS'ACIL'
p1761
I2
sS'VNLL'
p1762
I1
sS'KNCA'
p1763
I1
sS'MSFT'
p1764
I1
sS'NHDF'
p1765
I1
sS'ASPL'
p1766
I1
sS'KDGS'
p1767
I1
sS'PFTT'
p1768
I1
sS'NGHS'
p1769
I3
sS'MDVD'
p1770
I2
sS'REFQ'
p1771
I1
sS'MARG'
p1772
I1
sS'SSGK'
p1773
I1
sS'IHNG'
p1774
I3
sS'PAGP'
p1775
I2
sS'PAGR'
p1776
I2
sS'PAGS'
p1777
I1
sS'GHIL'
p1778
I1
sS'SQGA'
p1779
I1
sS'SSGT'
p1780
I3
sS'GTVD'
p1781
I1
sS'KSWG'
p1782
I1
sS'KSWK'
p1783
I1
sS'NCKD'
p1784
I1
sS'GAWW'
p1785
I14
sS'KSWR'
p1786
I1
sS'GGGA'
p1787
I2
sS'VKIV'
p1788
I1
sS'QTLA'
p1789
I1
sS'DLQD'
p1790
I1
sS'LVDF'
p1791
I4
sS'LCPS'
p1792
I1
sS'STDG'
p1793
I1
sS'YQLA'
p1794
I1
sS'SLGE'
p1795
I1
sS'TLWA'
p1796
I1
sS'HSGR'
p1797
I1
sS'LCFG'
p1798
I1
sS'VTEL'
p1799
I1
sS'TRGA'
p1800
I2
sS'LAVL'
p1801
I1
sS'CILD'
p1802
I2
sS'TRGI'
p1803
I2
sS'TRGH'
p1804
I3
sS'YYKG'
p1805
I3
sS'TRGV'
p1806
I1
sS'TRGY'
p1807
I1
sS'MGDS'
p1808
I1
sS'RYLG'
p1809
I1
sS'HNGH'
p1810
I3
sS'WPTL'
p1811
I1
sS'IHCA'
p1812
I1
sS'PGHP'
p1813
I1
sS'RYLS'
p1814
I1
sS'RYLR'
p1815
I3
sS'RYLP'
p1816
I1
sS'AGPT'
p1817
I1
sS'ETTV'
p1818
I4
sS'YLDW'
p1819
I3
sS'TEPT'
p1820
I4
sS'FLCT'
p1821
I1
sS'QRRQ'
p1822
I5
sS'DCRP'
p1823
I7
sS'STSS'
p1824
I1
sS'YLDG'
p1825
I3
sS'SPSN'
p1826
I1
sS'LKTQ'
p1827
I1
sS'LLRC'
p1828
I1
sS'HQCT'
p1829
I3
sS'ANYA'
p1830
I3
sS'EVRN'
p1831
I4
sS'LADF'
p1832
I2
sS'GMAW'
p1833
I1
sS'GSRT'
p1834
I3
sS'HSGN'
p1835
I1
sS'IDFF'
p1836
I1
sS'SHES'
p1837
I2
sS'YYYS'
p1838
I3
sS'WLSG'
p1839
I1
sS'QGNW'
p1840
I1
sS'HPSC'
p1841
I1
sS'CAVI'
p1842
I1
sS'WETE'
p1843
I1
sS'TCTE'
p1844
I1
sS'KQES'
p1845
I3
sS'HATY'
p1846
I1
sS'AGVI'
p1847
I1
sS'HCHH'
p1848
I3
sS'LHLL'
p1849
I2
sS'EQEK'
p1850
I2
sS'TEFW'
p1851
I2
sS'CLKT'
p1852
I1
sS'VAAA'
p1853
I1
sS'FRDW'
p1854
I3
sS'AQAA'
p1855
I3
sS'QRRL'
p1856
I2
sS'RAGF'
p1857
I1
sS'CHSS'
p1858
I2
sS'VDGS'
p1859
I3
sS'HILS'
p1860
I1
sS'GRGY'
p1861
I1
sS'ASME'
p1862
I2
sS'GRGE'
p1863
I2
sS'GRGH'
p1864
I1
sS'VDGG'
p1865
I2
sS'GRGM'
p1866
I1
sS'DLAD'
p1867
I2
sS'MRAY'
p1868
I1
sS'FQVS'
p1869
I2
sS'MKLR'
p1870
I1
sS'DWTS'
p1871
I2
sS'GLEG'
p1872
I5
sS'ALGP'
p1873
I3
sS'ALGQ'
p1874
I2
sS'NDYL'
p1875
I2
sS'FQGQ'
p1876
I1
sS'DGNH'
p1877
I1
sS'DGNM'
p1878
I1
sS'GFGR'
p1879
I2
sS'DPGP'
p1880
I4
sS'CHAS'
p1881
I1
sS'PEVK'
p1882
I6
sS'GRQV'
p1883
I1
sS'IHAL'
p1884
I7
sS'DFPL'
p1885
I1
sS'GSHL'
p1886
I1
sS'LDFP'
p1887
I1
sS'GKNC'
p1888
I1
sS'RRSD'
p1889
I2
sS'DMET'
p1890
I4
sS'GLKG'
p1891
I6
sS'ILRG'
p1892
I5
sS'LFHG'
p1893
I2
sS'FSTK'
p1894
I10
sS'PLGQ'
p1895
I1
sS'VMFQ'
p1896
I1
sS'LDTC'
p1897
I1
sS'SWSS'
p1898
I1
sS'THDQ'
p1899
I2
sS'GFLE'
p1900
I1
sS'DCNL'
p1901
I2
sS'VIVH'
p1902
I1
sS'DANS'
p1903
I1
sS'ENPM'
p1904
I3
sS'ELDR'
p1905
I1
sS'EGLK'
p1906
I4
sS'VRNC'
p1907
I4
sS'AATL'
p1908
I1
sS'MGPA'
p1909
I1
sS'LPGV'
p1910
I1
sS'GVKG'
p1911
I2
sS'LPGS'
p1912
I1
sS'RYSY'
p1913
I1
sS'YMIY'
p1914
I1
sS'LPGE'
p1915
I2
sS'NDVS'
p1916
I2
sS'LPGA'
p1917
I9
sS'RIHN'
p1918
I3
sS'SLFT'
p1919
I1
sS'LPGI'
p1920
I1
sS'CVTE'
p1921
I1
sS'TRDK'
p1922
I3
sS'PTLW'
p1923
I1
sS'EPGT'
p1924
I2
sS'IYLP'
p1925
I8
sS'PHKS'
p1926
I1
sS'YLPD'
p1927
I8
sS'EQYH'
p1928
I1
sS'GING'
p1929
I2
sS'GIDW'
p1930
I1
sS'VHGA'
p1931
I1
sS'GINW'
p1932
I9
sS'LSEC'
p1933
I1
sS'QEKY'
p1934
I2
sS'SMKP'
p1935
I2
sS'AMMY'
p1936
I3
sS'NGWY'
p1937
I4
sS'LSSH'
p1938
I1
sS'SQNN'
p1939
I1
sS'GAFV'
p1940
I4
sS'KSFK'
p1941
I1
sS'EAGA'
p1942
I5
sS'LTIL'
p1943
I4
sS'GSSN'
p1944
I1
sS'CRRG'
p1945
I1
sS'VGPK'
p1946
I1
sS'EAGP'
p1947
I2
sS'GQKE'
p1948
I1
sS'EAGV'
p1949
I1
sS'EAGT'
p1950
I1
sS'SPLG'
p1951
I1
sS'TMVL'
p1952
I1
sS'DQYA'
p1953
I1
sS'SPLV'
p1954
I1
sS'DWEA'
p1955
I1
sS'GHFL'
p1956
I4
sS'GHHY'
p1957
I1
sS'GAPG'
p1958
I8
sS'WLLL'
p1959
I1
sS'RGYN'
p1960
I2
sS'QLLL'
p1961
I1
sS'RGYF'
p1962
I2
sS'SLTD'
p1963
I1
sS'SLTG'
p1964
I1
sS'SLTF'
p1965
I1
sS'LCSS'
p1966
I1
sS'WKSG'
p1967
I1
sS'ETEQ'
p1968
I1
sS'KVAD'
p1969
I2
sS'KVAE'
p1970
I2
sS'SLTK'
p1971
I2
sS'AKDC'
p1972
I1
sS'SLTP'
p1973
I1
sS'SLTS'
p1974
I2
sS'WKSW'
p1975
I3
sS'SFQT'
p1976
I1
sS'KVAV'
p1977
I1
sS'MMLR'
p1978
I1
sS'LHSC'
p1979
I1
sS'LLSF'
p1980
I1
sS'TSHN'
p1981
I1
sS'FGNQ'
p1982
I1
sS'LWAF'
p1983
I2
sS'DKVA'
p1984
I1
sS'LEGE'
p1985
I3
sS'FKVA'
p1986
I2
sS'LLSQ'
p1987
I1
sS'RATM'
p1988
I1
sS'FGNL'
p1989
I2
sS'VSGE'
p1990
I1
sS'FANG'
p1991
I2
sS'LQSQ'
p1992
I3
sS'HGSF'
p1993
I2
sS'KTQE'
p1994
I1
sS'PSQA'
p1995
I1
sS'PGEK'
p1996
I1
sS'PGET'
p1997
I2
sS'PGEP'
p1998
I2
sS'QPCL'
p1999
I1
sS'MALG'
p2000
I1
sS'DRIF'
p2001
I1
sS'PSQS'
p2002
I2
sS'PGKM'
p2003
I3
sS'HGAW'
p2004
I6
sS'PGKE'
p2005
I1
sS'GNFL'
p2006
I2
sS'PGKA'
p2007
I5
sS'TAGD'
p2008
I3
sS'IPGV'
p2009
I7
sS'KGIR'
p2010
I1
sS'IVGL'
p2011
I1
sS'LGMA'
p2012
I1
sS'FRSW'
p2013
I1
sS'ALTA'
p2014
I5
sS'YKQG'
p2015
I4
sS'RVAV'
p2016
I1
sS'TGGT'
p2017
I2
sS'YLGG'
p2018
I1
sS'IVGS'
p2019
I3
sS'ALTT'
p2020
I2
sS'IPGK'
p2021
I2
sS'IPGI'
p2022
I5
sS'DMDT'
p2023
I8
sS'DMDV'
p2024
I2
sS'GPVG'
p2025
I1
sS'IHLL'
p2026
I5
sS'AKYK'
p2027
I1
sS'SGKG'
p2028
I5
sS'AKYS'
p2029
I7
sS'AKYR'
p2030
I3
sS'AKYQ'
p2031
I1
sS'NDLN'
p2032
I1
sS'WRGY'
p2033
I1
sS'GVVG'
p2034
I1
sS'LQNG'
p2035
I1
sS'SECG'
p2036
I1
sS'AGAK'
p2037
I3
sS'ELGG'
p2038
I1
sS'ELGD'
p2039
I2
sS'YRKC'
p2040
I1
sS'EEQE'
p2041
I1
sS'AGAN'
p2042
I1
sS'AGAL'
p2043
I1
sS'AGAS'
p2044
I1
sS'NWEL'
p2045
I1
sS'TEKY'
p2046
I1
sS'VGLE'
p2047
I5
sS'VGLG'
p2048
I2
sS'ALFH'
p2049
I2
sS'ALFV'
p2050
I2
sS'TEEV'
p2051
I1
sS'SMTA'
p2052
I1
sS'SRLG'
p2053
I1
sS'YHYS'
p2054
I1
sS'VCLC'
p2055
I1
sS'NGSP'
p2056
I1
sS'ASNL'
p2057
I1
sS'ASNC'
p2058
I1
sS'SIDF'
p2059
I1
sS'SCAM'
p2060
I1
sS'PTCC'
p2061
I1
sS'TLGQ'
p2062
I2
sS'YFLT'
p2063
I1
sS'TLGS'
p2064
I1
sS'INWR'
p2065
I3
sS'YFLS'
p2066
I1
sS'PRSC'
p2067
I2
sS'QGEK'
p2068
I2
sS'PTCR'
p2069
I3
sS'SCAT'
p2070
I5
sS'WASG'
p2071
I1
sS'KFRA'
p2072
I1
sS'QWPT'
p2073
I1
sS'QEHP'
p2074
I1
sS'DGCL'
p2075
I1
sS'KLRL'
p2076
I1
sS'GAGD'
p2077
I2
sS'YANG'
p2078
I6
sS'LSRV'
p2079
I1
sS'NGVN'
p2080
I4
sS'KSGK'
p2081
I1
sS'YHKG'
p2082
I1
sS'DACI'
p2083
I2
sS'NETE'
p2084
I1
sS'GRPF'
p2085
I1
sS'SKVV'
p2086
I1
sS'TDGG'
p2087
I12
sS'FSIG'
p2088
I4
sS'LDGS'
p2089
I5
sS'TNGS'
p2090
I2
sS'DFQG'
p2091
I1
sS'TNGG'
p2092
I1
sS'LDGC'
p2093
I1
sS'SSEL'
p2094
I1
sS'GFQG'
p2095
I1
sS'TNGK'
p2096
I1
sS'LDGN'
p2097
I1
sS'CGAD'
p2098
I1
sS'TTGR'
p2099
I1
sS'GAQG'
p2100
I1
sS'GAQD'
p2101
I4
sS'CPSF'
p2102
I1
sS'AFPV'
p2103
I1
sS'EPTC'
p2104
I4
sS'CPSQ'
p2105
I1
sS'LCRR'
p2106
I1
sS'SWGR'
p2107
I1
sS'SLSL'
p2108
I1
sS'AVIV'
p2109
I1
sS'IGDE'
p2110
I3
sS'SLSS'
p2111
I1
sS'AVIQ'
p2112
I1
sS'NSMN'
p2113
I1
sS'ETDG'
p2114
I4
sS'KQGF'
p2115
I4
sS'ATLS'
p2116
I1
sS'KVVV'
p2117
I1
sS'SSSN'
p2118
I1
sS'EDNY'
p2119
I1
sS'KVVL'
p2120
I1
sS'KVVG'
p2121
I4
sS'DFNN'
p2122
I1
sS'SLWL'
p2123
I1
sS'GDSG'
p2124
I1
sS'GDSL'
p2125
I10
sS'MLRM'
p2126
I1
sS'LSLH'
p2127
I1
sS'TTQG'
p2128
I2
sS'VLCD'
p2129
I9
sS'LSLC'
p2130
I1
sS'HLLT'
p2131
I7
sS'QALG'
p2132
I2
sS'ARGL'
p2133
I1
sS'DKII'
p2134
I4
sS'ARGE'
p2135
I2
sS'KGNQ'
p2136
I1
sS'TGFD'
p2137
I2
sS'VEDF'
p2138
I1
sS'FRTW'
p2139
I1
sS'KGNC'
p2140
I3
sS'YKRG'
p2141
I5
sS'SPQL'
p2142
I1
sS'RRLD'
p2143
I2
sS'HRYS'
p2144
I1
sS'GSPA'
p2145
I2
sS'GSPG'
p2146
I4
sS'IVHG'
p2147
I1
sS'GSPQ'
p2148
I1
sS'GGSH'
p2149
I1
sS'MDLL'
p2150
I1
sS'DWDS'
p2151
I2
sS'GGSA'
p2152
I1
sS'GGSF'
p2153
I1
sS'QGHH'
p2154
I1
sS'TSYK'
p2155
I2
sS'DKGD'
p2156
I19
sS'DKGE'
p2157
I2
sS'TSYA'
p2158
I2
sS'GWHT'
p2159
I5
sS'QGHF'
p2160
I1
sS'AGPP'
p2161
I1
sS'QRRV'
p2162
I3
sS'IMDT'
p2163
I1
sS'QRRS'
p2164
I2
sS'AGPV'
p2165
I1
sS'VGKA'
p2166
I1
sS'YLPG'
p2167
I1
sS'NLGT'
p2168
I2
sS'AGPA'
p2169
I2
sS'ELRV'
p2170
I10
sS'QDKV'
p2171
I2
sS'QRRM'
p2172
I1
sS'AGPK'
p2173
I10
sS'QRRK'
p2174
I1
sS'QRRI'
p2175
I1
sS'ELTL'
p2176
I1
sS'CHQS'
p2177
I2
sS'SYAD'
p2178
I2
sS'SYAN'
p2179
I5
sS'SYAK'
p2180
I1
sS'AHYA'
p2181
I1
sS'GRAL'
p2182
I1
sS'YREW'
p2183
I1
sS'LLTA'
p2184
I2
sS'LEHG'
p2185
I3
sS'SMKG'
p2186
I1
sS'CQQQ'
p2187
I1
sS'AFLC'
p2188
I1
sS'LLTQ'
p2189
I1
sS'LLTR'
p2190
I6
sS'LLTS'
p2191
I4
sS'WEAY'
p2192
I1
sS'CHTS'
p2193
I2
sS'PNGA'
p2194
I1
sS'PGDP'
p2195
I1
sS'DVEV'
p2196
I2
sS'DALC'
p2197
I1
sS'EGNA'
p2198
I3
sS'EGNH'
p2199
I4
sS'GRSF'
p2200
I1
sS'FLSG'
p2201
I4
sS'FLSF'
p2202
I1
sS'ILNG'
p2203
I3
sS'LRGL'
p2204
I2
sS'LRGC'
p2205
I5
sS'MLWA'
p2206
I1
sS'VFCD'
p2207
I5
sS'LYQG'
p2208
I1
sS'DFNG'
p2209
I1
sS'GFPG'
p2210
I1
sS'GPQG'
p2211
I6
sS'LRGP'
p2212
I2
sS'LRGT'
p2213
I1
sS'VFQR'
p2214
I15
sS'LSIL'
p2215
I3
sS'HRFA'
p2216
I1
sS'TGQG'
p2217
I1
sS'DMKI'
p2218
I4
sS'PLAL'
p2219
I1
sS'LFVL'
p2220
I2
sS'GRGV'
p2221
I1
sS'QCTR'
p2222
I3
sS'MTAW'
p2223
I1
sS'AHKY'
p2224
I1
sS'DCHA'
p2225
I1
sS'SCPS'
p2226
I1
sS'RSGR'
p2227
I1
sS'SNSN'
p2228
I1
sS'RSGK'
p2229
I3
sS'SCPG'
p2230
I3
sS'DCHQ'
p2231
I1
sS'SELR'
p2232
I5
sS'DCHT'
p2233
I1
s.