(dp1
S'LPAS'
p2
I5
sS'LIFG'
p3
I2
sS'LPAP'
p4
I2
sS'TNRL'
p5
I3
sS'EDQQ'
p6
I1
sS'SLDR'
p7
I12
sS'KVQQ'
p8
I1
sS'LPAY'
p9
I1
sS'RGIA'
p10
I1
sS'ERIR'
p11
I1
sS'SQLV'
p12
I3
sS'SSPA'
p13
I2
sS'LPAA'
p14
I1
sS'ERIK'
p15
I3
sS'LPAE'
p16
I2
sS'SLDQ'
p17
I3
sS'GTIA'
p18
I1
sS'SSPR'
p19
I3
sS'KVQE'
p20
I3
sS'ERIA'
p21
I2
sS'EAWQ'
p22
I1
sS'VRTL'
p23
I3
sS'LSTQ'
p24
I3
sS'ASMA'
p25
I1
sS'AYRV'
p26
I3
sS'FDQL'
p27
I1
sS'TTRL'
p28
I1
sS'ANNK'
p29
I1
sS'LASL'
p30
I1
sS'LASM'
p31
I2
sS'AGLD'
p32
I2
sS'AGLF'
p33
I1
sS'ELHD'
p34
I1
sS'PADE'
p35
I10
sS'AGLA'
p36
I1
sS'GEAG'
p37
I2
sS'GELQ'
p38
I2
sS'DRQR'
p39
I6
sS'GSMT'
p40
I1
sS'GKLI'
p41
I1
sS'GKLV'
p42
I1
sS'AGLV'
p43
I1
sS'AGLP'
p44
I7
sS'GKLS'
p45
I1
sS'GKLP'
p46
I1
sS'AGLS'
p47
I11
sS'TLHQ'
p48
I2
sS'KSDP'
p49
I1
sS'NEAH'
p50
I1
sS'WSLG'
p51
I3
sS'YFSA'
p52
I5
sS'KSDA'
p53
I1
sS'QQIK'
p54
I1
sS'KADR'
p55
I2
sS'ASSQ'
p56
I1
sS'ASSP'
p57
I1
sS'KSDL'
p58
I9
sS'LAAL'
p59
I12
sS'IVWP'
p60
I3
sS'EAEL'
p61
I1
sS'LAAI'
p62
I10
sS'LAAG'
p63
I1
sS'IDCP'
p64
I1
sS'LAAA'
p65
I2
sS'LTKE'
p66
I1
sS'IAYR'
p67
I10
sS'RVQA'
p68
I1
sS'IAYY'
p69
I1
sS'HRVE'
p70
I1
sS'FTAR'
p71
I1
sS'LAAR'
p72
I1
sS'LAAS'
p73
I1
sS'GSQS'
p74
I1
sS'ADYA'
p75
I10
sS'DQGQ'
p76
I1
sS'AVVY'
p77
I3
sS'GGLS'
p78
I4
sS'AVVV'
p79
I1
sS'ELRR'
p80
I1
sS'AVVQ'
p81
I2
sS'MPLP'
p82
I1
sS'QQAA'
p83
I3
sS'AVVL'
p84
I1
sS'AVVK'
p85
I3
sS'IIAT'
p86
I1
sS'GGPA'
p87
I1
sS'VTHE'
p88
I3
sS'GHDA'
p89
I1
sS'QQAL'
p90
I4
sS'PQSL'
p91
I3
sS'IKML'
p92
I1
sS'KSRI'
p93
I1
sS'QDVV'
p94
I2
sS'EGKT'
p95
I3
sS'GGMT'
p96
I1
sS'KSRA'
p97
I8
sS'DQIR'
p98
I1
sS'QQSI'
p99
I1
sS'EIRR'
p100
I2
sS'QQSL'
p101
I1
sS'IQVD'
p102
I1
sS'EWAE'
p103
I1
sS'QLNA'
p104
I1
sS'DSER'
p105
I2
sS'DQIA'
p106
I10
sS'QTIQ'
p107
I1
sS'LPSK'
p108
I3
sS'RLLA'
p109
I2
sS'IEQA'
p110
I1
sS'LPSL'
p111
I1
sS'RLLD'
p112
I1
sS'ITGS'
p113
I2
sS'DYAT'
p114
I1
sS'IEIT'
p115
I2
sS'LPSE'
p116
I2
sS'RRIE'
p117
I2
sS'SLRL'
p118
I1
sS'EKAK'
p119
I1
sS'SLRQ'
p120
I1
sS'AADK'
p121
I1
sS'LPSS'
p122
I1
sS'SLPV'
p123
I3
sS'QTIL'
p124
I1
sS'DYAA'
p125
I10
sS'YKAA'
p126
I3
sS'DLDI'
p127
I2
sS'VAPL'
p128
I1
sS'DLDA'
p129
I1
sS'RAVV'
p130
I2
sS'RAVR'
p131
I11
sS'VQIE'
p132
I1
sS'YRVA'
p133
I3
sS'SPPP'
p134
I1
sS'FGLE'
p135
I2
sS'PTSF'
p136
I1
sS'RAVF'
p137
I1
sS'RETS'
p138
I2
sS'WRWP'
p139
I1
sS'ARTR'
p140
I1
sS'PSSL'
p141
I1
sS'EKAR'
p142
I2
sS'KIQQ'
p143
I3
sS'DVQV'
p144
I3
sS'AYRN'
p145
I1
sS'DLLM'
p146
I1
sS'LVQR'
p147
I2
sS'ATEL'
p148
I1
sS'IAGV'
p149
I9
sS'AIGE'
p150
I2
sS'AKGR'
p151
I2
sS'ATEI'
p152
I1
sS'KMLR'
p153
I1
sS'LVQA'
p154
I1
sS'WKGR'
p155
I1
sS'QAMG'
p156
I1
sS'IAGL'
p157
I1
sS'GLTL'
p158
I2
sS'ETYD'
p159
I1
sS'RLPE'
p160
I1
sS'RLGE'
p161
I1
sS'FTQS'
p162
I1
sS'DNFT'
p163
I1
sS'ALVV'
p164
I5
sS'ALVR'
p165
I1
sS'YYRA'
p166
I1
sS'YLAR'
p167
I3
sS'LQKS'
p168
I10
sS'YLAT'
p169
I1
sS'LQKV'
p170
I1
sS'ALVG'
p171
I3
sS'ALVA'
p172
I1
sS'GGMK'
p173
I1
sS'LQKA'
p174
I1
sS'LNYK'
p175
I2
sS'AVAA'
p176
I2
sS'YVFK'
p177
I1
sS'HSEA'
p178
I1
sS'HANK'
p179
I1
sS'ALGQ'
p180
I1
sS'LIYY'
p181
I1
sS'FARL'
p182
I1
sS'RAPL'
p183
I10
sS'MSAQ'
p184
I1
sS'SDSE'
p185
I2
sS'KRQL'
p186
I2
sS'LEAL'
p187
I2
sS'SNWK'
p188
I1
sS'SLPR'
p189
I1
sS'YTDY'
p190
I1
sS'QDDE'
p191
I1
sS'TEIA'
p192
I1
sS'QDDA'
p193
I11
sS'PVKH'
p194
I1
sS'AASQ'
p195
I1
sS'AASP'
p196
I1
sS'ARRL'
p197
I1
sS'EIWQ'
p198
I3
sS'RDFF'
p199
I14
sS'AASH'
p200
I2
sS'AASL'
p201
I16
sS'AASA'
p202
I1
sS'SEMS'
p203
I1
sS'KNYF'
p204
I1
sS'AASD'
p205
I1
sS'EEAY'
p206
I2
sS'QPEA'
p207
I3
sS'VETY'
p208
I1
sS'QRQQ'
p209
I2
sS'FRGT'
p210
I1
sS'EEAQ'
p211
I3
sS'AEEK'
p212
I1
sS'QPEN'
p213
I1
sS'EEAV'
p214
I1
sS'RQDG'
p215
I1
sS'RALG'
p216
I2
sS'RDHL'
p217
I2
sS'AEER'
p218
I1
sS'AGQG'
p219
I3
sS'YLSA'
p220
I1
sS'YLSN'
p221
I1
sS'QPEY'
p222
I2
sS'STNA'
p223
I1
sS'DVGA'
p224
I3
sS'GNLI'
p225
I2
sS'QIRV'
p226
I1
sS'AEFD'
p227
I2
sS'AQLD'
p228
I12
sS'AQLE'
p229
I1
sS'SKFF'
p230
I1
sS'RMSK'
p231
I1
sS'AQLR'
p232
I2
sS'AQLP'
p233
I3
sS'AQLQ'
p234
I11
sS'AQLT'
p235
I12
sS'TYDP'
p236
I1
sS'QFFN'
p237
I1
sS'AAAS'
p238
I1
sS'AAAR'
p239
I16
sS'AAAT'
p240
I1
sS'AAAV'
p241
I4
sS'DIQA'
p242
I3
sS'RMSN'
p243
I1
sS'VVSE'
p244
I1
sS'TVLE'
p245
I1
sS'PAKA'
p246
I1
sS'AAAA'
p247
I10
sS'AGMV'
p248
I1
sS'AAAC'
p249
I1
sS'AAAE'
p250
I1
sS'AAAD'
p251
I1
sS'AAAG'
p252
I1
sS'AGMP'
p253
I1
sS'AAAI'
p254
I1
sS'FSVD'
p255
I1
sS'PAKV'
p256
I1
sS'AAAL'
p257
I7
sS'GAAS'
p258
I3
sS'LLPL'
p259
I2
sS'GAAP'
p260
I2
sS'NNLL'
p261
I3
sS'LDQI'
p262
I1
sS'QWRR'
p263
I5
sS'QWRQ'
p264
I10
sS'EKYK'
p265
I3
sS'GAAA'
p266
I4
sS'GAAG'
p267
I5
sS'GAAE'
p268
I1
sS'GAAD'
p269
I1
sS'KAER'
p270
I11
sS'RELA'
p271
I3
sS'ASTS'
p272
I2
sS'HYLV'
p273
I2
sS'DGSP'
p274
I1
sS'ELSA'
p275
I3
sS'DAKG'
p276
I2
sS'FLPS'
p277
I2
sS'EQKL'
p278
I3
sS'QWQQ'
p279
I2
sS'DAKQ'
p280
I2
sS'DGSF'
p281
I1
sS'RFFS'
p282
I1
sS'AEEN'
p283
I3
sS'DTQV'
p284
I1
sS'RHIA'
p285
I2
sS'GRRL'
p286
I1
sS'DTQQ'
p287
I3
sS'PESA'
p288
I1
sS'THQA'
p289
I1
sS'AMRA'
p290
I10
sS'RLQV'
p291
I3
sS'PEST'
p292
I2
sS'LRDA'
p293
I8
sS'RLQA'
p294
I1
sS'LDIE'
p295
I2
sS'RRLM'
p296
I2
sS'KAPA'
p297
I1
sS'HDQK'
p298
I1
sS'RRVA'
p299
I3
sS'GPEL'
p300
I2
sS'GASA'
p301
I3
sS'TTSI'
p302
I1
sS'DPDT'
p303
I1
sS'GASG'
p304
I2
sS'GASF'
p305
I1
sS'TPSQ'
p306
I3
sS'ADRR'
p307
I1
sS'KPWQ'
p308
I1
sS'WLAW'
p309
I1
sS'GASW'
p310
I1
sS'ADRT'
p311
I1
sS'AVGL'
p312
I3
sS'GEKT'
p313
I1
sS'ERFS'
p314
I1
sS'GEKP'
p315
I2
sS'GEKS'
p316
I1
sS'EMKK'
p317
I3
sS'SLQG'
p318
I2
sS'QQPL'
p319
I1
sS'AVGG'
p320
I4
sS'QESD'
p321
I2
sS'EPVK'
p322
I1
sS'LPLD'
p323
I14
sS'EERF'
p324
I1
sS'LPLA'
p325
I3
sS'APGE'
p326
I1
sS'RLMS'
p327
I2
sS'SSQI'
p328
I1
sS'RLKD'
p329
I3
sS'TVLP'
p330
I3
sS'LDAQ'
p331
I1
sS'LRAL'
p332
I2
sS'RLRR'
p333
I2
sS'MHDQ'
p334
I1
sS'QENQ'
p335
I3
sS'LIEQ'
p336
I1
sS'WFVW'
p337
I1
sS'PAYL'
p338
I1
sS'LLDE'
p339
I1
sS'KQIT'
p340
I1
sS'GTRM'
p341
I1
sS'GKSA'
p342
I2
sS'LARR'
p343
I6
sS'VTIG'
p344
I3
sS'LARV'
p345
I6
sS'LART'
p346
I1
sS'SAAV'
p347
I1
sS'EATT'
p348
I1
sS'RIEG'
p349
I1
sS'SAAS'
p350
I1
sS'SAAR'
p351
I1
sS'MKKT'
p352
I2
sS'SAAP'
p353
I1
sS'LARC'
p354
I1
sS'SAAL'
p355
I1
sS'FFAD'
p356
I1
sS'SAAG'
p357
I3
sS'AIEA'
p358
I1
sS'SAAA'
p359
I6
sS'LARL'
p360
I12
sS'QITM'
p361
I1
sS'SFDA'
p362
I2
sS'ATDL'
p363
I1
sS'ERTA'
p364
I1
sS'IGPE'
p365
I2
sS'DGIR'
p366
I3
sS'IADL'
p367
I1
sS'RVET'
p368
I1
sS'AIDR'
p369
I2
sS'AIDQ'
p370
I11
sS'AIDV'
p371
I3
sS'IADG'
p372
I2
sS'IADD'
p373
I3
sS'ERTR'
p374
I2
sS'LANG'
p375
I2
sS'ALQQ'
p376
I3
sS'ALQR'
p377
I1
sS'AREE'
p378
I1
sS'RVDD'
p379
I1
sS'SFVN'
p380
I3
sS'EVDG'
p381
I3
sS'RMAI'
p382
I1
sS'ALQA'
p383
I1
sS'AQTQ'
p384
I1
sS'EAHV'
p385
I1
sS'RVDQ'
p386
I1
sS'RVDR'
p387
I5
sS'ALQK'
p388
I1
sS'ALQL'
p389
I10
sS'LGNL'
p390
I1
sS'ALQN'
p391
I1
sS'ESDA'
p392
I2
sS'RVRR'
p393
I1
sS'LIIG'
p394
I2
sS'FFSL'
p395
I1
sS'FFSA'
p396
I1
sS'LTLY'
p397
I1
sS'GQFQ'
p398
I2
sS'LTLA'
p399
I1
sS'MPAK'
p400
I1
sS'IAVT'
p401
I1
sS'FFSS'
p402
I1
sS'GSVS'
p403
I1
sS'GSVT'
p404
I1
sS'LLDQ'
p405
I4
sS'PPAA'
p406
I1
sS'IKNY'
p407
I1
sS'RLRL'
p408
I3
sS'PPAL'
p409
I2
sS'QQNQ'
p410
I1
sS'KYRE'
p411
I1
sS'RRQW'
p412
I2
sS'DLSL'
p413
I3
sS'PPAS'
p414
I1
sS'PPAR'
p415
I1
sS'SPAP'
p416
I2
sS'SPAQ'
p417
I1
sS'DLSA'
p418
I10
sS'APSP'
p419
I1
sS'LTPD'
p420
I1
sS'DRLG'
p421
I1
sS'DRLE'
p422
I3
sS'VGIR'
p423
I1
sS'LTPA'
p424
I4
sS'ELVQ'
p425
I1
sS'PDTV'
p426
I1
sS'RDIR'
p427
I1
sS'AGRR'
p428
I1
sS'ELVT'
p429
I1
sS'ALCA'
p430
I3
sS'LAAV'
p431
I1
sS'KPNA'
p432
I1
sS'DRLR'
p433
I2
sS'RQGG'
p434
I1
sS'AGRH'
p435
I1
sS'VENL'
p436
I3
sS'ELVA'
p437
I1
sS'NTTP'
p438
I1
sS'LGAL'
p439
I10
sS'SKGS'
p440
I1
sS'SRQS'
p441
I1
sS'VAEI'
p442
I2
sS'VAEM'
p443
I1
sS'NLEQ'
p444
I2
sS'VGEQ'
p445
I3
sS'RVQI'
p446
I1
sS'SRQM'
p447
I1
sS'AQMN'
p448
I1
sS'APSL'
p449
I1
sS'SYQQ'
p450
I2
sS'DLRS'
p451
I1
sS'RAQQ'
p452
I1
sS'RAQR'
p453
I2
sS'RAQS'
p454
I1
sS'PQLT'
p455
I3
sS'RAQI'
p456
I11
sS'DKSD'
p457
I10
sS'VASY'
p458
I2
sS'RAQL'
p459
I11
sS'VWTR'
p460
I3
sS'QGTE'
p461
I1
sS'AIRA'
p462
I1
sS'PSRQ'
p463
I1
sS'DEVE'
p464
I2
sS'AIRF'
p465
I2
sS'TARL'
p466
I3
sS'TQID'
p467
I1
sS'TQIE'
p468
I2
sS'TARG'
p469
I4
sS'TARE'
p470
I3
sS'AIRQ'
p471
I2
sS'VMPA'
p472
I1
sS'VEAQ'
p473
I1
sS'TARS'
p474
I5
sS'TARR'
p475
I1
sS'NTGL'
p476
I1
sS'QTTY'
p477
I2
sS'TQIQ'
p478
I3
sS'TYDA'
p479
I1
sS'AHMA'
p480
I3
sS'NEQT'
p481
I1
sS'RCAV'
p482
I1
sS'DRLS'
p483
I2
sS'AHMT'
p484
I1
sS'ENTT'
p485
I1
sS'AAPP'
p486
I4
sS'AAPQ'
p487
I5
sS'QIAQ'
p488
I11
sS'QIAS'
p489
I1
sS'KATE'
p490
I1
sS'VCGV'
p491
I3
sS'AWSL'
p492
I3
sS'LREQ'
p493
I5
sS'LRES'
p494
I1
sS'LRER'
p495
I2
sS'RQYF'
p496
I1
sS'FSNE'
p497
I1
sS'YQQE'
p498
I2
sS'LQKD'
p499
I3
sS'GPAA'
p500
I2
sS'NQNI'
p501
I1
sS'TTAL'
p502
I2
sS'KDTA'
p503
I1
sS'LIVN'
p504
I1
sS'LREL'
p505
I3
sS'KLDF'
p506
I3
sS'PEDQ'
p507
I1
sS'RYFS'
p508
I3
sS'VDKI'
p509
I1
sS'SNVT'
p510
I1
sS'DEVT'
p511
I3
sS'MAAR'
p512
I4
sS'SGNL'
p513
I1
sS'PQPA'
p514
I1
sS'DRRA'
p515
I1
sS'QYID'
p516
I1
sS'ANAV'
p517
I1
sS'RQQI'
p518
I1
sS'RQQL'
p519
I4
sS'ANAS'
p520
I1
sS'RQQA'
p521
I3
sS'RSEQ'
p522
I1
sS'QRFF'
p523
I1
sS'KEDL'
p524
I1
sS'EELG'
p525
I1
sS'RDGA'
p526
I3
sS'DFKR'
p527
I1
sS'QRFS'
p528
I3
sS'RSEA'
p529
I3
sS'RQQT'
p530
I1
sS'SENT'
p531
I1
sS'IEAQ'
p532
I3
sS'LIDE'
p533
I1
sS'RRYR'
p534
I2
sS'RYTL'
p535
I1
sS'LMIF'
p536
I1
sS'YCAY'
p537
I3
sS'IEAL'
p538
I3
sS'RRYA'
p539
I1
sS'IEAN'
p540
I1
sS'LIDS'
p541
I3
sS'ILVR'
p542
I3
sS'RIDK'
p543
I1
sS'VRVS'
p544
I1
sS'LMPQ'
p545
I1
sS'VLYL'
p546
I3
sS'PRLP'
p547
I12
sS'GSAQ'
p548
I3
sS'RIDA'
p549
I3
sS'LAQQ'
p550
I2
sS'LAQL'
p551
I1
sS'TILN'
p552
I1
sS'GSAH'
p553
I4
sS'LAQG'
p554
I2
sS'PRLA'
p555
I1
sS'LAQA'
p556
I1
sS'HALQ'
p557
I1
sS'VRDY'
p558
I1
sS'AATD'
p559
I1
sS'DPTL'
p560
I2
sS'AGNL'
p561
I3
sS'AANL'
p562
I2
sS'EEPV'
p563
I1
sS'AANH'
p564
I1
sS'HALD'
p565
I1
sS'PVIQ'
p566
I3
sS'EGRA'
p567
I8
sS'VRDF'
p568
I14
sS'LQRR'
p569
I2
sS'VRNE'
p570
I3
sS'WQEK'
p571
I3
sS'PDMG'
p572
I2
sS'CGVW'
p573
I3
sS'DQIL'
p574
I1
sS'NGSK'
p575
I1
sS'NRLR'
p576
I3
sS'VLPQ'
p577
I4
sS'SAPR'
p578
I11
sS'LVAC'
p579
I1
sS'LVAD'
p580
I1
sS'QQES'
p581
I2
sS'RIVL'
p582
I3
sS'TRNC'
p583
I1
sS'ITAL'
p584
I1
sS'LVAL'
p585
I4
sS'RVSM'
p586
I1
sS'VKLP'
p587
I3
sS'LVAR'
p588
I1
sS'RVSI'
p589
I2
sS'VDAS'
p590
I1
sS'HRTL'
p591
I1
sS'LVAV'
p592
I1
sS'MRQA'
p593
I1
sS'IAWS'
p594
I3
sS'FFIA'
p595
I2
sS'LLER'
p596
I1
sS'LLEQ'
p597
I1
sS'ETLH'
p598
I2
sS'SAEE'
p599
I3
sS'VIRT'
p600
I1
sS'DLTP'
p601
I3
sS'KSRT'
p602
I1
sS'LLEY'
p603
I3
sS'QKRQ'
p604
I1
sS'INAL'
p605
I1
sS'GCVV'
p606
I3
sS'VTAP'
p607
I1
sS'LEYF'
p608
I3
sS'RMFT'
p609
I2
sS'DQEE'
p610
I1
sS'FKGT'
p611
I2
sS'ADIQ'
p612
I3
sS'ADIR'
p613
I1
sS'HYAA'
p614
I3
sS'PPPP'
p615
I1
sS'GALQ'
p616
I10
sS'REQT'
p617
I2
sS'QLHQ'
p618
I3
sS'TMLR'
p619
I1
sS'DSGG'
p620
I1
sS'PKEH'
p621
I3
sS'GMTA'
p622
I1
sS'REQH'
p623
I3
sS'PPPA'
p624
I2
sS'GALC'
p625
I3
sS'QTIT'
p626
I2
sS'QLHG'
p627
I3
sS'REQA'
p628
I1
sS'GELP'
p629
I1
sS'EPQA'
p630
I1
sS'GELT'
p631
I1
sS'QQQD'
p632
I3
sS'QQQF'
p633
I1
sS'QQQM'
p634
I3
sS'FTAP'
p635
I2
sS'SLPF'
p636
I1
sS'QQQQ'
p637
I3
sS'EREA'
p638
I1
sS'GELD'
p639
I1
sS'QQQT'
p640
I1
sS'QQQV'
p641
I3
sS'SLPQ'
p642
I3
sS'SLPP'
p643
I1
sS'SQPF'
p644
I11
sS'AVFT'
p645
I1
sS'PIQV'
p646
I1
sS'RRIA'
p647
I1
sS'QNLK'
p648
I1
sS'WPAA'
p649
I1
sS'RAPR'
p650
I1
sS'RAPP'
p651
I1
sS'VARE'
p652
I1
sS'VGEA'
p653
I2
sS'YRTL'
p654
I9
sS'VQKD'
p655
I1
sS'CQLQ'
p656
I1
sS'RAPA'
p657
I1
sS'DQSS'
p658
I3
sS'FSDS'
p659
I2
sS'YSAE'
p660
I2
sS'QSAF'
p661
I1
sS'AISA'
p662
I1
sS'PGAL'
p663
I2
sS'TAQS'
p664
I4
sS'QAYA'
p665
I2
sS'WRQR'
p666
I10
sS'VDST'
p667
I3
sS'APDA'
p668
I3
sS'TAQG'
p669
I1
sS'TAQE'
p670
I1
sS'GEPP'
p671
I1
sS'ANRR'
p672
I2
sS'TAQN'
p673
I3
sS'TAQL'
p674
I3
sS'QAYR'
p675
I1
sS'ATGA'
p676
I3
sS'ERSN'
p677
I1
sS'RYKQ'
p678
I2
sS'AVTL'
p679
I1
sS'QGKL'
p680
I1
sS'AVTK'
p681
I1
sS'EPPD'
p682
I1
sS'TDEQ'
p683
I3
sS'QAKG'
p684
I1
sS'QTEL'
p685
I2
sS'AIEK'
p686
I3
sS'EAQP'
p687
I2
sS'SRAT'
p688
I3
sS'ARDG'
p689
I2
sS'RVEL'
p690
I2
sS'AGTR'
p691
I1
sS'IAEL'
p692
I1
sS'LGAV'
p693
I2
sS'KIAD'
p694
I4
sS'PPGL'
p695
I1
sS'ARDQ'
p696
I2
sS'RQDE'
p697
I3
sS'ALPA'
p698
I4
sS'ALPG'
p699
I1
sS'LAMT'
p700
I1
sS'EYVQ'
p701
I2
sS'LGAD'
p702
I1
sS'KIAQ'
p703
I5
sS'EAIR'
p704
I2
sS'EMRR'
p705
I1
sS'GTAG'
p706
I1
sS'RRID'
p707
I3
sS'DRSL'
p708
I4
sS'KRSL'
p709
I2
sS'VDHS'
p710
I1
sS'DRSA'
p711
I1
sS'LRTD'
p712
I1
sS'LDYK'
p713
I1
sS'ALLA'
p714
I3
sS'VVKI'
p715
I3
sS'ALLM'
p716
I1
sS'ALLL'
p717
I3
sS'QREY'
p718
I2
sS'PQMS'
p719
I2
sS'GLSD'
p720
I2
sS'NFTA'
p721
I2
sS'QREA'
p722
I1
sS'KRAS'
p723
I1
sS'LDYS'
p724
I2
sS'PLLR'
p725
I1
sS'IDYK'
p726
I1
sS'AYRT'
p727
I9
sS'LTQA'
p728
I3
sS'AYRW'
p729
I1
sS'VLNQ'
p730
I2
sS'AGSS'
p731
I10
sS'NYFT'
p732
I1
sS'LTQI'
p733
I1
sS'AGSI'
p734
I3
sS'AGSH'
p735
I2
sS'LTQT'
p736
I10
sS'LTQS'
p737
I1
sS'VGHD'
p738
I1
sS'AGSA'
p739
I8
sS'QVNC'
p740
I1
sS'AEKS'
p741
I1
sS'LTQY'
p742
I1
sS'QVTA'
p743
I1
sS'STLG'
p744
I2
sS'RRIY'
p745
I3
sS'VADI'
p746
I1
sS'VADL'
p747
I2
sS'KQAL'
p748
I2
sS'TRDP'
p749
I1
sS'SRPL'
p750
I3
sS'EVLD'
p751
I2
sS'RDRI'
p752
I1
sS'GDAP'
p753
I4
sS'KTTN'
p754
I3
sS'RDRL'
p755
I2
sS'ILGC'
p756
I3
sS'PAIA'
p757
I1
sS'EQRQ'
p758
I1
sS'EQRR'
p759
I2
sS'EQRM'
p760
I1
sS'VREI'
p761
I6
sS'LGER'
p762
I1
sS'DDAS'
p763
I11
sS'VREF'
p764
I2
sS'VREE'
p765
I1
sS'AQVE'
p766
I5
sS'SAQM'
p767
I1
sS'DAGG'
p768
I9
sS'DAGA'
p769
I10
sS'QILK'
p770
I1
sS'SAQE'
p771
I1
sS'SAQD'
p772
I1
sS'NGAG'
p773
I2
sS'HDAT'
p774
I1
sS'KAGA'
p775
I1
sS'PTVL'
p776
I3
sS'DAGR'
p777
I1
sS'DGGA'
p778
I1
sS'SAQV'
p779
I1
sS'DGGL'
p780
I1
sS'DGGM'
p781
I2
sS'SAQQ'
p782
I4
sS'EQLF'
p783
I2
sS'EQLD'
p784
I2
sS'DTSV'
p785
I2
sS'KHKQ'
p786
I1
sS'AAQG'
p787
I1
sS'RSDL'
p788
I6
sS'AAQK'
p789
I2
sS'ASDS'
p790
I1
sS'AAQM'
p791
I1
sS'AAQL'
p792
I14
sS'EDRT'
p793
I2
sS'DAIA'
p794
I1
sS'AAQQ'
p795
I6
sS'EQLW'
p796
I1
sS'LGET'
p797
I3
sS'AAQR'
p798
I13
sS'EQLR'
p799
I1
sS'EQLS'
p800
I1
sS'EQLQ'
p801
I2
sS'AQEA'
p802
I1
sS'PEQK'
p803
I1
sS'AMPL'
p804
I1
sS'RPLV'
p805
I3
sS'SSAP'
p806
I11
sS'INHK'
p807
I1
sS'LGSL'
p808
I1
sS'LKAL'
p809
I1
sS'TTYL'
p810
I2
sS'PEQW'
p811
I3
sS'ILKS'
p812
I1
sS'ACAA'
p813
I3
sS'VLGD'
p814
I4
sS'ESTN'
p815
I1
sS'EIQA'
p816
I1
sS'PAIH'
p817
I1
sS'HRGA'
p818
I2
sS'PKDT'
p819
I1
sS'LSHR'
p820
I1
sS'ESTV'
p821
I2
sS'WLGD'
p822
I1
sS'PPQA'
p823
I4
sS'HRGT'
p824
I6
sS'GGAA'
p825
I1
sS'ATTV'
p826
I1
sS'RLKI'
p827
I13
sS'NALF'
p828
I1
sS'QLKA'
p829
I1
sS'ERDW'
p830
I1
sS'SQQR'
p831
I1
sS'ERDR'
p832
I1
sS'ERDL'
p833
I2
sS'QLKR'
p834
I1
sS'GGAV'
p835
I1
sS'AVER'
p836
I3
sS'SQQE'
p837
I1
sS'SQQD'
p838
I1
sS'EDRY'
p839
I1
sS'QELH'
p840
I1
sS'SLAV'
p841
I4
sS'EKRR'
p842
I4
sS'SWHR'
p843
I1
sS'EPFF'
p844
I4
sS'EDRH'
p845
I1
sS'SLAG'
p846
I13
sS'KVRA'
p847
I1
sS'QKKK'
p848
I3
sS'LAPQ'
p849
I1
sS'NSSF'
p850
I1
sS'GSFS'
p851
I1
sS'TRYQ'
p852
I1
sS'YFFS'
p853
I1
sS'DDSR'
p854
I3
sS'YSFV'
p855
I3
sS'GDWS'
p856
I14
sS'MSNN'
p857
I3
sS'TRYC'
p858
I3
sS'EYFL'
p859
I4
sS'ATFE'
p860
I3
sS'ERRA'
p861
I2
sS'TQYL'
p862
I1
sS'VKQL'
p863
I3
sS'EFFD'
p864
I1
sS'QGDT'
p865
I3
sS'TQYG'
p866
I1
sS'EYFS'
p867
I2
sS'SAQA'
p868
I2
sS'LALM'
p869
I1
sS'RVFT'
p870
I7
sS'RIAA'
p871
I1
sS'ALSV'
p872
I1
sS'LALD'
p873
I11
sS'LALA'
p874
I1
sS'RKSG'
p875
I1
sS'RTFT'
p876
I1
sS'APVA'
p877
I1
sS'LYLI'
p878
I3
sS'EANP'
p879
I1
sS'RIAD'
p880
I2
sS'ALSE'
p881
I3
sS'LALQ'
p882
I2
sS'YGHL'
p883
I3
sS'RNCF'
p884
I1
sS'ETSL'
p885
I3
sS'EVTP'
p886
I3
sS'AEAQ'
p887
I3
sS'KLIL'
p888
I1
sS'KHYA'
p889
I3
sS'SFRG'
p890
I1
sS'FVVR'
p891
I3
sS'IATS'
p892
I1
sS'SPGQ'
p893
I1
sS'TMAQ'
p894
I1
sS'DEKR'
p895
I1
sS'CLSA'
p896
I2
sS'QQLR'
p897
I6
sS'QQLP'
p898
I1
sS'QQLV'
p899
I3
sS'ETYN'
p900
I1
sS'QQLT'
p901
I1
sS'DQDI'
p902
I1
sS'LLKE'
p903
I3
sS'LLLL'
p904
I3
sS'QQLA'
p905
I1
sS'KLID'
p906
I1
sS'QQLE'
p907
I3
sS'TLDS'
p908
I1
sS'YKHY'
p909
I3
sS'QRVS'
p910
I2
sS'LQVV'
p911
I3
sS'VGGV'
p912
I4
sS'QMIS'
p913
I1
sS'QPFF'
p914
I11
sS'KITQ'
p915
I4
sS'KITR'
p916
I1
sS'YVQE'
p917
I2
sS'NKQG'
p918
I1
sS'QMIK'
p919
I2
sS'QDWK'
p920
I1
sS'QRVA'
p921
I2
sS'YIDY'
p922
I1
sS'QRVF'
p923
I7
sS'QRVD'
p924
I6
sS'AQKR'
p925
I1
sS'SMQF'
p926
I1
sS'AWKG'
p927
I1
sS'LDDY'
p928
I1
sS'QIQQ'
p929
I3
sS'VAGG'
p930
I4
sS'NLKE'
p931
I1
sS'SDTA'
p932
I1
sS'AQKA'
p933
I11
sS'AKGG'
p934
I1
sS'AQKD'
p935
I1
sS'VAGV'
p936
I1
sS'SRSI'
p937
I1
sS'SYEV'
p938
I1
sS'NLKP'
p939
I1
sS'DNGE'
p940
I3
sS'EFDR'
p941
I2
sS'ADTA'
p942
I2
sS'DQRA'
p943
I13
sS'ASVA'
p944
I1
sS'GMIK'
p945
I1
sS'VGYK'
p946
I1
sS'IGEE'
p947
I2
sS'DLGA'
p948
I9
sS'VWRR'
p949
I2
sS'QPSI'
p950
I1
sS'DLGE'
p951
I1
sS'ETAP'
p952
I1
sS'DLGM'
p953
I1
sS'DQRV'
p954
I2
sS'LELV'
p955
I1
sS'TAPQ'
p956
I1
sS'TAPP'
p957
I2
sS'YQAR'
p958
I3
sS'AKLP'
p959
I4
sS'AKLR'
p960
I4
sS'RASM'
p961
I1
sS'ARYT'
p962
I1
sS'RASI'
p963
I9
sS'QAFE'
p964
I1
sS'QAFF'
p965
I2
sS'FAEE'
p966
I3
sS'TAPG'
p967
I1
sS'DIAY'
p968
I1
sS'FAEK'
p969
I1
sS'VMRE'
p970
I2
sS'HMTA'
p971
I1
sS'RSCF'
p972
I1
sS'LHDM'
p973
I1
sS'ASEQ'
p974
I3
sS'DGTV'
p975
I8
sS'SREG'
p976
I1
sS'DGTI'
p977
I1
sS'VAIW'
p978
I3
sS'DGTM'
p979
I1
sS'VELV'
p980
I2
sS'DTTL'
p981
I1
sS'AQYV'
p982
I3
sS'PQDQ'
p983
I1
sS'HDVQ'
p984
I3
sS'PQDR'
p985
I11
sS'PEPL'
p986
I1
sS'PQDW'
p987
I1
sS'PEPA'
p988
I3
sS'MVGQ'
p989
I1
sS'RPMR'
p990
I1
sS'LRKS'
p991
I1
sS'LITR'
p992
I1
sS'HIDQ'
p993
I1
sS'DLKQ'
p994
I1
sS'FSLS'
p995
I1
sS'VVVA'
p996
I1
sS'QQFQ'
p997
I3
sS'TGLS'
p998
I1
sS'AILD'
p999
I4
sS'TQEK'
p1000
I1
sS'MRIH'
p1001
I1
sS'GPQQ'
p1002
I2
sS'HQSL'
p1003
I3
sS'RTDA'
p1004
I1
sS'TQEW'
p1005
I3
sS'PQVM'
p1006
I2
sS'FLAM'
p1007
I1
sS'EALR'
p1008
I3
sS'DRPA'
p1009
I1
sS'NYKR'
p1010
I2
sS'SGLG'
p1011
I3
sS'SGLD'
p1012
I1
sS'KKTA'
p1013
I2
sS'AYAA'
p1014
I1
sS'EVER'
p1015
I2
sS'KRRI'
p1016
I3
sS'QRDD'
p1017
I1
sS'NDAS'
p1018
I1
sS'KRRR'
p1019
I1
sS'RQSL'
p1020
I1
sS'AYAR'
p1021
I1
sS'VVDQ'
p1022
I2
sS'QDAV'
p1023
I4
sS'MTYD'
p1024
I1
sS'EPAQ'
p1025
I2
sS'EPAR'
p1026
I1
sS'LLAD'
p1027
I1
sS'KQLT'
p1028
I1
sS'EPAV'
p1029
I1
sS'KQLW'
p1030
I2
sS'EKTE'
p1031
I1
sS'GVAV'
p1032
I1
sS'ILDL'
p1033
I2
sS'REAA'
p1034
I1
sS'AMGL'
p1035
I1
sS'GVAM'
p1036
I8
sS'SSLA'
p1037
I1
sS'SSLF'
p1038
I3
sS'GVAI'
p1039
I3
sS'KQLH'
p1040
I3
sS'EPAI'
p1041
I1
sS'KQLK'
p1042
I1
sS'EPAL'
p1043
I1
sS'GVAA'
p1044
I3
sS'FDVR'
p1045
I3
sS'RIFT'
p1046
I4
sS'QFQL'
p1047
I2
sS'EQAS'
p1048
I1
sS'RIFS'
p1049
I1
sS'SLPE'
p1050
I1
sS'QFQD'
p1051
I3
sS'MHAL'
p1052
I1
sS'GTMA'
p1053
I1
sS'APEQ'
p1054
I3
sS'CVVV'
p1055
I3
sS'ITQD'
p1056
I6
sS'TYNQ'
p1057
I1
sS'VTLP'
p1058
I1
sS'VQEE'
p1059
I3
sS'LDLA'
p1060
I1
sS'AGHL'
p1061
I1
sS'WKSN'
p1062
I1
sS'AALR'
p1063
I9
sS'AQEQ'
p1064
I1
sS'AALP'
p1065
I4
sS'AALQ'
p1066
I4
sS'EQSQ'
p1067
I1
sS'AWQN'
p1068
I1
sS'LDLQ'
p1069
I7
sS'AALH'
p1070
I1
sS'AALA'
p1071
I3
sS'AALD'
p1072
I14
sS'AALE'
p1073
I5
sS'ASWQ'
p1074
I11
sS'YPSR'
p1075
I3
sS'AHAF'
p1076
I1
sS'IKKN'
p1077
I1
sS'AAVR'
p1078
I1
sS'SARM'
p1079
I3
sS'AHAL'
p1080
I1
sS'RHRV'
p1081
I1
sS'SARD'
p1082
I1
sS'DAFV'
p1083
I5
sS'HYQA'
p1084
I1
sS'QKAG'
p1085
I1
sS'SARS'
p1086
I2
sS'QKAE'
p1087
I11
sS'QKAD'
p1088
I2
sS'QKAA'
p1089
I1
sS'DPAI'
p1090
I1
sS'TLPE'
p1091
I1
sS'KARL'
p1092
I2
sS'DHFS'
p1093
I2
sS'AHSE'
p1094
I1
sS'PASF'
p1095
I2
sS'FFNA'
p1096
I1
sS'TLPQ'
p1097
I3
sS'TLPS'
p1098
I1
sS'FVWL'
p1099
I1
sS'ESAT'
p1100
I1
sS'TRMT'
p1101
I1
sS'AQQA'
p1102
I1
sS'GQAA'
p1103
I1
sS'LVLL'
p1104
I1
sS'ADER'
p1105
I10
sS'LSEL'
p1106
I3
sS'PPDA'
p1107
I1
sS'LSEN'
p1108
I1
sS'QLTT'
p1109
I1
sS'LSEI'
p1110
I1
sS'QLTQ'
p1111
I14
sS'QLTP'
p1112
I1
sS'ADEE'
p1113
I1
sS'KQWR'
p1114
I2
sS'QLTK'
p1115
I1
sS'PQQL'
p1116
I2
sS'LPRM'
p1117
I1
sS'LLGD'
p1118
I1
sS'SFGT'
p1119
I1
sS'NVTQ'
p1120
I1
sS'SADA'
p1121
I2
sS'LSKL'
p1122
I1
sS'EIVK'
p1123
I3
sS'DEDR'
p1124
I1
sS'ADKS'
p1125
I1
sS'TTVA'
p1126
I1
sS'WQQR'
p1127
I2
sS'GMVL'
p1128
I3
sS'RESL'
p1129
I1
sS'GMVG'
p1130
I1
sS'RNEL'
p1131
I4
sS'EIVT'
p1132
I2
sS'RESE'
p1133
I1
sS'KDNG'
p1134
I3
sS'TEID'
p1135
I1
sS'AQQM'
p1136
I2
sS'RRER'
p1137
I1
sS'IQRS'
p1138
I3
sS'RREI'
p1139
I1
sS'IGAL'
p1140
I3
sS'AVYF'
p1141
I2
sS'AAVK'
p1142
I1
sS'KGSM'
p1143
I1
sS'AVDK'
p1144
I10
sS'LLIT'
p1145
I1
sS'DQQR'
p1146
I2
sS'YNQY'
p1147
I1
sS'EAQR'
p1148
I6
sS'VQMQ'
p1149
I1
sS'MWSG'
p1150
I8
sS'LLIY'
p1151
I1
sS'DQQE'
p1152
I1
sS'LESA'
p1153
I1
sS'LQGT'
p1154
I1
sS'VWQT'
p1155
I1
sS'DQQM'
p1156
I1
sS'PDER'
p1157
I1
sS'LQGR'
p1158
I1
sS'MKKI'
p1159
I4
sS'QTQI'
p1160
I3
sS'KKYS'
p1161
I3
sS'NELA'
p1162
I1
sS'TDIA'
p1163
I1
sS'PSWY'
p1164
I3
sS'RARI'
p1165
I1
sS'QVEP'
p1166
I1
sS'VSIA'
p1167
I2
sS'IRIA'
p1168
I1
sS'QVEN'
p1169
I3
sS'QAGA'
p1170
I1
sS'TSFR'
p1171
I1
sS'TQVN'
p1172
I2
sS'DYYL'
p1173
I1
sS'QVEA'
p1174
I5
sS'DEET'
p1175
I1
sS'QTQV'
p1176
I1
sS'NAAE'
p1177
I1
sS'DIRQ'
p1178
I1
sS'QGEL'
p1179
I1
sS'ATAL'
p1180
I2
sS'ATAN'
p1181
I1
sS'AVRD'
p1182
I14
sS'PGQQ'
p1183
I1
sS'NAAN'
p1184
I1
sS'DWKA'
p1185
I1
sS'HLIV'
p1186
I1
sS'QHDT'
p1187
I3
sS'AVRQ'
p1188
I1
sS'DYKK'
p1189
I1
sS'QQMP'
p1190
I11
sS'AVRT'
p1191
I3
sS'GNLK'
p1192
I1
sS'ATAQ'
p1193
I4
sS'ATAR'
p1194
I1
sS'DIRN'
p1195
I1
sS'GNLL'
p1196
I2
sS'SQHD'
p1197
I3
sS'LAKL'
p1198
I7
sS'LTAR'
p1199
I5
sS'LTAQ'
p1200
I8
sS'TAAA'
p1201
I1
sS'ALRQ'
p1202
I11
sS'LAKA'
p1203
I1
sS'ALRS'
p1204
I1
sS'LGCV'
p1205
I3
sS'DSRA'
p1206
I3
sS'TAAR'
p1207
I2
sS'FVAV'
p1208
I3
sS'LTAA'
p1209
I3
sS'LDEV'
p1210
I2
sS'ALRA'
p1211
I6
sS'NELS'
p1212
I3
sS'LAKS'
p1213
I9
sS'ALRE'
p1214
I1
sS'LAKV'
p1215
I1
sS'QRQR'
p1216
I3
sS'LKQS'
p1217
I2
sS'VDNT'
p1218
I2
sS'PRMS'
p1219
I1
sS'LFSS'
p1220
I1
sS'DSTV'
p1221
I3
sS'GRLD'
p1222
I1
sS'DKQR'
p1223
I1
sS'PEAS'
p1224
I1
sS'GRLA'
p1225
I1
sS'PEAQ'
p1226
I2
sS'LLID'
p1227
I3
sS'PEAL'
p1228
I4
sS'GLLG'
p1229
I3
sS'PEAI'
p1230
I1
sS'GLLI'
p1231
I3
sS'TQDV'
p1232
I2
sS'LKQL'
p1233
I1
sS'TQDR'
p1234
I4
sS'RQRS'
p1235
I1
sS'RQRT'
p1236
I1
sS'RQRV'
p1237
I7
sS'RQRY'
p1238
I13
sS'RQRA'
p1239
I6
sS'DRQQ'
p1240
I2
sS'SEIE'
p1241
I1
sS'RQRF'
p1242
I1
sS'RQRI'
p1243
I4
sS'RQRH'
p1244
I1
sS'EEKA'
p1245
I1
sS'LPEP'
p1246
I3
sS'RQRM'
p1247
I2
sS'LKRS'
p1248
I1
sS'SHRG'
p1249
I3
sS'AEIR'
p1250
I2
sS'QDVW'
p1251
I3
sS'SHRL'
p1252
I1
sS'IYNQ'
p1253
I1
sS'AEIE'
p1254
I1
sS'KVAP'
p1255
I1
sS'AEIN'
p1256
I1
sS'QMNG'
p1257
I1
sS'ANPA'
p1258
I1
sS'QPEP'
p1259
I1
sS'SDAK'
p1260
I2
sS'TQAG'
p1261
I3
sS'LMSE'
p1262
I2
sS'SMRD'
p1263
I2
sS'SMRE'
p1264
I1
sS'EAPT'
p1265
I1
sS'RALR'
p1266
I2
sS'AQHP'
p1267
I2
sS'VAFF'
p1268
I1
sS'LEAQ'
p1269
I2
sS'FGVI'
p1270
I1
sS'SDSP'
p1271
I1
sS'DAYG'
p1272
I3
sS'RALD'
p1273
I4
sS'PWQT'
p1274
I1
sS'RALA'
p1275
I2
sS'RDPT'
p1276
I1
sS'VIQQ'
p1277
I3
sS'AYLD'
p1278
I11
sS'KNGP'
p1279
I1
sS'AEEQ'
p1280
I2
sS'AYLS'
p1281
I1
sS'TNAS'
p1282
I1
sS'GKAA'
p1283
I1
sS'QIAA'
p1284
I10
sS'GDGA'
p1285
I1
sS'IETA'
p1286
I2
sS'KNGG'
p1287
I1
sS'WQQH'
p1288
I1
sS'IRSC'
p1289
I1
sS'DAEA'
p1290
I1
sS'VRGI'
p1291
I1
sS'WSQP'
p1292
I11
sS'AQTL'
p1293
I1
sS'SASE'
p1294
I3
sS'LGQM'
p1295
I1
sS'NHLI'
p1296
I1
sS'AAMQ'
p1297
I1
sS'AAMP'
p1298
I1
sS'AQTT'
p1299
I2
sS'EIAG'
p1300
I1
sS'SASN'
p1301
I1
sS'EIAA'
p1302
I10
sS'VLWL'
p1303
I1
sS'TKIA'
p1304
I1
sS'ALGE'
p1305
I2
sS'HVAF'
p1306
I1
sS'NPAL'
p1307
I1
sS'YRNE'
p1308
I1
sS'GEMK'
p1309
I3
sS'NERN'
p1310
I1
sS'SALR'
p1311
I1
sS'LFAQ'
p1312
I3
sS'RATG'
p1313
I1
sS'NWKS'
p1314
I1
sS'AQLL'
p1315
I3
sS'ASFA'
p1316
I1
sS'AMVY'
p1317
I1
sS'ASFK'
p1318
I2
sS'SNMS'
p1319
I1
sS'FSSE'
p1320
I1
sS'SGSL'
p1321
I1
sS'LFAE'
p1322
I3
sS'SGSI'
p1323
I1
sS'SNMK'
p1324
I1
sS'FSSL'
p1325
I1
sS'KDQG'
p1326
I1
sS'LFAL'
p1327
I2
sS'FLTQ'
p1328
I1
sS'EQGY'
p1329
I2
sS'VNQY'
p1330
I1
sS'NLLK'
p1331
I3
sS'MGLF'
p1332
I1
sS'VYGA'
p1333
I3
sS'WSGA'
p1334
I10
sS'WLEP'
p1335
I1
sS'GSDI'
p1336
I2
sS'VYGV'
p1337
I3
sS'PPSL'
p1338
I7
sS'SAEQ'
p1339
I3
sS'LDRQ'
p1340
I1
sS'WQRY'
p1341
I1
sS'VLES'
p1342
I1
sS'WQRR'
p1343
I1
sS'WSGT'
p1344
I1
sS'RERD'
p1345
I1
sS'GYKR'
p1346
I1
sS'RERL'
p1347
I2
sS'QNIN'
p1348
I1
sS'RERT'
p1349
I1
sS'NMKK'
p1350
I1
sS'SLAW'
p1351
I1
sS'TPVA'
p1352
I2
sS'QLEP'
p1353
I3
sS'QLEQ'
p1354
I1
sS'QERT'
p1355
I2
sS'LQTE'
p1356
I2
sS'FSAE'
p1357
I3
sS'RGLS'
p1358
I1
sS'GPLA'
p1359
I1
sS'NGPL'
p1360
I1
sS'KSAQ'
p1361
I2
sS'FSAQ'
p1362
I2
sS'INTQ'
p1363
I1
sS'VDRQ'
p1364
I5
sS'FSAT'
p1365
I2
sS'QERL'
p1366
I1
sS'RGLD'
p1367
I2
sS'RGLG'
p1368
I1
sS'PGEA'
p1369
I15
sS'RIAP'
p1370
I1
sS'RIAQ'
p1371
I2
sS'SNNL'
p1372
I3
sS'VAYR'
p1373
I3
sS'RNSS'
p1374
I1
sS'SFKG'
p1375
I2
sS'SQAE'
p1376
I1
sS'SQAD'
p1377
I3
sS'YFDA'
p1378
I1
sS'SQAA'
p1379
I1
sS'ALDS'
p1380
I2
sS'GIGL'
p1381
I1
sS'PSEP'
p1382
I2
sS'YFDY'
p1383
I1
sS'TQLL'
p1384
I1
sS'SGES'
p1385
I1
sS'RIAN'
p1386
I1
sS'PTSS'
p1387
I1
sS'GEAV'
p1388
I12
sS'AVQK'
p1389
I1
sS'GEAQ'
p1390
I1
sS'AAAP'
p1391
I6
sS'QTFT'
p1392
I1
sS'MPKD'
p1393
I1
sS'QSRY'
p1394
I10
sS'RGPA'
p1395
I1
sS'PSQA'
p1396
I3
sS'DLWQ'
p1397
I1
sS'RYDN'
p1398
I1
sS'RYDL'
p1399
I14
sS'KQQS'
p1400
I1
sS'GEAL'
p1401
I3
sS'AVQR'
p1402
I3
sS'TVPT'
p1403
I3
sS'GEAI'
p1404
I1
sS'AVQQ'
p1405
I1
sS'KIDP'
p1406
I1
sS'TGLP'
p1407
I2
sS'FIYW'
p1408
I1
sS'EALQ'
p1409
I1
sS'QVVG'
p1410
I3
sS'ARIA'
p1411
I1
sS'ARIF'
p1412
I1
sS'EALF'
p1413
I1
sS'EALG'
p1414
I1
sS'EALD'
p1415
I13
sS'EALE'
p1416
I2
sS'EALL'
p1417
I1
sS'IARP'
p1418
I2
sS'SQSG'
p1419
I1
sS'TRMR'
p1420
I1
sS'PASA'
p1421
I8
sS'RTVR'
p1422
I1
sS'ALDP'
p1423
I1
sS'RFSD'
p1424
I2
sS'WAEP'
p1425
I1
sS'PAST'
p1426
I3
sS'HFSA'
p1427
I1
sS'IQLQ'
p1428
I3
sS'PASP'
p1429
I1
sS'PASS'
p1430
I1
sS'VNCQ'
p1431
I1
sS'LSDE'
p1432
I2
sS'DEIV'
p1433
I2
sS'DEIW'
p1434
I3
sS'ADDQ'
p1435
I3
sS'QLWR'
p1436
I3
sS'NLII'
p1437
I2
sS'LGPE'
p1438
I13
sS'LGPD'
p1439
I2
sS'SPEQ'
p1440
I1
sS'RQRE'
p1441
I1
sS'NCQL'
p1442
I1
sS'RVVQ'
p1443
I1
sS'YSFD'
p1444
I3
sS'ASWH'
p1445
I1
sS'IAND'
p1446
I1
sS'QVDA'
p1447
I1
sS'WRRI'
p1448
I5
sS'AAAF'
p1449
I1
sS'QDQI'
p1450
I1
sS'ATTR'
p1451
I1
sS'WRRY'
p1452
I2
sS'LTTQ'
p1453
I1
sS'LTTS'
p1454
I1
sS'VGEG'
p1455
I3
sS'VGEE'
p1456
I1
sS'QRTA'
p1457
I2
sS'QQYI'
p1458
I1
sS'FIAR'
p1459
I2
sS'QRTF'
p1460
I1
sS'VDQQ'
p1461
I2
sS'KEVA'
p1462
I3
sS'LQTI'
p1463
I1
sS'AQIT'
p1464
I1
sS'ISLE'
p1465
I1
sS'QRTQ'
p1466
I3
sS'RPGE'
p1467
I1
sS'AQIA'
p1468
I11
sS'VAYM'
p1469
I1
sS'AQIE'
p1470
I8
sS'AQID'
p1471
I2
sS'IPLA'
p1472
I1
sS'PDFI'
p1473
I3
sS'GMKK'
p1474
I1
sS'YLLD'
p1475
I1
sS'ADVA'
p1476
I1
sS'YLLA'
p1477
I1
sS'GQLK'
p1478
I1
sS'CPIQ'
p1479
I1
sS'DQPD'
p1480
I3
sS'GQLR'
p1481
I1
sS'AFFG'
p1482
I2
sS'DLIF'
p1483
I2
sS'LERM'
p1484
I1
sS'LERL'
p1485
I9
sS'LERI'
p1486
I3
sS'YVAY'
p1487
I1
sS'QADR'
p1488
I1
sS'QADQ'
p1489
I3
sS'QSDL'
p1490
I4
sS'TSAK'
p1491
I1
sS'QHYQ'
p1492
I1
sS'QHYL'
p1493
I2
sS'TSAQ'
p1494
I1
sS'LERD'
p1495
I1
sS'QADI'
p1496
I3
sS'GESP'
p1497
I1
sS'SPKA'
p1498
I1
sS'SKQQ'
p1499
I1
sS'DAVV'
p1500
I3
sS'DAVT'
p1501
I1
sS'AWWA'
p1502
I1
sS'DAVR'
p1503
I1
sS'RSAI'
p1504
I2
sS'STGL'
p1505
I2
sS'RSAA'
p1506
I1
sS'IRLQ'
p1507
I3
sS'WTRY'
p1508
I3
sS'AQGE'
p1509
I3
sS'DPEA'
p1510
I1
sS'QSLA'
p1511
I3
sS'RSAW'
p1512
I1
sS'ASTG'
p1513
I2
sS'VWPS'
p1514
I3
sS'DAVI'
p1515
I1
sS'DVVS'
p1516
I1
sS'AMWS'
p1517
I8
sS'ILTV'
p1518
I1
sS'PENT'
p1519
I1
sS'ASGE'
p1520
I2
sS'ASGG'
p1521
I3
sS'AGEA'
p1522
I1
sS'SWYP'
p1523
I3
sS'VMHD'
p1524
I1
sS'ASGS'
p1525
I1
sS'DGVR'
p1526
I1
sS'AFFA'
p1527
I1
sS'FNAA'
p1528
I1
sS'SMAL'
p1529
I1
sS'QQHY'
p1530
I1
sS'MRGL'
p1531
I1
sS'VTPD'
p1532
I3
sS'LQAR'
p1533
I3
sS'CAAC'
p1534
I1
sS'MRGA'
p1535
I1
sS'QARY'
p1536
I3
sS'FEYF'
p1537
I1
sS'DGEQ'
p1538
I1
sS'CAAW'
p1539
I1
sS'CAAV'
p1540
I1
sS'AGAA'
p1541
I1
sS'LKPN'
p1542
I1
sS'SIKK'
p1543
I1
sS'TELQ'
p1544
I1
sS'QALF'
p1545
I3
sS'TELR'
p1546
I2
sS'DRVF'
p1547
I2
sS'IVKQ'
p1548
I3
sS'LKDN'
p1549
I3
sS'TELA'
p1550
I1
sS'KGTE'
p1551
I2
sS'VFKP'
p1552
I1
sS'KSNN'
p1553
I1
sS'RVAL'
p1554
I3
sS'HDLE'
p1555
I1
sS'RPAQ'
p1556
I2
sS'RPAS'
p1557
I1
sS'RPAR'
p1558
I1
sS'ANGA'
p1559
I2
sS'DYLD'
p1560
I1
sS'YAIY'
p1561
I1
sS'RDDL'
p1562
I1
sS'KSNV'
p1563
I1
sS'QESL'
p1564
I1
sS'RPAA'
p1565
I1
sS'DFVA'
p1566
I3
sS'KQNA'
p1567
I1
sS'GDTQ'
p1568
I3
sS'GTSV'
p1569
I1
sS'TYLK'
p1570
I2
sS'ITSV'
p1571
I1
sS'FEQQ'
p1572
I3
sS'TVTP'
p1573
I2
sS'ITSL'
p1574
I1
sS'GTSA'
p1575
I1
sS'VVRG'
p1576
I1
sS'SCFD'
p1577
I1
sS'GKTT'
p1578
I3
sS'AERD'
p1579
I1
sS'AYMH'
p1580
I1
sS'SEDR'
p1581
I1
sS'AERL'
p1582
I11
sS'YDAI'
p1583
I1
sS'QDEI'
p1584
I3
sS'IRRQ'
p1585
I2
sS'LIPL'
p1586
I1
sS'RDQA'
p1587
I1
sS'PANA'
p1588
I1
sS'LRIV'
p1589
I1
sS'AERQ'
p1590
I1
sS'RDQI'
p1591
I1
sS'GKFI'
p1592
I1
sS'QFAE'
p1593
I1
sS'SEDI'
p1594
I1
sS'AREI'
p1595
I1
sS'KLVV'
p1596
I1
sS'SPRD'
p1597
I3
sS'PQVT'
p1598
I1
sS'ESEQ'
p1599
I1
sS'NHRI'
p1600
I3
sS'EQQM'
p1601
I5
sS'EQQL'
p1602
I2
sS'RVFQ'
p1603
I2
sS'FSQL'
p1604
I3
sS'ASYQ'
p1605
I2
sS'IIQL'
p1606
I3
sS'SATA'
p1607
I4
sS'EQQV'
p1608
I1
sS'SATE'
p1609
I1
sS'EQQR'
p1610
I3
sS'DDFK'
p1611
I1
sS'PARG'
p1612
I2
sS'PARD'
p1613
I1
sS'GIRS'
p1614
I1
sS'TLRD'
p1615
I4
sS'ERAA'
p1616
I10
sS'QSLI'
p1617
I1
sS'KRQQ'
p1618
I1
sS'ERAL'
p1619
I2
sS'EQQF'
p1620
I3
sS'IASG'
p1621
I1
sS'PARP'
p1622
I1
sS'TIVF'
p1623
I1
sS'QRRE'
p1624
I1
sS'GFAP'
p1625
I1
sS'IASL'
p1626
I1
sS'YYQA'
p1627
I3
sS'IVQD'
p1628
I1
sS'ADGV'
p1629
I1
sS'YFSQ'
p1630
I4
sS'SAHM'
p1631
I4
sS'LSGL'
p1632
I3
sS'PALD'
p1633
I2
sS'EWWQ'
p1634
I3
sS'PYGA'
p1635
I1
sS'ADGA'
p1636
I1
sS'ADGG'
p1637
I3
sS'ADGE'
p1638
I1
sS'SPDA'
p1639
I1
sS'ADGK'
p1640
I1
sS'SFAL'
p1641
I1
sS'WWQL'
p1642
I3
sS'GSEA'
p1643
I2
sS'GSED'
p1644
I1
sS'KLDD'
p1645
I1
sS'GAHS'
p1646
I1
sS'VYFL'
p1647
I2
sS'SAFA'
p1648
I1
sS'EITG'
p1649
I2
sS'PFSE'
p1650
I1
sS'MGMV'
p1651
I2
sS'WQSR'
p1652
I10
sS'GQQN'
p1653
I1
sS'RGAS'
p1654
I1
sS'EDIY'
p1655
I1
sS'QLDG'
p1656
I11
sS'ATQR'
p1657
I1
sS'IQPE'
p1658
I1
sS'FAQY'
p1659
I3
sS'QLDA'
p1660
I3
sS'RLFS'
p1661
I1
sS'RGAA'
p1662
I2
sS'ISLL'
p1663
I1
sS'RGAG'
p1664
I9
sS'RGAD'
p1665
I2
sS'QLDV'
p1666
I1
sS'SLLG'
p1667
I2
sS'QLDR'
p1668
I1
sS'GGLT'
p1669
I1
sS'VAVY'
p1670
I2
sS'TPDE'
p1671
I1
sS'LEQQ'
p1672
I6
sS'TPDA'
p1673
I11
sS'VAVQ'
p1674
I3
sS'AFES'
p1675
I1
sS'LGEK'
p1676
I3
sS'LGEL'
p1677
I3
sS'LNSN'
p1678
I1
sS'VGVA'
p1679
I1
sS'VAVV'
p1680
I1
sS'FINH'
p1681
I1
sS'PDGG'
p1682
I1
sS'CLTA'
p1683
I10
sS'TPDQ'
p1684
I1
sS'LGEW'
p1685
I1
sS'VAVA'
p1686
I1
sS'LEQK'
p1687
I3
sS'LQEP'
p1688
I1
sS'ADQS'
p1689
I3
sS'PDGI'
p1690
I3
sS'NTSP'
p1691
I1
sS'LEQL'
p1692
I4
sS'LEQM'
p1693
I2
sS'AQGL'
p1694
I1
sS'QSEL'
p1695
I1
sS'QAEQ'
p1696
I1
sS'KELV'
p1697
I1
sS'QSEE'
p1698
I3
sS'QGQL'
p1699
I1
sS'QGQS'
p1700
I1
sS'TQTL'
p1701
I10
sS'TQTI'
p1702
I1
sS'DVVR'
p1703
I1
sS'GETS'
p1704
I3
sS'QAEA'
p1705
I7
sS'ASGA'
p1706
I1
sS'QLVG'
p1707
I3
sS'KQRA'
p1708
I1
sS'AVPA'
p1709
I8
sS'DQAL'
p1710
I3
sS'DKLD'
p1711
I4
sS'AVPE'
p1712
I1
sS'APLV'
p1713
I3
sS'QLVK'
p1714
I3
sS'TSVD'
p1715
I3
sS'AIAK'
p1716
I1
sS'QKQL'
p1717
I2
sS'TFEQ'
p1718
I3
sS'AIAL'
p1719
I2
sS'TDYA'
p1720
I1
sS'DQAQ'
p1721
I1
sS'AIAA'
p1722
I1
sS'TSVL'
p1723
I1
sS'APLA'
p1724
I8
sS'AIAG'
p1725
I9
sS'KKIA'
p1726
I3
sS'RTEL'
p1727
I1
sS'IAAK'
p1728
I1
sS'LAIR'
p1729
I3
sS'IAAL'
p1730
I9
sS'AGAD'
p1731
I1
sS'IAAE'
p1732
I1
sS'KKIL'
p1733
I1
sS'TVAQ'
p1734
I8
sS'YTLE'
p1735
I1
sS'LAIE'
p1736
I4
sS'LAIA'
p1737
I2
sS'KKIY'
p1738
I1
sS'GGFA'
p1739
I1
sS'FLDY'
p1740
I2
sS'AKQW'
p1741
I2
sS'IKIQ'
p1742
I3
sS'HDTS'
p1743
I2
sS'QASG'
p1744
I3
sS'VDLS'
p1745
I3
sS'FGTK'
p1746
I1
sS'AKQP'
p1747
I1
sS'AKQN'
p1748
I1
sS'AKQL'
p1749
I1
sS'QRAL'
p1750
I4
sS'LKSD'
p1751
I1
sS'ASGN'
p1752
I1
sS'SILL'
p1753
I2
sS'FIQR'
p1754
I3
sS'QAST'
p1755
I1
sS'TGSD'
p1756
I2
sS'LYLR'
p1757
I2
sS'ALHA'
p1758
I1
sS'KIYL'
p1759
I1
sS'QMRQ'
p1760
I2
sS'LSNM'
p1761
I1
sS'TGSQ'
p1762
I1
sS'QMRI'
p1763
I1
sS'IAQP'
p1764
I1
sS'VVGL'
p1765
I9
sS'DPGA'
p1766
I1
sS'KPGE'
p1767
I13
sS'QRAW'
p1768
I3
sS'KRER'
p1769
I1
sS'DRAP'
p1770
I1
sS'TGAS'
p1771
I2
sS'KGGS'
p1772
I1
sS'PAPA'
p1773
I1
sS'NLTA'
p1774
I2
sS'IAQT'
p1775
I1
sS'KTIV'
p1776
I1
sS'SVDN'
p1777
I2
sS'QQLY'
p1778
I1
sS'TGAA'
p1779
I7
sS'IYLL'
p1780
I1
sS'SVDG'
p1781
I1
sS'QDPA'
p1782
I1
sS'IYLG'
p1783
I1
sS'EVMH'
p1784
I1
sS'YKKE'
p1785
I1
sS'NLNQ'
p1786
I1
sS'LQSE'
p1787
I1
sS'VPTV'
p1788
I3
sS'DSPD'
p1789
I1
sS'SRTV'
p1790
I1
sS'PDQM'
p1791
I1
sS'YKRA'
p1792
I1
sS'QMLR'
p1793
I1
sS'AWFV'
p1794
I1
sS'IAQL'
p1795
I12
sS'QYLS'
p1796
I1
sS'IRQY'
p1797
I1
sS'SEER'
p1798
I1
sS'VVQE'
p1799
I2
sS'VGLL'
p1800
I3
sS'HRIV'
p1801
I3
sS'YFTQ'
p1802
I1
sS'ELAQ'
p1803
I2
sS'GVPA'
p1804
I1
sS'ELAS'
p1805
I1
sS'AGKA'
p1806
I1
sS'DDEA'
p1807
I1
sS'LRNS'
p1808
I1
sS'ELAI'
p1809
I3
sS'QYLD'
p1810
I1
sS'ELAK'
p1811
I1
sS'ALFA'
p1812
I3
sS'RYCA'
p1813
I3
sS'QYLN'
p1814
I2
sS'QYLL'
p1815
I1
sS'GVPP'
p1816
I1
sS'TKED'
p1817
I1
sS'GDED'
p1818
I1
sS'AQRL'
p1819
I5
sS'TVGI'
p1820
I1
sS'AQRA'
p1821
I15
sS'VGSE'
p1822
I2
sS'PHRG'
p1823
I3
sS'AQRF'
p1824
I3
sS'RSNW'
p1825
I1
sS'AAKQ'
p1826
I1
sS'EQQT'
p1827
I3
sS'GDER'
p1828
I1
sS'NLRQ'
p1829
I3
sS'DGKL'
p1830
I2
sS'DVER'
p1831
I1
sS'NRAE'
p1832
I2
sS'LVKL'
p1833
I3
sS'AQRT'
p1834
I5
sS'AQRV'
p1835
I1
sS'ANLE'
p1836
I1
sS'AQDP'
p1837
I2
sS'AWPD'
p1838
I1
sS'LAEL'
p1839
I3
sS'LHGK'
p1840
I2
sS'DVWH'
p1841
I10
sS'RTAI'
p1842
I1
sS'SFDV'
p1843
I3
sS'DHLA'
p1844
I2
sS'HAQQ'
p1845
I1
sS'DVWR'
p1846
I1
sS'AQDL'
p1847
I2
sS'QKRI'
p1848
I1
sS'CFEY'
p1849
I1
sS'QRSE'
p1850
I4
sS'RATF'
p1851
I3
sS'TAKL'
p1852
I1
sS'MRTN'
p1853
I1
sS'FSQA'
p1854
I1
sS'AVGE'
p1855
I4
sS'PSKV'
p1856
I3
sS'LAEE'
p1857
I1
sS'ASHR'
p1858
I2
sS'QRSA'
p1859
I3
sS'SVDE'
p1860
I1
sS'WSEP'
p1861
I3
sS'YYLA'
p1862
I1
sS'SAGM'
p1863
I1
sS'SAGL'
p1864
I13
sS'ESVL'
p1865
I1
sS'LSAD'
p1866
I2
sS'YATQ'
p1867
I1
sS'SAGE'
p1868
I1
sS'ESPE'
p1869
I1
sS'VSAV'
p1870
I3
sS'LSTL'
p1871
I2
sS'WQLH'
p1872
I3
sS'SAGV'
p1873
I1
sS'TFTK'
p1874
I1
sS'EKAA'
p1875
I1
sS'IQQL'
p1876
I3
sS'EPLQ'
p1877
I1
sS'FFGL'
p1878
I2
sS'NQYT'
p1879
I1
sS'NGEM'
p1880
I3
sS'TFTA'
p1881
I1
sS'SMTA'
p1882
I1
sS'NQYL'
p1883
I3
sS'KPLQ'
p1884
I1
sS'EPLD'
p1885
I1
sS'SLKN'
p1886
I1
sS'EKAT'
p1887
I1
sS'IQQQ'
p1888
I6
sS'AVAG'
p1889
I2
sS'ATPA'
p1890
I1
sS'QHID'
p1891
I1
sS'EPLK'
p1892
I2
sS'QRVQ'
p1893
I1
sS'RLGA'
p1894
I1
sS'ATPD'
p1895
I12
sS'YWRW'
p1896
I1
sS'RQAI'
p1897
I3
sS'QKDE'
p1898
I3
sS'QKDI'
p1899
I2
sS'ILAD'
p1900
I1
sS'QEPA'
p1901
I1
sS'KAKQ'
p1902
I1
sS'TQNQ'
p1903
I1
sS'LSAQ'
p1904
I1
sS'YVQY'
p1905
I3
sS'HDMR'
p1906
I1
sS'LDAG'
p1907
I9
sS'LDAF'
p1908
I5
sS'LDAA'
p1909
I3
sS'GTRP'
p1910
I1
sS'VIEA'
p1911
I1
sS'NQGL'
p1912
I3
sS'LDAL'
p1913
I19
sS'LDAV'
p1914
I1
sS'LDAT'
p1915
I1
sS'LDAR'
p1916
I1
sS'TLAA'
p1917
I2
sS'VPSR'
p1918
I1
sS'GIAA'
p1919
I1
sS'QFNL'
p1920
I1
sS'ITRD'
p1921
I2
sS'LDAY'
p1922
I3
sS'QLQA'
p1923
I1
sS'AFVM'
p1924
I2
sS'KQSI'
p1925
I2
sS'QQHI'
p1926
I1
sS'GEQG'
p1927
I3
sS'QLQK'
p1928
I13
sS'QLQL'
p1929
I1
sS'LPTS'
p1930
I1
sS'LPTL'
p1931
I1
sS'QLQR'
p1932
I2
sS'QLQS'
p1933
I1
sS'QLQT'
p1934
I2
sS'RQAA'
p1935
I2
sS'TSQH'
p1936
I2
sS'AFVV'
p1937
I3
sS'TANN'
p1938
I1
sS'SHAP'
p1939
I1
sS'NSKL'
p1940
I1
sS'LAWW'
p1941
I1
sS'MSKF'
p1942
I1
sS'TANA'
p1943
I1
sS'RQAE'
p1944
I1
sS'SRLP'
p1945
I3
sS'VEAL'
p1946
I4
sS'QAEL'
p1947
I1
sS'LTDA'
p1948
I9
sS'IVNE'
p1949
I1
sS'LTDE'
p1950
I3
sS'DDYF'
p1951
I1
sS'PAQA'
p1952
I3
sS'VTAK'
p1953
I1
sS'IAPY'
p1954
I1
sS'RYTD'
p1955
I1
sS'IAPP'
p1956
I3
sS'PAQR'
p1957
I2
sS'PAQP'
p1958
I1
sS'IGLV'
p1959
I1
sS'YSLS'
p1960
I2
sS'TLSP'
p1961
I1
sS'SAIG'
p1962
I2
sS'SAIL'
p1963
I2
sS'PMRG'
p1964
I1
sS'SAII'
p1965
I1
sS'PFFG'
p1966
I15
sS'QPAT'
p1967
I1
sS'DSLA'
p1968
I1
sS'AEAT'
p1969
I1
sS'RAMV'
p1970
I1
sS'PRVA'
p1971
I2
sS'LVVD'
p1972
I1
sS'HQAI'
p1973
I2
sS'IALG'
p1974
I3
sS'QESV'
p1975
I1
sS'AELV'
p1976
I1
sS'GLSE'
p1977
I2
sS'FVNH'
p1978
I3
sS'AELR'
p1979
I1
sS'GLSA'
p1980
I1
sS'AELQ'
p1981
I4
sS'LTVG'
p1982
I1
sS'ALYL'
p1983
I2
sS'QPAR'
p1984
I1
sS'LVVR'
p1985
I5
sS'GLST'
p1986
I3
sS'AELD'
p1987
I4
sS'AASG'
p1988
I1
sS'GLSP'
p1989
I10
sS'GLSQ'
p1990
I1
sS'RQML'
p1991
I1
sS'LQRA'
p1992
I1
sS'LQRE'
p1993
I2
sS'SNYA'
p1994
I1
sS'IITI'
p1995
I2
sS'NNSK'
p1996
I1
sS'DLGL'
p1997
I2
sS'LQRS'
p1998
I1
sS'KEPA'
p1999
I1
sS'LQRQ'
p2000
I1
sS'DDQA'
p2001
I3
sS'SDPG'
p2002
I1
sS'QLLP'
p2003
I3
sS'PAEL'
p2004
I2
sS'RQMR'
p2005
I1
sS'LGDK'
p2006
I4
sS'YLNY'
p2007
I2
sS'LEPS'
p2008
I1
sS'TIAS'
p2009
I1
sS'LLLI'
p2010
I2
sS'LGDW'
p2011
I14
sS'EKVD'
p2012
I1
sS'LEPK'
p2013
I3
sS'LQDL'
p2014
I2
sS'LGDY'
p2015
I1
sS'LLLD'
p2016
I4
sS'QQFF'
p2017
I1
sS'AILV'
p2018
I3
sS'MPGD'
p2019
I1
sS'TLGP'
p2020
I11
sS'QTRY'
p2021
I1
sS'MIFI'
p2022
I1
sS'APQV'
p2023
I3
sS'PGLR'
p2024
I1
sS'FGEE'
p2025
I2
sS'QTRA'
p2026
I1
sS'AILA'
p2027
I1
sS'TQSL'
p2028
I2
sS'AFDP'
p2029
I1
sS'YDPD'
p2030
I1
sS'AFDR'
p2031
I1
sS'APQD'
p2032
I2
sS'PAER'
p2033
I1
sS'TDLS'
p2034
I1
sS'AILN'
p2035
I1
sS'APQA'
p2036
I3
sS'QTRN'
p2037
I1
sS'QRHD'
p2038
I1
sS'AWQA'
p2039
I3
sS'YFLS'
p2040
I7
sS'RDAG'
p2041
I8
sS'HAPR'
p2042
I1
sS'SLIE'
p2043
I1
sS'EQAY'
p2044
I1
sS'DATP'
p2045
I1
sS'ANKN'
p2046
I1
sS'RIEA'
p2047
I2
sS'RDAQ'
p2048
I11
sS'AQEL'
p2049
I1
sS'RDAR'
p2050
I1
sS'EQAA'
p2051
I1
sS'AWQT'
p2052
I1
sS'SRIE'
p2053
I1
sS'DATA'
p2054
I1
sS'VAMW'
p2055
I8
sS'PSLI'
p2056
I1
sS'QAAG'
p2057
I1
sS'CFDY'
p2058
I1
sS'VVVC'
p2059
I3
sS'ILVT'
p2060
I3
sS'PSLA'
p2061
I8
sS'YGEK'
p2062
I1
sS'ASIA'
p2063
I9
sS'PELR'
p2064
I2
sS'EVAV'
p2065
I3
sS'DREQ'
p2066
I1
sS'QKSG'
p2067
I10
sS'CAIV'
p2068
I3
sS'FQDY'
p2069
I3
sS'QKSK'
p2070
I1
sS'AEQR'
p2071
I1
sS'FKSN'
p2072
I1
sS'MREI'
p2073
I2
sS'RAID'
p2074
I2
sS'FGSE'
p2075
I1
sS'DIKN'
p2076
I1
sS'DYSL'
p2077
I2
sS'GLAP'
p2078
I1
sS'HGTS'
p2079
I1
sS'LKRV'
p2080
I2
sS'RIET'
p2081
I2
sS'FGSV'
p2082
I1
sS'STVT'
p2083
I2
sS'MRES'
p2084
I1
sS'GLAA'
p2085
I13
sS'ALMQ'
p2086
I2
sS'ARSD'
p2087
I6
sS'ARSE'
p2088
I1
sS'DRTL'
p2089
I5
sS'MAKL'
p2090
I1
sS'KRVE'
p2091
I2
sS'QPLD'
p2092
I1
sS'GFFI'
p2093
I2
sS'QMSN'
p2094
I2
sS'QAAR'
p2095
I2
sS'DIRA'
p2096
I2
sS'RLDD'
p2097
I1
sS'MAKV'
p2098
I1
sS'EATA'
p2099
I3
sS'DRTR'
p2100
I2
sS'LRYK'
p2101
I2
sS'VDQM'
p2102
I1
sS'IDEL'
p2103
I1
sS'REER'
p2104
I1
sS'EIDC'
p2105
I1
sS'KALF'
p2106
I1
sS'EKPW'
p2107
I1
sS'VDQE'
p2108
I1
sS'LKNG'
p2109
I1
sS'ATHQ'
p2110
I1
sS'QEQL'
p2111
I1
sS'KALR'
p2112
I1
sS'NHKT'
p2113
I1
sS'REEL'
p2114
I1
sS'MVYG'
p2115
I1
sS'KSLT'
p2116
I1
sS'PDAV'
p2117
I1
sS'VTPV'
p2118
I2
sS'VPPS'
p2119
I1
sS'SEPA'
p2120
I2
sS'IIGP'
p2121
I2
sS'RLVA'
p2122
I3
sS'SEPF'
p2123
I3
sS'NQFN'
p2124
I1
sS'DTVQ'
p2125
I1
sS'YFAE'
p2126
I1
sS'NQFT'
p2127
I1
sS'LYWR'
p2128
I1
sS'MPQL'
p2129
I1
sS'EETY'
p2130
I1
sS'AEPF'
p2131
I1
sS'ASRT'
p2132
I1
sS'DFFD'
p2133
I14
sS'PALP'
p2134
I1
sS'PALS'
p2135
I1
sS'VVRE'
p2136
I7
sS'PALT'
p2137
I1
sS'DSSL'
p2138
I3
sS'LIPQ'
p2139
I1
sS'SNNV'
p2140
I1
sS'LDPA'
p2141
I2
sS'PALA'
p2142
I1
sS'LDPM'
p2143
I1
sS'WYPS'
p2144
I3
sS'TNLV'
p2145
I1
sS'AGDA'
p2146
I4
sS'PALG'
p2147
I1
sS'VVRQ'
p2148
I1
sS'NNKQ'
p2149
I1
sS'HAFD'
p2150
I1
sS'SAVR'
p2151
I5
sS'PDAA'
p2152
I6
sS'AQSD'
p2153
I4
sS'RSMR'
p2154
I1
sS'EQWR'
p2155
I13
sS'AQSY'
p2156
I1
sS'SAVG'
p2157
I1
sS'SAVD'
p2158
I1
sS'ENLR'
p2159
I3
sS'RMRG'
p2160
I1
sS'PAPL'
p2161
I2
sS'RRAA'
p2162
I7
sS'GEQL'
p2163
I1
sS'PAPE'
p2164
I1
sS'GTGA'
p2165
I6
sS'RRAH'
p2166
I1
sS'TLTD'
p2167
I4
sS'TLTE'
p2168
I2
sS'RRAM'
p2169
I1
sS'RRAV'
p2170
I2
sS'ATSP'
p2171
I1
sS'ATSQ'
p2172
I2
sS'GTGS'
p2173
I1
sS'GTGT'
p2174
I1
sS'IAQD'
p2175
I5
sS'FTKP'
p2176
I13
sS'LSAI'
p2177
I2
sS'AKLI'
p2178
I1
sS'LSAA'
p2179
I8
sS'ADAS'
p2180
I1
sS'GATP'
p2181
I12
sS'LSAE'
p2182
I1
sS'PRDL'
p2183
I3
sS'TITQ'
p2184
I2
sS'PFGS'
p2185
I1
sS'ADAA'
p2186
I2
sS'LSAR'
p2187
I3
sS'LSAS'
p2188
I3
sS'LSAT'
p2189
I2
sS'ADAE'
p2190
I1
sS'LSAV'
p2191
I4
sS'ADAG'
p2192
I1
sS'AAFD'
p2193
I1
sS'ALQP'
p2194
I2
sS'TVRD'
p2195
I1
sS'GEQQ'
p2196
I1
sS'PRVR'
p2197
I1
sS'AREG'
p2198
I7
sS'DMGM'
p2199
I2
sS'FDYY'
p2200
I1
sS'FDYF'
p2201
I8
sS'GQSL'
p2202
I1
sS'FDYC'
p2203
I12
sS'GQSE'
p2204
I3
sS'DLLE'
p2205
I3
sS'NASS'
p2206
I1
sS'FAEL'
p2207
I1
sS'RGGR'
p2208
I2
sS'LMQQ'
p2209
I2
sS'NGKL'
p2210
I1
sS'ELQG'
p2211
I1
sS'QLFD'
p2212
I3
sS'NASA'
p2213
I1
sS'RGGL'
p2214
I1
sS'WWAW'
p2215
I1
sS'QNRA'
p2216
I2
sS'RGGF'
p2217
I1
sS'RLDE'
p2218
I1
sS'PDAS'
p2219
I1
sS'PDAP'
p2220
I1
sS'TPFG'
p2221
I1
sS'IFIY'
p2222
I1
sS'LLMP'
p2223
I1
sS'SVTA'
p2224
I1
sS'LNQF'
p2225
I1
sS'LNQY'
p2226
I2
sS'LLMI'
p2227
I1
sS'PSIA'
p2228
I1
sS'PDAG'
p2229
I2
sS'IPQL'
p2230
I1
sS'MTSR'
p2231
I1
sS'APPP'
p2232
I1
sS'YLIL'
p2233
I3
sS'PDAM'
p2234
I10
sS'PDAL'
p2235
I1
sS'QSGA'
p2236
I1
sS'GGVG'
p2237
I1
sS'EQER'
p2238
I1
sS'GGVA'
p2239
I4
sS'SDAN'
p2240
I3
sS'DLLI'
p2241
I1
sS'VQAF'
p2242
I1
sS'VQAA'
p2243
I1
sS'APPQ'
p2244
I4
sS'VSMQ'
p2245
I1
sS'FGDE'
p2246
I2
sS'DLLR'
p2247
I1
sS'APPL'
p2248
I3
sS'TQRA'
p2249
I1
sS'QNRV'
p2250
I1
sS'APPA'
p2251
I2
sS'QGAQ'
p2252
I3
sS'QLPG'
p2253
I1
sS'QLPE'
p2254
I2
sS'LDQM'
p2255
I2
sS'QQID'
p2256
I2
sS'QNDL'
p2257
I3
sS'QLPQ'
p2258
I1
sS'LFGD'
p2259
I1
sS'GHLA'
p2260
I14
sS'MISL'
p2261
I1
sS'TSPK'
p2262
I1
sS'EQQA'
p2263
I3
sS'AYFS'
p2264
I3
sS'PQAG'
p2265
I1
sS'RYAD'
p2266
I10
sS'QIKM'
p2267
I1
sS'ETAR'
p2268
I2
sS'LAGT'
p2269
I1
sS'ITIA'
p2270
I2
sS'LAGS'
p2271
I14
sS'LAGL'
p2272
I1
sS'EQMR'
p2273
I2
sS'IDLI'
p2274
I2
sS'LAGK'
p2275
I1
sS'LTEA'
p2276
I2
sS'LTLP'
p2277
I3
sS'RAHA'
p2278
I2
sS'QAQR'
p2279
I1
sS'PKAF'
p2280
I1
sS'RAHF'
p2281
I1
sS'MRDR'
p2282
I2
sS'SKNF'
p2283
I1
sS'GNTG'
p2284
I1
sS'REYF'
p2285
I2
sS'QAQA'
p2286
I2
sS'DWSQ'
p2287
I11
sS'GRHG'
p2288
I1
sS'QAQD'
p2289
I1
sS'TSLP'
p2290
I4
sS'DWSE'
p2291
I3
sS'SEAA'
p2292
I3
sS'IWQE'
p2293
I3
sS'SGAT'
p2294
I11
sS'DMRT'
p2295
I1
sS'ARRA'
p2296
I6
sS'KNFT'
p2297
I1
sS'QDLW'
p2298
I1
sS'RLSE'
p2299
I2
sS'TEAQ'
p2300
I2
sS'QDLR'
p2301
I1
sS'LRRI'
p2302
I1
sS'KRID'
p2303
I1
sS'SGAD'
p2304
I1
sS'SGAG'
p2305
I7
sS'QDLL'
p2306
I2
sS'SGAA'
p2307
I3
sS'ARRQ'
p2308
I1
sS'DPAL'
p2309
I3
sS'DPAA'
p2310
I1
sS'QMPA'
p2311
I10
sS'QMPG'
p2312
I1
sS'TEAE'
p2313
I1
sS'VERS'
p2314
I1
sS'VERR'
p2315
I2
sS'ETSF'
p2316
I2
sS'QARA'
p2317
I3
sS'KIIQ'
p2318
I3
sS'HEIV'
p2319
I3
sS'AKAF'
p2320
I1
sS'NDTT'
p2321
I1
sS'AEMR'
p2322
I1
sS'GLRA'
p2323
I1
sS'YIAA'
p2324
I1
sS'DRGA'
p2325
I11
sS'IKKY'
p2326
I3
sS'AKAR'
p2327
I1
sS'AKAP'
p2328
I1
sS'LQQL'
p2329
I1
sS'LGIG'
p2330
I1
sS'QDRD'
p2331
I12
sS'QRYL'
p2332
I4
sS'STVP'
p2333
I3
sS'LGIL'
p2334
I3
sS'RQLF'
p2335
I3
sS'TSPA'
p2336
I1
sS'QRYD'
p2337
I14
sS'QRYE'
p2338
I3
sS'VEPQ'
p2339
I1
sS'DVAA'
p2340
I1
sS'QDRS'
p2341
I4
sS'QLPP'
p2342
I1
sS'QDRT'
p2343
I4
sS'HQAF'
p2344
I2
sS'NLLI'
p2345
I1
sS'TSPG'
p2346
I1
sS'WQAL'
p2347
I3
sS'LQQS'
p2348
I1
sS'HMAA'
p2349
I3
sS'GFKS'
p2350
I1
sS'LRLL'
p2351
I2
sS'GVRV'
p2352
I1
sS'PLDP'
p2353
I1
sS'LDQR'
p2354
I15
sS'LDQQ'
p2355
I1
sS'VFTK'
p2356
I6
sS'FNLE'
p2357
I1
sS'IRQD'
p2358
I1
sS'VVCG'
p2359
I3
sS'AEQA'
p2360
I1
sS'LDQY'
p2361
I1
sS'AGEL'
p2362
I1
sS'PLDA'
p2363
I14
sS'GEDA'
p2364
I2
sS'PVAE'
p2365
I2
sS'LDQN'
p2366
I2
sS'AEQW'
p2367
I10
sS'AEQQ'
p2368
I6
sS'AEQS'
p2369
I1
sS'VFTS'
p2370
I1
sS'GDKL'
p2371
I4
sS'AQPS'
p2372
I1
sS'RSLK'
p2373
I1
sS'AAIA'
p2374
I9
sS'VFTR'
p2375
I1
sS'RSLA'
p2376
I1
sS'AAID'
p2377
I11
sS'HFAP'
p2378
I3
sS'AAIY'
p2379
I4
sS'DAAG'
p2380
I6
sS'SAWK'
p2381
I1
sS'AQPE'
p2382
I3
sS'HKQI'
p2383
I1
sS'DAAA'
p2384
I8
sS'RSLT'
p2385
I4
sS'EQTT'
p2386
I2
sS'EQTR'
p2387
I1
sS'KLSE'
p2388
I1
sS'AAIV'
p2389
I1
sS'ELQL'
p2390
I2
sS'PLQT'
p2391
I1
sS'KIAW'
p2392
I3
sS'KPEA'
p2393
I1
sS'ELQD'
p2394
I2
sS'AHRT'
p2395
I1
sS'DASR'
p2396
I1
sS'IRAA'
p2397
I1
sS'IFGE'
p2398
I2
sS'VALE'
p2399
I3
sS'DASW'
p2400
I11
sS'DASK'
p2401
I1
sS'ADLA'
p2402
I2
sS'AMQL'
p2403
I1
sS'DASA'
p2404
I1
sS'LHAQ'
p2405
I1
sS'ELQQ'
p2406
I2
sS'IRAT'
p2407
I2
sS'DASG'
p2408
I1
sS'AAWL'
p2409
I1
sS'VSQH'
p2410
I1
sS'MRRQ'
p2411
I1
sS'WRDG'
p2412
I1
sS'CAVV'
p2413
I1
sS'SPAK'
p2414
I1
sS'KFIN'
p2415
I1
sS'AAGG'
p2416
I2
sS'AAGD'
p2417
I4
sS'WAWP'
p2418
I1
sS'AAGA'
p2419
I1
sS'AAGN'
p2420
I3
sS'AAGL'
p2421
I6
sS'HRAT'
p2422
I1
sS'AAGH'
p2423
I1
sS'AAGV'
p2424
I1
sS'AAGT'
p2425
I1
sS'GSKK'
p2426
I1
sS'REEP'
p2427
I1
sS'MSDT'
p2428
I1
sS'LSVD'
p2429
I1
sS'GIRL'
p2430
I3
sS'MSRS'
p2431
I1
sS'QLAQ'
p2432
I1
sS'QEDR'
p2433
I2
sS'RDLL'
p2434
I3
sS'KTAL'
p2435
I2
sS'QKHK'
p2436
I1
sS'YARY'
p2437
I1
sS'EKPL'
p2438
I1
sS'QLAL'
p2439
I11
sS'DNTS'
p2440
I2
sS'DLSH'
p2441
I1
sS'PEYV'
p2442
I2
sS'GPHR'
p2443
I3
sS'QGLL'
p2444
I3
sS'FSEQ'
p2445
I1
sS'LKIA'
p2446
I8
sS'EIEK'
p2447
I1
sS'RWLG'
p2448
I1
sS'EIES'
p2449
I1
sS'YADY'
p2450
I10
sS'QQDR'
p2451
I1
sS'FSEM'
p2452
I1
sS'LKIT'
p2453
I5
sS'IQAD'
p2454
I3
sS'RPDG'
p2455
I1
sS'PAAP'
p2456
I1
sS'PAAQ'
p2457
I1
sS'VTQY'
p2458
I1
sS'PLVG'
p2459
I1
sS'YDLA'
p2460
I11
sS'SEQL'
p2461
I1
sS'LLDL'
p2462
I4
sS'SEQG'
p2463
I2
sS'SEQE'
p2464
I1
sS'PLVR'
p2465
I2
sS'PAAA'
p2466
I2
sS'PAAG'
p2467
I1
sS'GDYL'
p2468
I1
sS'SEQR'
p2469
I1
sS'SEQQ'
p2470
I3
sS'PAAN'
p2471
I2
sS'PAAL'
p2472
I5
sS'PAAM'
p2473
I1
sS'RGTS'
p2474
I1
sS'QLSK'
p2475
I1
sS'QQVR'
p2476
I1
sS'QLSE'
p2477
I1
sS'LLLP'
p2478
I2
sS'ATLR'
p2479
I4
sS'TSSP'
p2480
I1
sS'ATLP'
p2481
I1
sS'QQVE'
p2482
I1
sS'LPVI'
p2483
I3
sS'DKID'
p2484
I1
sS'GEEN'
p2485
I2
sS'RGTG'
p2486
I6
sS'ATLG'
p2487
I1
sS'RDWQ'
p2488
I1
sS'DQNR'
p2489
I2
sS'LPVD'
p2490
I3
sS'QPDF'
p2491
I3
sS'RIVQ'
p2492
I1
sS'TALT'
p2493
I2
sS'DYFL'
p2494
I7
sS'RRLA'
p2495
I1
sS'TALR'
p2496
I1
sS'DYFF'
p2497
I1
sS'ARMT'
p2498
I1
sS'APAG'
p2499
I1
sS'ARMS'
p2500
I2
sS'DYFA'
p2501
I1
sS'TALD'
p2502
I2
sS'RRLP'
p2503
I1
sS'KVDQ'
p2504
I1
sS'TALL'
p2505
I2
sS'FKRE'
p2506
I1
sS'LAFA'
p2507
I1
sS'ARMA'
p2508
I2
sS'LPDL'
p2509
I1
sS'SLIG'
p2510
I1
sS'ERNL'
p2511
I1
sS'RLEA'
p2512
I4
sS'RLEL'
p2513
I1
sS'LPDG'
p2514
I1
sS'LPDA'
p2515
I4
sS'LMPK'
p2516
I1
sS'RTRI'
p2517
I2
sS'RYVG'
p2518
I1
sS'RLEV'
p2519
I2
sS'RLEQ'
p2520
I2
sS'RTRM'
p2521
I2
sS'RTRA'
p2522
I1
sS'EARL'
p2523
I1
sS'DITS'
p2524
I1
sS'SAKD'
p2525
I1
sS'SAKA'
p2526
I1
sS'TRAV'
p2527
I1
sS'TRAP'
p2528
I1
sS'RVSA'
p2529
I3
sS'DAQL'
p2530
I1
sS'ELVL'
p2531
I1
sS'RLAI'
p2532
I4
sS'VAVP'
p2533
I1
sS'LVTH'
p2534
I1
sS'LVTI'
p2535
I3
sS'KKRL'
p2536
I3
sS'TQQR'
p2537
I3
sS'ARCA'
p2538
I1
sS'LVTT'
p2539
I3
sS'DRDA'
p2540
I12
sS'IDVG'
p2541
I3
sS'RMSA'
p2542
I1
sS'RMSG'
p2543
I1
sS'SVAG'
p2544
I1
sS'LWLR'
p2545
I1
sS'VGAE'
p2546
I1
sS'LQPE'
p2547
I2
sS'LLPQ'
p2548
I3
sS'QAQL'
p2549
I1
sS'RMSR'
p2550
I1
sS'TLYW'
p2551
I1
sS'PDLG'
p2552
I1
sS'RASL'
p2553
I4
sS'VGAV'
p2554
I3
sS'ASLD'
p2555
I14
sS'DCPI'
p2556
I1
sS'ADRQ'
p2557
I2
sS'ADRP'
p2558
I1
sS'VGSS'
p2559
I1
sS'RMAQ'
p2560
I1
sS'LNNS'
p2561
I1
sS'IRNL'
p2562
I1
sS'LGFF'
p2563
I2
sS'ADRA'
p2564
I1
sS'RMAA'
p2565
I1
sS'LEVL'
p2566
I2
sS'VWLE'
p2567
I1
sS'AQMQ'
p2568
I11
sS'IVLY'
p2569
I3
sS'ADRL'
p2570
I4
sS'QQDA'
p2571
I4
sS'SGAS'
p2572
I1
sS'QQDD'
p2573
I12
sS'GNER'
p2574
I1
sS'MPAD'
p2575
I10
sS'GEWA'
p2576
I1
sS'NMSD'
p2577
I1
sS'QGLA'
p2578
I1
sS'RAYF'
p2579
I1
sS'QNQN'
p2580
I1
sS'RAYI'
p2581
I1
sS'QNQL'
p2582
I1
sS'RAYL'
p2583
I11
sS'DVRQ'
p2584
I3
sS'YRAY'
p2585
I12
sS'NYAI'
p2586
I1
sS'IFTK'
p2587
I4
sS'AGTE'
p2588
I1
sS'DARQ'
p2589
I1
sS'ELPD'
p2590
I1
sS'RQYL'
p2591
I1
sS'SLER'
p2592
I2
sS'DARI'
p2593
I1
sS'ILDD'
p2594
I2
sS'QMQQ'
p2595
I12
sS'DPAT'
p2596
I1
sS'YRAV'
p2597
I1
sS'ELPP'
p2598
I1
sS'KHLA'
p2599
I1
sS'SIAV'
p2600
I1
sS'RAEF'
p2601
I2
sS'FTLE'
p2602
I1
sS'ASKQ'
p2603
I1
sS'NRRL'
p2604
I2
sS'SIAP'
p2605
I3
sS'RAEI'
p2606
I1
sS'SIAY'
p2607
I10
sS'KLDP'
p2608
I1
sS'VDAL'
p2609
I1
sS'SIAE'
p2610
I1
sS'VDAN'
p2611
I1
sS'QLRA'
p2612
I5
sS'VVAG'
p2613
I1
sS'YGGV'
p2614
I1
sS'DDLG'
p2615
I3
sS'SIAH'
p2616
I1
sS'VQRA'
p2617
I3
sS'DIIS'
p2618
I1
sS'QEAL'
p2619
I1
sS'VQRL'
p2620
I1
sS'AKSR'
p2621
I9
sS'SRYA'
p2622
I9
sS'VQRS'
p2623
I2
sS'PQAS'
p2624
I3
sS'SRYT'
p2625
I1
sS'VQRY'
p2626
I3
sS'IEKR'
p2627
I3
sS'ARQA'
p2628
I1
sS'AKTD'
p2629
I1
sS'GLGE'
p2630
I3
sS'GLGF'
p2631
I2
sS'EPAA'
p2632
I1
sS'PLKQ'
p2633
I2
sS'ARQK'
p2634
I2
sS'TGTA'
p2635
I1
sS'QFTL'
p2636
I1
sS'GLGL'
p2637
I1
sS'ALEQ'
p2638
I9
sS'ALER'
p2639
I5
sS'ARQQ'
p2640
I1
sS'TRDI'
p2641
I1
sS'QVNQ'
p2642
I1
sS'ALEK'
p2643
I3
sS'EKLP'
p2644
I1
sS'MAIL'
p2645
I1
sS'QLDE'
p2646
I2
sS'SSLG'
p2647
I1
sS'CAYF'
p2648
I3
sS'KANL'
p2649
I1
sS'GGLA'
p2650
I2
sS'DGLF'
p2651
I1
sS'LRET'
p2652
I2
sS'REGR'
p2653
I8
sS'FEAQ'
p2654
I2
sS'LTII'
p2655
I2
sS'AQPA'
p2656
I1
sS'FQHY'
p2657
I2
sS'RRQR'
p2658
I1
sS'GVGL'
p2659
I1
sS'LDDL'
p2660
I3
sS'ADEQ'
p2661
I1
sS'RRQY'
p2662
I1
sS'SSFG'
p2663
I1
sS'REAQ'
p2664
I1
sS'YQAY'
p2665
I2
sS'LILT'
p2666
I1
sS'RPES'
p2667
I2
sS'VFGV'
p2668
I1
sS'DHSG'
p2669
I1
sS'RRQD'
p2670
I3
sS'SERL'
p2671
I2
sS'LDDS'
p2672
I3
sS'VVLW'
p2673
I1
sS'IEKA'
p2674
I1
sS'VITS'
p2675
I1
sS'SGTG'
p2676
I1
sS'AYIA'
p2677
I1
sS'AGFK'
p2678
I1
sS'LDRG'
p2679
I11
sS'LDRE'
p2680
I1
sS'TIGA'
p2681
I3
sS'QYKA'
p2682
I3
sS'LDRL'
p2683
I1
sS'EERA'
p2684
I2
sS'AAVV'
p2685
I1
sS'AQQR'
p2686
I7
sS'AAVP'
p2687
I8
sS'AQQT'
p2688
I1
sS'RSKN'
p2689
I1
sS'ESAS'
p2690
I1
sS'EERI'
p2691
I3
sS'ANGK'
p2692
I1
sS'ESAK'
p2693
I1
sS'AAVE'
p2694
I3
sS'IRVQ'
p2695
I1
sS'AAVG'
p2696
I4
sS'AAVA'
p2697
I1
sS'AQQI'
p2698
I2
sS'AQQH'
p2699
I1
sS'ENRL'
p2700
I3
sS'ESAG'
p2701
I8
sS'AQQL'
p2702
I3
sS'KLRD'
p2703
I4
sS'GTEV'
p2704
I3
sS'KAAL'
p2705
I3
sS'LGEA'
p2706
I1
sS'DGAH'
p2707
I1
sS'ERMA'
p2708
I1
sS'DELV'
p2709
I1
sS'GVIT'
p2710
I1
sS'RYQA'
p2711
I1
sS'TPDG'
p2712
I3
sS'DLER'
p2713
I4
sS'PAVQ'
p2714
I1
sS'SDIT'
p2715
I1
sS'LPES'
p2716
I1
sS'GTEI'
p2717
I1
sS'GAVY'
p2718
I2
sS'GALA'
p2719
I1
sS'LAWF'
p2720
I1
sS'VERL'
p2721
I3
sS'VLLE'
p2722
I1
sS'FFDY'
p2723
I15
sS'GAVL'
p2724
I1
sS'HRLE'
p2725
I1
sS'LNAA'
p2726
I1
sS'EASV'
p2727
I1
sS'VLLL'
p2728
I1
sS'GAVA'
p2729
I1
sS'GAVG'
p2730
I3
sS'GAVD'
p2731
I13
sS'ASPQ'
p2732
I1
sS'MSEL'
p2733
I2
sS'AADG'
p2734
I1
sS'LCAI'
p2735
I3
sS'RFSE'
p2736
I1
sS'LSQQ'
p2737
I1
sS'TTLS'
p2738
I1
sS'TRPG'
p2739
I1
sS'TRPD'
p2740
I1
sS'AADR'
p2741
I4
sS'LILG'
p2742
I3
sS'KNLT'
p2743
I1
sS'GSIA'
p2744
I3
sS'GQMI'
p2745
I1
sS'GSIL'
p2746
I1
sS'GILV'
p2747
I3
sS'RFSQ'
p2748
I1
sS'PSRP'
p2749
I3
sS'QEER'
p2750
I3
sS'QTTA'
p2751
I2
sS'GADE'
p2752
I1
sS'ENQG'
p2753
I3
sS'GADA'
p2754
I1
sS'QEEA'
p2755
I1
sS'GGHL'
p2756
I10
sS'REIA'
p2757
I10
sS'NCFE'
p2758
I1
sS'GADT'
p2759
I2
sS'PDGA'
p2760
I2
sS'GADV'
p2761
I1
sS'IHQA'
p2762
I1
sS'GADR'
p2763
I1
sS'EAAD'
p2764
I3
sS'EAAG'
p2765
I1
sS'EAAA'
p2766
I11
sS'YLKY'
p2767
I1
sS'EAAM'
p2768
I1
sS'IDKQ'
p2769
I1
sS'HPRV'
p2770
I2
sS'DERQ'
p2771
I1
sS'LQAQ'
p2772
I1
sS'SFSV'
p2773
I1
sS'LQAL'
p2774
I1
sS'EAAV'
p2775
I1
sS'DERE'
p2776
I1
sS'VKAL'
p2777
I1
sS'DERA'
p2778
I11
sS'LQAA'
p2779
I1
sS'HLAR'
p2780
I3
sS'GGTG'
p2781
I1
sS'SLLD'
p2782
I3
sS'NLLL'
p2783
I1
sS'AFAA'
p2784
I1
sS'VAVG'
p2785
I3
sS'AALS'
p2786
I3
sS'QSIE'
p2787
I2
sS'AFAR'
p2788
I1
sS'QSIA'
p2789
I1
sS'QQER'
p2790
I2
sS'IVFG'
p2791
I1
sS'QLRK'
p2792
I1
sS'DQMI'
p2793
I2
sS'VDGQ'
p2794
I3
sS'TSRQ'
p2795
I1
sS'DQMA'
p2796
I1
sS'QLRE'
p2797
I5
sS'NAGF'
p2798
I1
sS'DELP'
p2799
I1
sS'VNHR'
p2800
I3
sS'AVLN'
p2801
I2
sS'HDTQ'
p2802
I1
sS'NGGS'
p2803
I1
sS'DQMR'
p2804
I1
sS'AVLG'
p2805
I1
sS'TSRE'
p2806
I1
sS'QLRT'
p2807
I1
sS'SLVA'
p2808
I1
sS'QGRG'
p2809
I1
sS'LPGD'
p2810
I1
sS'TAKQ'
p2811
I1
sS'PAPQ'
p2812
I1
sS'LVGS'
p2813
I3
sS'RTAT'
p2814
I2
sS'RNLN'
p2815
I1
sS'ARLQ'
p2816
I1
sS'ARLS'
p2817
I4
sS'ARLR'
p2818
I2
sS'QVQR'
p2819
I3
sS'RNLF'
p2820
I1
sS'RQLR'
p2821
I3
sS'ARLK'
p2822
I10
sS'LVGA'
p2823
I1
sS'ARLA'
p2824
I1
sS'KKEL'
p2825
I1
sS'LQQQ'
p2826
I4
sS'ARLE'
p2827
I1
sS'ARLD'
p2828
I1
sS'LVGH'
p2829
I1
sS'FALY'
p2830
I2
sS'YGVV'
p2831
I6
sS'MIKK'
p2832
I3
sS'SKLD'
p2833
I1
sS'FKPE'
p2834
I1
sS'QLRQ'
p2835
I6
sS'DYYQ'
p2836
I3
sS'AIYG'
p2837
I4
sS'SKLS'
p2838
I1
sS'FALA'
p2839
I1
sS'MVLG'
p2840
I3
sS'AIYL'
p2841
I1
sS'ARPM'
p2842
I1
sS'QEWW'
p2843
I3
sS'QVMA'
p2844
I1
sS'GLFG'
p2845
I2
sS'IWSG'
p2846
I3
sS'GLFD'
p2847
I1
sS'ARPE'
p2848
I2
sS'ALDV'
p2849
I11
sS'PLDS'
p2850
I1
sS'ARPA'
p2851
I3
sS'AQQD'
p2852
I1
sS'ALDQ'
p2853
I17
sS'AEAR'
p2854
I1
sS'AEAL'
p2855
I5
sS'QVMP'
p2856
I1
sS'ALDL'
p2857
I2
sS'LRLG'
p2858
I1
sS'AEAD'
p2859
I1
sS'ALDE'
p2860
I3
sS'SGGH'
p2861
I1
sS'AEAA'
p2862
I1
sS'ALDA'
p2863
I11
sS'SGGL'
p2864
I3
sS'QAAA'
p2865
I1
sS'EVAY'
p2866
I3
sS'GLPP'
p2867
I5
sS'GLPS'
p2868
I1
sS'QAAI'
p2869
I2
sS'APRL'
p2870
I12
sS'KTEA'
p2871
I1
sS'DELR'
p2872
I1
sS'QAAL'
p2873
I3
sS'APRV'
p2874
I1
sS'GLPA'
p2875
I3
sS'QAAW'
p2876
I1
sS'QAAV'
p2877
I7
sS'HGGT'
p2878
I1
sS'IAKT'
p2879
I1
sS'YYVF'
p2880
I1
sS'SPQA'
p2881
I1
sS'IDQD'
p2882
I1
sS'VWYS'
p2883
I3
sS'IISL'
p2884
I1
sS'LHQS'
p2885
I3
sS'IDQI'
p2886
I9
sS'LEKV'
p2887
I1
sS'IDQL'
p2888
I2
sS'LEKL'
p2889
I1
sS'IDQQ'
p2890
I1
sS'PLPA'
p2891
I1
sS'LHQA'
p2892
I2
sS'LGLT'
p2893
I1
sS'LEKA'
p2894
I2
sS'AAPS'
p2895
I1
sS'YWLM'
p2896
I1
sS'QLVD'
p2897
I2
sS'DRYD'
p2898
I1
sS'ENTV'
p2899
I1
sS'SEAT'
p2900
I3
sS'LDSL'
p2901
I1
sS'GSPA'
p2902
I1
sS'DFEA'
p2903
I2
sS'LRRA'
p2904
I1
sS'WYSF'
p2905
I3
sS'AYFD'
p2906
I1
sS'LDSD'
p2907
I2
sS'LDSG'
p2908
I1
sS'DRYV'
p2909
I1
sS'LRRH'
p2910
I2
sS'PVAG'
p2911
I1
sS'SEAD'
p2912
I2
sS'VPAA'
p2913
I1
sS'SDII'
p2914
I1
sS'AHFS'
p2915
I1
sS'AGGA'
p2916
I1
sS'AAWQ'
p2917
I1
sS'AGGM'
p2918
I1
sS'AGGL'
p2919
I2
sS'QIDQ'
p2920
I1
sS'AGGH'
p2921
I9
sS'NLVG'
p2922
I1
sS'VPAP'
p2923
I1
sS'VPAS'
p2924
I7
sS'FLTA'
p2925
I3
sS'AGGP'
p2926
I1
sS'AGGS'
p2927
I1
sS'AGGR'
p2928
I1
sS'QIDA'
p2929
I2
sS'ENQL'
p2930
I2
sS'APLP'
p2931
I1
sS'ANHL'
p2932
I1
sS'IFSN'
p2933
I1
sS'QRMF'
p2934
I2
sS'RDLA'
p2935
I1
sS'LWQR'
p2936
I1
sS'QSSP'
p2937
I3
sS'EQGA'
p2938
I3
sS'AWLA'
p2939
I1
sS'PAGA'
p2940
I1
sS'RDLP'
p2941
I1
sS'SVSQ'
p2942
I1
sS'QRMS'
p2943
I1
sS'AAIL'
p2944
I3
sS'ASLP'
p2945
I1
sS'ASLQ'
p2946
I2
sS'ASLR'
p2947
I1
sS'QKVV'
p2948
I1
sS'LKYR'
p2949
I1
sS'YLRY'
p2950
I2
sS'DAQK'
p2951
I9
sS'DAQI'
p2952
I11
sS'ASLA'
p2953
I4
sS'DAQT'
p2954
I2
sS'RHGG'
p2955
I1
sS'NRLS'
p2956
I3
sS'VDFE'
p2957
I2
sS'AAEL'
p2958
I1
sS'AAEI'
p2959
I1
sS'LSPQ'
p2960
I10
sS'APLL'
p2961
I1
sS'AAEA'
p2962
I2
sS'AEAP'
p2963
I2
sS'SLST'
p2964
I2
sS'HFSL'
p2965
I2
sS'QTAA'
p2966
I1
sS'TVQR'
p2967
I1
sS'AVPS'
p2968
I1
sS'LSPE'
p2969
I1
sS'AAER'
p2970
I1
sS'DGAD'
p2971
I1
sS'LVGE'
p2972
I5
sS'DGAA'
p2973
I1
sS'KAAA'
p2974
I2
sS'VSEE'
p2975
I1
sS'YCLS'
p2976
I2
sS'YCLT'
p2977
I10
sS'GAEA'
p2978
I1
sS'FDAK'
p2979
I2
sS'DGAV'
p2980
I1
sS'ASPP'
p2981
I1
sS'KAAR'
p2982
I1
sS'DGAS'
p2983
I3
sS'GAEQ'
p2984
I15
sS'QHFA'
p2985
I3
sS'EKSR'
p2986
I1
sS'KSKG'
p2987
I1
sS'EKSL'
p2988
I1
sS'KLSA'
p2989
I1
sS'REFF'
p2990
I1
sS'IERL'
p2991
I2
sS'LDEI'
p2992
I2
sS'PLPL'
p2993
I3
sS'SNEA'
p2994
I1
sS'LDEL'
p2995
I2
sS'RRRV'
p2996
I1
sS'TLER'
p2997
I2
sS'YDNF'
p2998
I1
sS'QYVQ'
p2999
I3
sS'TRLE'
p3000
I1
sS'HGKS'
p3001
I2
sS'LDER'
p3002
I1
sS'GTVA'
p3003
I8
sS'PLPT'
p3004
I1
sS'QYVA'
p3005
I1
sS'QQTR'
p3006
I1
sS'QQTQ'
p3007
I3
sS'DQLP'
p3008
I1
sS'DQLR'
p3009
I2
sS'KEHD'
p3010
I3
sS'GGGG'
p3011
I1
sS'GGGE'
p3012
I1
sS'QQTA'
p3013
I1
sS'QQTF'
p3014
I1
sS'WLMP'
p3015
I1
sS'EAYD'
p3016
I2
sS'AVKA'
p3017
I1
sS'LPPA'
p3018
I1
sS'ELVG'
p3019
I2
sS'LPPG'
p3020
I1
sS'QTLG'
p3021
I11
sS'MFTK'
p3022
I2
sS'VALL'
p3023
I1
sS'QNAI'
p3024
I1
sS'RTNL'
p3025
I1
sS'LPPS'
p3026
I6
sS'LVDF'
p3027
I2
sS'ELQE'
p3028
I1
sS'HSGL'
p3029
I1
sS'VKII'
p3030
I3
sS'ISAL'
p3031
I1
sS'ERLP'
p3032
I1
sS'ERLR'
p3033
I5
sS'SLGE'
p3034
I1
sS'YMHA'
p3035
I1
sS'SLGA'
p3036
I3
sS'EDLL'
p3037
I1
sS'YQLR'
p3038
I1
sS'IAAQ'
p3039
I15
sS'SQIE'
p3040
I1
sS'ERLF'
p3041
I1
sS'ERLA'
p3042
I15
sS'LPFS'
p3043
I1
sS'MQLA'
p3044
I1
sS'ERLK'
p3045
I6
sS'LSEA'
p3046
I2
sS'FDRV'
p3047
I2
sS'LAVL'
p3048
I2
sS'VRQA'
p3049
I4
sS'RTPA'
p3050
I1
sS'DLQK'
p3051
I1
sS'EAPA'
p3052
I1
sS'FDRY'
p3053
I1
sS'VRQI'
p3054
I1
sS'LALE'
p3055
I2
sS'LLGP'
p3056
I4
sS'LAVV'
p3057
I2
sS'LAVR'
p3058
I4
sS'TIQP'
p3059
I1
sS'EFLA'
p3060
I1
sS'AKDQ'
p3061
I1
sS'ARAP'
p3062
I1
sS'ARAV'
p3063
I1
sS'RYLA'
p3064
I3
sS'AGPQ'
p3065
I2
sS'DIYN'
p3066
I1
sS'NTSA'
p3067
I1
sS'RYLK'
p3068
I1
sS'GGMI'
p3069
I1
sS'ARAA'
p3070
I4
sS'KILL'
p3071
I1
sS'IGTR'
p3072
I1
sS'AIHQ'
p3073
I1
sS'MQQY'
p3074
I1
sS'LVRR'
p3075
I3
sS'GQAL'
p3076
I1
sS'KTDI'
p3077
I1
sS'RQLV'
p3078
I2
sS'IDPE'
p3079
I1
sS'LLRR'
p3080
I1
sS'VDKS'
p3081
I9
sS'YLDY'
p3082
I1
sS'VALV'
p3083
I3
sS'RQIA'
p3084
I1
sS'YLDE'
p3085
I1
sS'STSL'
p3086
I1
sS'YLDA'
p3087
I11
sS'LQNL'
p3088
I1
sS'QMAK'
p3089
I1
sS'LSEQ'
p3090
I2
sS'LADG'
p3091
I2
sS'LADA'
p3092
I2
sS'TPAN'
p3093
I1
sS'DEQR'
p3094
I2
sS'ALAL'
p3095
I3
sS'TPAA'
p3096
I4
sS'DEQQ'
p3097
I1
sS'IVTH'
p3098
I2
sS'DEQK'
p3099
I5
sS'DEQL'
p3100
I2
sS'LADR'
p3101
I1
sS'SPAA'
p3102
I2
sS'TPAQ'
p3103
I1
sS'VGQA'
p3104
I1
sS'YEQY'
p3105
I3
sS'ALAR'
p3106
I1
sS'YEQE'
p3107
I3
sS'AVYG'
p3108
I2
sS'QDGK'
p3109
I1
sS'FGAE'
p3110
I15
sS'TIIT'
p3111
I2
sS'DWQQ'
p3112
I1
sS'IYGG'
p3113
I1
sS'WHRY'
p3114
I10
sS'RFDP'
p3115
I2
sS'ELRQ'
p3116
I2
sS'QRLL'
p3117
I1
sS'STSP'
p3118
I1
sS'QRLA'
p3119
I3
sS'QDIK'
p3120
I1
sS'QRLE'
p3121
I2
sS'VAAR'
p3122
I1
sS'VAAS'
p3123
I1
sS'ELRE'
p3124
I2
sS'IYGV'
p3125
I3
sS'AYYR'
p3126
I1
sS'NVDA'
p3127
I1
sS'IRFD'
p3128
I2
sS'VAAD'
p3129
I1
sS'AGVP'
p3130
I2
sS'ELRN'
p3131
I1
sS'WHRG'
p3132
I2
sS'VAAA'
p3133
I3
sS'SLGI'
p3134
I3
sS'ASMR'
p3135
I2
sS'AQAE'
p3136
I7
sS'AQAD'
p3137
I1
sS'VDGS'
p3138
I1
sS'IYEQ'
p3139
I3
sS'YGAA'
p3140
I1
sS'AQAM'
p3141
I1
sS'AQAL'
p3142
I2
sS'RAGL'
p3143
I2
sS'RAGM'
p3144
I1
sS'AQAQ'
p3145
I2
sS'RHDL'
p3146
I1
sS'DAPV'
p3147
I1
sS'YGAV'
p3148
I3
sS'GRGL'
p3149
I1
sS'ERQT'
p3150
I1
sS'TSIK'
p3151
I1
sS'RSEL'
p3152
I1
sS'LWRD'
p3153
I3
sS'AIVW'
p3154
I3
sS'MRAQ'
p3155
I11
sS'DLAV'
p3156
I2
sS'DLAS'
p3157
I2
sS'DLAR'
p3158
I11
sS'RAWQ'
p3159
I3
sS'AIVG'
p3160
I1
sS'DRHR'
p3161
I1
sS'ERLE'
p3162
I2
sS'KKKR'
p3163
I3
sS'ALGS'
p3164
I1
sS'GLEE'
p3165
I2
sS'ALGV'
p3166
I1
sS'AKVA'
p3167
I1
sS'PNAG'
p3168
I1
sS'RQQV'
p3169
I1
sS'ALGL'
p3170
I2
sS'SIER'
p3171
I2
sS'AKVR'
p3172
I1
sS'AKVQ'
p3173
I1
sS'KLPA'
p3174
I2
sS'WQNR'
p3175
I1
sS'QIEA'
p3176
I4
sS'KLPD'
p3177
I6
sS'KYKH'
p3178
I3
sS'GPEV'
p3179
I3
sS'KLPS'
p3180
I3
sS'ILLL'
p3181
I3
sS'AVRA'
p3182
I14
sS'KLPT'
p3183
I1
sS'QIES'
p3184
I8
sS'GPEA'
p3185
I11
sS'PEVA'
p3186
I3
sS'LDFV'
p3187
I3
sS'RLRQ'
p3188
I1
sS'IHAN'
p3189
I1
sS'LRAH'
p3190
I2
sS'LRAG'
p3191
I3
sS'LRAA'
p3192
I4
sS'RLRA'
p3193
I2
sS'DDLK'
p3194
I1
sS'LRAY'
p3195
I1
sS'RLRE'
p3196
I3
sS'RLRI'
p3197
I1
sS'PLQQ'
p3198
I1
sS'VLDQ'
p3199
I2
sS'LRAQ'
p3200
I1
sS'LRAS'
p3201
I1
sS'LRAR'
p3202
I1
sS'PATH'
p3203
I1
sS'GSHA'
p3204
I1
sS'GVWY'
p3205
I3
sS'GVWR'
p3206
I1
sS'WRDH'
p3207
I2
sS'GEGK'
p3208
I3
sS'AYGH'
p3209
I3
sS'PQLQ'
p3210
I3
sS'LRSM'
p3211
I1
sS'LRSK'
p3212
I1
sS'NRVD'
p3213
I1
sS'EEPL'
p3214
I3
sS'MNGS'
p3215
I1
sS'ELDG'
p3216
I1
sS'LAVI'
p3217
I1
sS'EQKQ'
p3218
I2
sS'ELDD'
p3219
I3
sS'QRIF'
p3220
I4
sS'FDRS'
p3221
I1
sS'IRTE'
p3222
I1
sS'DANR'
p3223
I2
sS'QMRA'
p3224
I1
sS'ELDR'
p3225
I1
sS'PVDS'
p3226
I3
sS'EQKA'
p3227
I1
sS'DANG'
p3228
I1
sS'IEAA'
p3229
I1
sS'RSIL'
p3230
I1
sS'DAND'
p3231
I1
sS'EQKK'
p3232
I3
sS'EQKH'
p3233
I1
sS'EPKE'
p3234
I3
sS'PATT'
p3235
I1
sS'ITML'
p3236
I1
sS'AVRE'
p3237
I1
sS'SLFA'
p3238
I3
sS'GSHR'
p3239
I1
sS'FSLE'
p3240
I2
sS'STQE'
p3241
I3
sS'LPGA'
p3242
I1
sS'LGVW'
p3243
I1
sS'GTKE'
p3244
I1
sS'RIHA'
p3245
I1
sS'EAQT'
p3246
I1
sS'VRRA'
p3247
I1
sS'EAQQ'
p3248
I4
sS'PTLA'
p3249
I1
sS'VRRE'
p3250
I1
sS'RTQI'
p3251
I2
sS'RTQL'
p3252
I1
sS'TTPS'
p3253
I3
sS'PTLT'
p3254
I2
sS'EAQD'
p3255
I3
sS'VRRV'
p3256
I2
sS'TTPF'
p3257
I1
sS'EAQH'
p3258
I2
sS'EAQK'
p3259
I2
sS'MSGS'
p3260
I1
sS'EQYG'
p3261
I3
sS'DLQA'
p3262
I3
sS'VTTP'
p3263
I3
sS'AVDL'
p3264
I3
sS'KDIR'
p3265
I2
sS'QDPT'
p3266
I1
sS'MSGK'
p3267
I1
sS'GSLG'
p3268
I2
sS'ASQA'
p3269
I1
sS'AVDH'
p3270
I1
sS'DIEI'
p3271
I2
sS'TTNR'
p3272
I3
sS'EPSP'
p3273
I1
sS'QEKA'
p3274
I1
sS'FVMR'
p3275
I2
sS'FDAL'
p3276
I1
sS'EAGA'
p3277
I2
sS'GSSA'
p3278
I11
sS'LPED'
p3279
I1
sS'WLRP'
p3280
I1
sS'IDAA'
p3281
I2
sS'SDEQ'
p3282
I2
sS'QRQL'
p3283
I1
sS'IAHR'
p3284
I1
sS'GSAR'
p3285
I3
sS'IDAL'
p3286
I3
sS'VAQV'
p3287
I4
sS'SPLA'
p3288
I1
sS'LLAN'
p3289
I2
sS'VQES'
p3290
I2
sS'GGRL'
p3291
I1
sS'LVRN'
p3292
I3
sS'DLPR'
p3293
I1
sS'GGRA'
p3294
I2
sS'LLIP'
p3295
I2
sS'ERAQ'
p3296
I1
sS'TDAQ'
p3297
I9
sS'VQED'
p3298
I2
sS'SVDA'
p3299
I1
sS'DQYV'
p3300
I1
sS'LLAV'
p3301
I2
sS'LLAT'
p3302
I1
sS'YEVM'
p3303
I1
sS'TDAA'
p3304
I1
sS'DQKS'
p3305
I1
sS'LQSA'
p3306
I1
sS'IEST'
p3307
I1
sS'NAIS'
p3308
I1
sS'PPLP'
p3309
I3
sS'QLLE'
p3310
I1
sS'APYG'
p3311
I1
sS'IESA'
p3312
I8
sS'GMPS'
p3313
I1
sS'SLTD'
p3314
I4
sS'LPQA'
p3315
I3
sS'LAQE'
p3316
I1
sS'NSNM'
p3317
I1
sS'LPQD'
p3318
I1
sS'EMSG'
p3319
I1
sS'QSYE'
p3320
I1
sS'LPQM'
p3321
I2
sS'LPQL'
p3322
I4
sS'LPQS'
p3323
I3
sS'VKHL'
p3324
I1
sS'TAIL'
p3325
I1
sS'LPQP'
p3326
I1
sS'SLTQ'
p3327
I1
sS'EDAQ'
p3328
I2
sS'RIRI'
p3329
I1
sS'HLAK'
p3330
I11
sS'FTRP'
p3331
I1
sS'DYCL'
p3332
I12
sS'HLAL'
p3333
I3
sS'SRTP'
p3334
I1
sS'RATS'
p3335
I2
sS'AIWS'
p3336
I3
sS'VQQQ'
p3337
I1
sS'TRIE'
p3338
I2
sS'YNQF'
p3339
I1
sS'FGNE'
p3340
I1
sS'VQQR'
p3341
I1
sS'QGYS'
p3342
I2
sS'DQQL'
p3343
I1
sS'QSQQ'
p3344
I1
sS'NINT'
p3345
I1
sS'GLDA'
p3346
I3
sS'SGEP'
p3347
I1
sS'ARVA'
p3348
I13
sS'GLDE'
p3349
I2
sS'KQPE'
p3350
I1
sS'LQGQ'
p3351
I1
sS'MALM'
p3352
I1
sS'QHPR'
p3353
I2
sS'ARVS'
p3354
I3
sS'DYFD'
p3355
I1
sS'DRIA'
p3356
I2
sS'ARVV'
p3357
I1
sS'DSDA'
p3358
I2
sS'AIIA'
p3359
I1
sS'TSFD'
p3360
I2
sS'WKAN'
p3361
I1
sS'APTS'
p3362
I1
sS'TAGE'
p3363
I1
sS'GLVA'
p3364
I2
sS'FTSR'
p3365
I1
sS'WPSW'
p3366
I3
sS'TSLE'
p3367
I1
sS'RVAE'
p3368
I3
sS'RVAD'
p3369
I2
sS'QTQN'
p3370
I1
sS'ALTI'
p3371
I2
sS'RMTA'
p3372
I1
sS'ALTD'
p3373
I4
sS'IQAK'
p3374
I1
sS'RVAV'
p3375
I2
sS'IVGV'
p3376
I1
sS'RVAS'
p3377
I2
sS'RVAQ'
p3378
I11
sS'RMTS'
p3379
I1
sS'YLGI'
p3380
I1
sS'IDSS'
p3381
I3
sS'LGMV'
p3382
I1
sS'VDDF'
p3383
I1
sS'NDLT'
p3384
I3
sS'THEI'
p3385
I3
sS'VMAK'
p3386
I1
sS'SGKF'
p3387
I1
sS'AYDH'
p3388
I2
sS'LRPA'
p3389
I1
sS'SEEA'
p3390
I3
sS'QGGG'
p3391
I1
sS'MRQQ'
p3392
I1
sS'GVVG'
p3393
I6
sS'ELGN'
p3394
I1
sS'NLTT'
p3395
I1
sS'QRAA'
p3396
I10
sS'AGAG'
p3397
I1
sS'QRAE'
p3398
I1
sS'DAMR'
p3399
I10
sS'MQFA'
p3400
I1
sS'ANDA'
p3401
I1
sS'RQTI'
p3402
I1
sS'TVAV'
p3403
I1
sS'QRAS'
p3404
I12
sS'AGAQ'
p3405
I2
sS'QRAQ'
p3406
I12
sS'EQHF'
p3407
I3
sS'AGAV'
p3408
I10
sS'AGAT'
p3409
I1
sS'ANDT'
p3410
I1
sS'KEIQ'
p3411
I1
sS'QYFS'
p3412
I1
sS'ALFD'
p3413
I1
sS'ALFG'
p3414
I2
sS'DPMK'
p3415
I1
sS'FADE'
p3416
I1
sS'PAAS'
p3417
I1
sS'SVLL'
p3418
I1
sS'VGLA'
p3419
I10
sS'YDLE'
p3420
I3
sS'NKNL'
p3421
I1
sS'NTQT'
p3422
I1
sS'VVQM'
p3423
I1
sS'SVLP'
p3424
I1
sS'PAAV'
p3425
I1
sS'NLFD'
p3426
I1
sS'AGWH'
p3427
I2
sS'AHVA'
p3428
I1
sS'DFIQ'
p3429
I3
sS'LLRA'
p3430
I1
sS'ASNY'
p3431
I1
sS'AQND'
p3432
I3
sS'QITA'
p3433
I1
sS'FAPS'
p3434
I1
sS'EGNT'
p3435
I1
sS'NNVD'
p3436
I1
sS'VQYK'
p3437
I3
sS'KARA'
p3438
I1
sS'FAPE'
p3439
I3
sS'VRAV'
p3440
I1
sS'TLGE'
p3441
I4
sS'TLGD'
p3442
I13
sS'VRAQ'
p3443
I1
sS'PAEA'
p3444
I1
sS'AACA'
p3445
I2
sS'IRQM'
p3446
I1
sS'LAVQ'
p3447
I1
sS'DTAR'
p3448
I2
sS'TIAQ'
p3449
I1
sS'YFLT'
p3450
I4
sS'TIAL'
p3451
I1
sS'RGQA'
p3452
I1
sS'DTAK'
p3453
I1
sS'YFLP'
p3454
I2
sS'VRAA'
p3455
I11
sS'PMKK'
p3456
I1
sS'ERQR'
p3457
I1
sS'VRAL'
p3458
I2
sS'LRLP'
p3459
I1
sS'GAGW'
p3460
I2
sS'GAGP'
p3461
I6
sS'GAGS'
p3462
I9
sS'GAGR'
p3463
I1
sS'VPEA'
p3464
I1
sS'KDEV'
p3465
I3
sS'LSRL'
p3466
I3
sS'GAGG'
p3467
I1
sS'FLSA'
p3468
I4
sS'KSGA'
p3469
I11
sS'LADL'
p3470
I3
sS'QKLP'
p3471
I3
sS'DYKR'
p3472
I1
sS'ESLL'
p3473
I1
sS'QGED'
p3474
I2
sS'PLVT'
p3475
I3
sS'LKEV'
p3476
I3
sS'LKEP'
p3477
I1
sS'RYEQ'
p3478
I3
sS'DGQF'
p3479
I2
sS'HIAA'
p3480
I2
sS'SKVQ'
p3481
I3
sS'DGQL'
p3482
I1
sS'RWPA'
p3483
I1
sS'KAFL'
p3484
I2
sS'ESLR'
p3485
I1
sS'RLSR'
p3486
I3
sS'LDGS'
p3487
I1
sS'PQAA'
p3488
I7
sS'GPDA'
p3489
I2
sS'LDGT'
p3490
I10
sS'LFGA'
p3491
I1
sS'LFGN'
p3492
I1
sS'VVYG'
p3493
I3
sS'YDHF'
p3494
I2
sS'DTAN'
p3495
I1
sS'SSED'
p3496
I1
sS'RLSA'
p3497
I4
sS'PQAQ'
p3498
I1
sS'LFGS'
p3499
I1
sS'QYTL'
p3500
I1
sS'LDGL'
p3501
I1
sS'QAIL'
p3502
I2
sS'QQRY'
p3503
I4
sS'QQRQ'
p3504
I4
sS'ADLD'
p3505
I3
sS'GGEQ'
p3506
I1
sS'QQRV'
p3507
I8
sS'TKEI'
p3508
I1
sS'GAQR'
p3509
I5
sS'QEKY'
p3510
I3
sS'QQRA'
p3511
I2
sS'QQRD'
p3512
I1
sS'DEAW'
p3513
I1
sS'ADLQ'
p3514
I1
sS'QQVQ'
p3515
I3
sS'RRHI'
p3516
I2
sS'LPRL'
p3517
I1
sS'AVIE'
p3518
I1
sS'APET'
p3519
I1
sS'SLSL'
p3520
I1
sS'RTLT'
p3521
I4
sS'QAID'
p3522
I3
sS'APEA'
p3523
I1
sS'WPDG'
p3524
I1
sS'AVIR'
p3525
I1
sS'QLFA'
p3526
I2
sS'MPSP'
p3527
I1
sS'RTLG'
p3528
I14
sS'NAVA'
p3529
I1
sS'GEEP'
p3530
I3
sS'RLAA'
p3531
I12
sS'KQGK'
p3532
I1
sS'GDEQ'
p3533
I1
sS'RLAE'
p3534
I4
sS'RLAD'
p3535
I1
sS'LIGT'
p3536
I1
sS'VTKI'
p3537
I1
sS'RYRA'
p3538
I12
sS'KVVD'
p3539
I1
sS'RLAR'
p3540
I1
sS'RLPD'
p3541
I1
sS'SLET'
p3542
I2
sS'EAVP'
p3543
I1
sS'EAVR'
p3544
I11
sS'LFDY'
p3545
I4
sS'EAVW'
p3546
I1
sS'LSLV'
p3547
I1
sS'MLRQ'
p3548
I1
sS'WQTQ'
p3549
I1
sS'WQTR'
p3550
I1
sS'LSLP'
p3551
I3
sS'FFGD'
p3552
I1
sS'FDPA'
p3553
I3
sS'FFGA'
p3554
I14
sS'WQTI'
p3555
I1
sS'MLRE'
p3556
I2
sS'LATL'
p3557
I6
sS'TTQE'
p3558
I1
sS'TAAL'
p3559
I1
sS'AQDR'
p3560
I3
sS'QSLD'
p3561
I1
sS'QALL'
p3562
I3
sS'QSLG'
p3563
I1
sS'ARGP'
p3564
I1
sS'ARGQ'
p3565
I1
sS'QALA'
p3566
I6
sS'QSLL'
p3567
I3
sS'LETL'
p3568
I2
sS'QSLP'
p3569
I2
sS'KKNG'
p3570
I1
sS'ARGL'
p3571
I2
sS'LEEA'
p3572
I2
sS'AQDV'
p3573
I3
sS'QALQ'
p3574
I1
sS'QALT'
p3575
I3
sS'ARGG'
p3576
I4
sS'IDRI'
p3577
I1
sS'YKRS'
p3578
I1
sS'YKRQ'
p3579
I2
sS'IDRL'
p3580
I1
sS'QDYY'
p3581
I3
sS'SWQR'
p3582
I1
sS'LGLG'
p3583
I2
sS'YVGY'
p3584
I1
sS'LQLN'
p3585
I1
sS'TEVD'
p3586
I3
sS'LGLS'
p3587
I2
sS'LQLD'
p3588
I2
sS'IYWL'
p3589
I1
sS'LQLA'
p3590
I10
sS'VDEK'
p3591
I1
sS'SPQD'
p3592
I10
sS'RQKA'
p3593
I2
sS'HRYR'
p3594
I10
sS'REFL'
p3595
I1
sS'GQGD'
p3596
I3
sS'TRMS'
p3597
I1
sS'EADG'
p3598
I2
sS'QAGQ'
p3599
I3
sS'IYYV'
p3600
I1
sS'EADR'
p3601
I1
sS'VQDR'
p3602
I1
sS'DLQR'
p3603
I4
sS'SDLS'
p3604
I10
sS'ANLT'
p3605
I2
sS'GGSA'
p3606
I2
sS'AVWQ'
p3607
I1
sS'YLKR'
p3608
I2
sS'SDLG'
p3609
I9
sS'VWHR'
p3610
I10
sS'VNEQ'
p3611
I1
sS'APAE'
p3612
I2
sS'QLYQ'
p3613
I1
sS'GWHR'
p3614
I2
sS'GGSV'
p3615
I1
sS'VAEA'
p3616
I2
sS'ELTP'
p3617
I1
sS'ALAD'
p3618
I5
sS'QRRQ'
p3619
I3
sS'ALAG'
p3620
I2
sS'ARYF'
p3621
I3
sS'ALAK'
p3622
I6
sS'NTVL'
p3623
I1
sS'MQQP'
p3624
I1
sS'QRRY'
p3625
I1
sS'RIYE'
p3626
I3
sS'ALAQ'
p3627
I3
sS'ELTA'
p3628
I1
sS'ALAT'
p3629
I4
sS'AGPE'
p3630
I1
sS'ALAV'
p3631
I2
sS'LHGT'
p3632
I1
sS'AGPH'
p3633
I3
sS'MQQD'
p3634
I12
sS'QIDL'
p3635
I2
sS'VACA'
p3636
I1
sS'TKPG'
p3637
I13
sS'LRQG'
p3638
I1
sS'ELTL'
p3639
I3
sS'RAAI'
p3640
I15
sS'DVWT'
p3641
I3
sS'RAAL'
p3642
I2
sS'GRAP'
p3643
I10
sS'RAAA'
p3644
I1
sS'YREE'
p3645
I1
sS'GRAI'
p3646
I2
sS'KYSF'
p3647
I3
sS'RAAQ'
p3648
I8
sS'RAAR'
p3649
I4
sS'RAAS'
p3650
I14
sS'RAAV'
p3651
I3
sS'VAQL'
p3652
I1
sS'VAQM'
p3653
I10
sS'AGVA'
p3654
I10
sS'QVRE'
p3655
I1
sS'YGQS'
p3656
I3
sS'AFLD'
p3657
I2
sS'SPEA'
p3658
I1
sS'VQVE'
p3659
I3
sS'VAQA'
p3660
I4
sS'ALQS'
p3661
I1
sS'FSQQ'
p3662
I1
sS'SKKI'
p3663
I1
sS'YRWL'
p3664
I1
sS'EENQ'
p3665
I2
sS'PGDG'
p3666
I1
sS'EHDV'
p3667
I3
sS'PGDE'
p3668
I1
sS'PSPL'
p3669
I1
sS'TATG'
p3670
I2
sS'AMTY'
p3671
I1
sS'LDEQ'
p3672
I3
sS'KRLV'
p3673
I3
sS'PSPA'
p3674
I2
sS'KGRL'
p3675
I1
sS'LDQP'
p3676
I3
sS'APAS'
p3677
I1
sS'AARR'
p3678
I1
sS'FAAS'
p3679
I1
sS'DALE'
p3680
I4
sS'DALA'
p3681
I11
sS'LPDM'
p3682
I2
sS'YAAQ'
p3683
I13
sS'HKTI'
p3684
I1
sS'EQEN'
p3685
I3
sS'KFFS'
p3686
I1
sS'FQLD'
p3687
I2
sS'ASAG'
p3688
I8
sS'EINA'
p3689
I1
sS'SRAV'
p3690
I8
sS'DALV'
p3691
I7
sS'DALQ'
p3692
I1
sS'ASAA'
p3693
I5
sS'DALR'
p3694
I2
sS'FLSG'
p3695
I3
sS'RDYF'
p3696
I1
sS'YAAE'
p3697
I1
sS'WHRA'
p3698
I1
sS'ASAI'
p3699
I1
sS'NQLS'
p3700
I1
sS'NQLR'
p3701
I2
sS'PETA'
p3702
I1
sS'EEQK'
p3703
I2
sS'RLPV'
p3704
I3
sS'YLVQ'
p3705
I2
sS'ILNN'
p3706
I1
sS'MAQA'
p3707
I1
sS'LFDR'
p3708
I1
sS'RLPL'
p3709
I12
sS'LFDQ'
p3710
I1
sS'IEGN'
p3711
I1
sS'ILNS'
p3712
I1
sS'EQKR'
p3713
I1
sS'LYQL'
p3714
I1
sS'PEAA'
p3715
I11
sS'MAQP'
p3716
I1
sS'RLPA'
p3717
I1
sS'YKQA'
p3718
I2
sS'SWQS'
p3719
I10
sS'FESA'
p3720
I1
sS'PLAR'
p3721
I7
sS'PLAQ'
p3722
I1
sS'GERD'
p3723
I1
sS'LRQQ'
p3724
I3
sS'LRQR'
p3725
I16
sS'GYSA'
p3726
I2
sS'LRQL'
p3727
I5
sS'PLAI'
p3728
I2
sS'RLEK'
p3729
I1
sS'DAPE'
p3730
I1
sS'PLAA'
p3731
I1
sS'VFQH'
p3732
I2
sS'PLAG'
p3733
I2
sS'PLAF'
p3734
I1
sS'MTAR'
p3735
I5
sS'DAPD'
p3736
I3
sS'LDVE'
p3737
I1
sS'KGRA'
p3738
I2
sS'EENR'
p3739
I3
sS'GALE'
p3740
I1
sS'AARP'
p3741
I3
sS'AARQ'
p3742
I3
sS'QYGE'
p3743
I1
sS'SELA'
p3744
I2
sS'AARV'
p3745
I11
sS'SELQ'
p3746
I1
sS'LDVW'
p3747
I11
sS'RQWQ'
p3748
I2
sS'AARL'
p3749
I1
sS'AARM'
p3750
I2
sS'YTLD'
p3751
I1
sS'SELT'
p3752
I4
sS'AARA'
p3753
I2
sS'RIKI'
p3754
I3
sS'AARD'
p3755
I2
sS'AARE'
p3756
I5
sS'QYGQ'
p3757
I3
sS'AARG'
p3758
I2
s.