(dp1
S'QEGL'
p2
I2
sS'VFMF'
p3
I2
sS'SSPL'
p4
I1
sS'GVML'
p5
I1
sS'SLDP'
p6
I2
sS'DDPV'
p7
I7
sS'LIFL'
p8
I6
sS'LIFI'
p9
I1
sS'SSPA'
p10
I1
sS'LIFV'
p11
I3
sS'LPAA'
p12
I1
sS'EDQG'
p13
I1
sS'QEIQ'
p14
I1
sS'IGKL'
p15
I1
sS'ATYF'
p16
I2
sS'EPEH'
p17
I2
sS'SSPT'
p18
I1
sS'ERIE'
p19
I1
sS'NAYR'
p20
I1
sS'YQKT'
p21
I1
sS'LASR'
p22
I4
sS'LASS'
p23
I2
sS'MINF'
p24
I1
sS'GSCR'
p25
I4
sS'LASW'
p26
I4
sS'PHMA'
p27
I5
sS'MVRA'
p28
I3
sS'MEGH'
p29
I2
sS'IVYL'
p30
I1
sS'LASC'
p31
I1
sS'LASE'
p32
I4
sS'MEGQ'
p33
I2
sS'LASL'
p34
I1
sS'LPAY'
p35
I1
sS'LASN'
p36
I2
sS'PLHP'
p37
I1
sS'CKQA'
p38
I1
sS'SAKM'
p39
I1
sS'KGTP'
p40
I2
sS'TYDA'
p41
I7
sS'AGLA'
p42
I1
sS'NYYL'
p43
I6
sS'HANA'
p44
I1
sS'ESPE'
p45
I1
sS'DDNV'
p46
I1
sS'NMNV'
p47
I1
sS'CKQT'
p48
I2
sS'GKLP'
p49
I1
sS'ENDI'
p50
I1
sS'HANQ'
p51
I1
sS'MSAH'
p52
I4
sS'KADH'
p53
I2
sS'SICF'
p54
I1
sS'ASSH'
p55
I2
sS'INYP'
p56
I1
sS'HDFY'
p57
I2
sS'ACLL'
p58
I1
sS'PHHL'
p59
I2
sS'ERIM'
p60
I1
sS'KSDG'
p61
I1
sS'VLRV'
p62
I1
sS'NHCP'
p63
I1
sS'WWKN'
p64
I5
sS'SRFC'
p65
I1
sS'VENT'
p66
I4
sS'FFRL'
p67
I2
sS'VENV'
p68
I1
sS'MLGR'
p69
I1
sS'ISDF'
p70
I1
sS'VVNV'
p71
I1
sS'VYRE'
p72
I2
sS'GQEV'
p73
I2
sS'GQET'
p74
I1
sS'HRVP'
p75
I1
sS'HRVQ'
p76
I2
sS'FMFD'
p77
I4
sS'GITP'
p78
I1
sS'LAAV'
p79
I2
sS'HRVE'
p80
I6
sS'EAES'
p81
I2
sS'RVQL'
p82
I2
sS'HRVA'
p83
I1
sS'MLGI'
p84
I1
sS'WLPE'
p85
I4
sS'LLCV'
p86
I2
sS'GCPV'
p87
I1
sS'EEPP'
p88
I1
sS'LEYL'
p89
I1
sS'HPVI'
p90
I2
sS'PIAR'
p91
I1
sS'VNFI'
p92
I1
sS'ADYL'
p93
I2
sS'LEYG'
p94
I1
sS'KVQF'
p95
I8
sS'IPWQ'
p96
I4
sS'DQGL'
p97
I7
sS'DQGM'
p98
I1
sS'VQGD'
p99
I1
sS'VNFY'
p100
I1
sS'LLCK'
p101
I1
sS'PPNN'
p102
I1
sS'GMRK'
p103
I1
sS'DSEN'
p104
I1
sS'TGMK'
p105
I1
sS'QNLC'
p106
I1
sS'PKCT'
p107
I1
sS'QLGK'
p108
I1
sS'DSEG'
p109
I1
sS'DSEA'
p110
I4
sS'NAKT'
p111
I1
sS'EIRK'
p112
I1
sS'SYSG'
p113
I2
sS'NIDM'
p114
I1
sS'RRIK'
p115
I2
sS'FQVI'
p116
I1
sS'NQPD'
p117
I1
sS'RLLF'
p118
I1
sS'KVCP'
p119
I1
sS'RRIL'
p120
I1
sS'SLRH'
p121
I1
sS'SLRL'
p122
I1
sS'IIME'
p123
I4
sS'QHNL'
p124
I1
sS'ERGM'
p125
I7
sS'RRIV'
p126
I2
sS'SYPV'
p127
I1
sS'GWGD'
p128
I8
sS'TDFA'
p129
I3
sS'GHRL'
p130
I5
sS'HIDA'
p131
I4
sS'RQIE'
p132
I1
sS'FKTK'
p133
I3
sS'LWCY'
p134
I5
sS'RAVI'
p135
I2
sS'GHRV'
p136
I1
sS'FGLC'
p137
I1
sS'AFIS'
p138
I1
sS'WFFL'
p139
I8
sS'HGMR'
p140
I1
sS'LFYP'
p141
I4
sS'DIDK'
p142
I2
sS'TASG'
p143
I2
sS'HQHM'
p144
I2
sS'PGGS'
p145
I1
sS'HGMG'
p146
I1
sS'YLLD'
p147
I4
sS'QVIA'
p148
I1
sS'PSSS'
p149
I5
sS'ARTK'
p150
I1
sS'PNDE'
p151
I1
sS'LQIL'
p152
I1
sS'TASV'
p153
I1
sS'VTGP'
p154
I2
sS'TAEP'
p155
I2
sS'EYCA'
p156
I1
sS'QSMK'
p157
I1
sS'GLTT'
p158
I1
sS'FGKS'
p159
I2
sS'PITA'
p160
I1
sS'AKGK'
p161
I1
sS'EYCT'
p162
I1
sS'IAGI'
p163
I4
sS'IEHK'
p164
I1
sS'SGEN'
p165
I2
sS'YELS'
p166
I5
sS'HHMR'
p167
I1
sS'NTAQ'
p168
I1
sS'IDMS'
p169
I2
sS'PYSP'
p170
I1
sS'YKSP'
p171
I6
sS'LQKH'
p172
I4
sS'SVPE'
p173
I1
sS'SDGG'
p174
I1
sS'EAKS'
p175
I7
sS'LNIL'
p176
I1
sS'IDML'
p177
I1
sS'QPSS'
p178
I5
sS'TGIP'
p179
I5
sS'RMVL'
p180
I1
sS'PDID'
p181
I2
sS'EHQH'
p182
I2
sS'PSEA'
p183
I1
sS'PSED'
p184
I1
sS'PSEE'
p185
I1
sS'PEEM'
p186
I1
sS'SGIT'
p187
I1
sS'MVLR'
p188
I1
sS'SGIQ'
p189
I1
sS'PEEG'
p190
I1
sS'PEED'
p191
I5
sS'PSER'
p192
I7
sS'PSES'
p193
I1
sS'LRVL'
p194
I2
sS'MVLL'
p195
I1
sS'SGIK'
p196
I6
sS'LIYF'
p197
I1
sS'PEEP'
p198
I1
sS'LRVE'
p199
I1
sS'DFAF'
p200
I3
sS'TGVA'
p201
I9
sS'VPMP'
p202
I4
sS'KGSA'
p203
I1
sS'PTSQ'
p204
I1
sS'AASP'
p205
I1
sS'NVQG'
p206
I1
sS'RSFR'
p207
I6
sS'CDQH'
p208
I1
sS'AGLL'
p209
I2
sS'AASH'
p210
I1
sS'HHQS'
p211
I1
sS'TEIW'
p212
I1
sS'RDFL'
p213
I2
sS'FPLE'
p214
I4
sS'AASG'
p215
I2
sS'ELYK'
p216
I6
sS'AGQS'
p217
I2
sS'FPGF'
p218
I7
sS'SMVY'
p219
I1
sS'QPED'
p220
I2
sS'QPEE'
p221
I6
sS'AGQT'
p222
I1
sS'DMTK'
p223
I1
sS'EEAR'
p224
I1
sS'FILF'
p225
I4
sS'KDSE'
p226
I1
sS'EEAK'
p227
I7
sS'NVGI'
p228
I2
sS'AEET'
p229
I2
sS'LQYN'
p230
I2
sS'IMEK'
p231
I4
sS'AGLK'
p232
I1
sS'AQHE'
p233
I3
sS'TKSA'
p234
I2
sS'YRDA'
p235
I2
sS'TKSL'
p236
I1
sS'YGLW'
p237
I1
sS'IKQK'
p238
I1
sS'CALV'
p239
I1
sS'SKFF'
p240
I1
sS'VHRS'
p241
I4
sS'IKQR'
p242
I1
sS'NDYM'
p243
I1
sS'TVLG'
p244
I4
sS'AAAP'
p245
I1
sS'AAAS'
p246
I1
sS'AAAT'
p247
I3
sS'ELKI'
p248
I1
sS'AGMK'
p249
I5
sS'TLIA'
p250
I1
sS'AAAA'
p251
I6
sS'EGQN'
p252
I1
sS'AAAE'
p253
I1
sS'AAAG'
p254
I2
sS'EGQE'
p255
I3
sS'AAAL'
p256
I5
sS'GIIL'
p257
I2
sS'DGEH'
p258
I2
sS'LLPL'
p259
I4
sS'DMSR'
p260
I2
sS'ASTL'
p261
I4
sS'GAAT'
p262
I1
sS'MGVN'
p263
I2
sS'DTCL'
p264
I1
sS'VLSD'
p265
I1
sS'KSEP'
p266
I5
sS'KAEE'
p267
I1
sS'CSIL'
p268
I1
sS'ILQD'
p269
I2
sS'YALA'
p270
I2
sS'GAAE'
p271
I1
sS'CVGC'
p272
I2
sS'DGEP'
p273
I1
sS'VLSV'
p274
I1
sS'KSEG'
p275
I4
sS'WSMR'
p276
I1
sS'VLSS'
p277
I8
sS'GNLN'
p278
I1
sS'WQDS'
p279
I2
sS'DGSS'
p280
I1
sS'IDVS'
p281
I1
sS'DAKG'
p282
I1
sS'GRRY'
p283
I1
sS'SKTK'
p284
I1
sS'GEPS'
p285
I1
sS'KSHS'
p286
I3
sS'LKGK'
p287
I1
sS'GRRC'
p288
I1
sS'HTIP'
p289
I2
sS'LKGN'
p290
I1
sS'TKES'
p291
I1
sS'FLPL'
p292
I1
sS'NPER'
p293
I2
sS'GRRH'
p294
I1
sS'GRRK'
p295
I5
sS'HIGC'
p296
I2
sS'RWVG'
p297
I2
sS'LKGG'
p298
I1
sS'VLRI'
p299
I1
sS'CGPL'
p300
I1
sS'GFSS'
p301
I1
sS'SDFY'
p302
I1
sS'TNES'
p303
I1
sS'LRDY'
p304
I1
sS'LRDF'
p305
I1
sS'LRDG'
p306
I1
sS'ILIR'
p307
I1
sS'RCEY'
p308
I1
sS'MTRP'
p309
I4
sS'MTRS'
p310
I1
sS'ILIW'
p311
I1
sS'LIWL'
p312
I1
sS'PQGS'
p313
I1
sS'RLQG'
p314
I2
sS'IVLE'
p315
I1
sS'TTSG'
p316
I1
sS'EISD'
p317
I1
sS'TPSE'
p318
I5
sS'EQPL'
p319
I4
sS'WSCA'
p320
I1
sS'IVLD'
p321
I1
sS'QLIP'
p322
I5
sS'NEAL'
p323
I1
sS'DSDC'
p324
I1
sS'VGLL'
p325
I2
sS'CGGL'
p326
I1
sS'TPSQ'
p327
I4
sS'DQHH'
p328
I1
sS'HRIS'
p329
I3
sS'ADNA'
p330
I2
sS'HPEE'
p331
I1
sS'GQTV'
p332
I1
sS'RDPL'
p333
I1
sS'DESY'
p334
I2
sS'LMLQ'
p335
I1
sS'LPLW'
p336
I5
sS'EPVA'
p337
I3
sS'RNAY'
p338
I1
sS'SLQG'
p339
I1
sS'DWIK'
p340
I7
sS'RICL'
p341
I1
sS'GEKE'
p342
I4
sS'EPVT'
p343
I2
sS'NQSV'
p344
I2
sS'EPVP'
p345
I1
sS'TCFC'
p346
I1
sS'SLQT'
p347
I1
sS'LPLI'
p348
I5
sS'QNMT'
p349
I2
sS'AVGS'
p350
I1
sS'IQIA'
p351
I1
sS'KDCC'
p352
I1
sS'FNVF'
p353
I2
sS'LIEG'
p354
I1
sS'GVLL'
p355
I1
sS'LMLV'
p356
I5
sS'SSQD'
p357
I1
sS'DDRT'
p358
I1
sS'GKSK'
p359
I2
sS'SLCG'
p360
I1
sS'PHPH'
p361
I1
sS'GKSE'
p362
I9
sS'GKSD'
p363
I1
sS'RIEL'
p364
I1
sS'DNAA'
p365
I1
sS'VTIG'
p366
I6
sS'HYLS'
p367
I2
sS'LMGV'
p368
I1
sS'RVLQ'
p369
I1
sS'RKIV'
p370
I1
sS'GTHL'
p371
I2
sS'GTHN'
p372
I5
sS'VTII'
p373
I5
sS'RKIS'
p374
I3
sS'MGHR'
p375
I1
sS'MGHS'
p376
I4
sS'RKIL'
p377
I5
sS'RKIK'
p378
I1
sS'LARE'
p379
I2
sS'LYSA'
p380
I1
sS'ITTS'
p381
I1
sS'LIAK'
p382
I1
sS'SAAA'
p383
I7
sS'RKIA'
p384
I1
sS'KKLP'
p385
I1
sS'IGPK'
p386
I1
sS'DYNQ'
p387
I1
sS'DWFF'
p388
I8
sS'WIPR'
p389
I4
sS'KKLY'
p390
I4
sS'WVLW'
p391
I1
sS'WKDA'
p392
I1
sS'WIPH'
p393
I1
sS'DNAI'
p394
I2
sS'AIDY'
p395
I2
sS'VKSH'
p396
I1
sS'ISYR'
p397
I1
sS'IGPS'
p398
I3
sS'PGTK'
p399
I1
sS'WIPF'
p400
I2
sS'AREE'
p401
I1
sS'NTFT'
p402
I1
sS'LGNT'
p403
I1
sS'KGLW'
p404
I1
sS'IPHT'
p405
I1
sS'SFTS'
p406
I1
sS'IPHR'
p407
I1
sS'ECLR'
p408
I1
sS'AIEH'
p409
I1
sS'KPVI'
p410
I1
sS'YKTI'
p411
I1
sS'QMEK'
p412
I1
sS'AREP'
p413
I2
sS'IPHE'
p414
I5
sS'APHH'
p415
I2
sS'IDLK'
p416
I8
sS'KGLC'
p417
I1
sS'SFTA'
p418
I1
sS'DAEW'
p419
I1
sS'GSVH'
p420
I2
sS'RKGV'
p421
I1
sS'ICVY'
p422
I1
sS'EAEE'
p423
I1
sS'FVTG'
p424
I3
sS'YTGD'
p425
I4
sS'YTGE'
p426
I1
sS'VKMV'
p427
I1
sS'ITFT'
p428
I2
sS'IVVC'
p429
I2
sS'KMSV'
p430
I1
sS'RKGL'
p431
I2
sS'FFSS'
p432
I2
sS'IVVL'
p433
I1
sS'FFST'
p434
I1
sS'DEKM'
p435
I1
sS'DSVG'
p436
I7
sS'RLRK'
p437
I5
sS'IPVI'
p438
I1
sS'CPGI'
p439
I5
sS'VQFR'
p440
I1
sS'QWNN'
p441
I2
sS'PHRQ'
p442
I1
sS'GHCV'
p443
I2
sS'LRAP'
p444
I1
sS'VQFI'
p445
I4
sS'QWNS'
p446
I1
sS'LNHT'
p447
I7
sS'LLDD'
p448
I5
sS'PPAR'
p449
I1
sS'SPAR'
p450
I1
sS'VYRY'
p451
I1
sS'TFHL'
p452
I4
sS'TSQE'
p453
I2
sS'KEGE'
p454
I2
sS'LTPG'
p455
I2
sS'KRNE'
p456
I1
sS'FPDG'
p457
I4
sS'KHIS'
p458
I5
sS'STMR'
p459
I1
sS'PHRV'
p460
I1
sS'QPDN'
p461
I1
sS'SVIY'
p462
I7
sS'FPDQ'
p463
I2
sS'RVEE'
p464
I1
sS'WGLC'
p465
I2
sS'CLGD'
p466
I1
sS'PEHE'
p467
I2
sS'ALCR'
p468
I2
sS'NFYL'
p469
I3
sS'AFVT'
p470
I3
sS'LWTF'
p471
I1
sS'SDVN'
p472
I2
sS'MRKR'
p473
I8
sS'YEIA'
p474
I1
sS'TKRL'
p475
I5
sS'DNFQ'
p476
I1
sS'AAKV'
p477
I1
sS'SKGM'
p478
I1
sS'LAAQ'
p479
I1
sS'AAVE'
p480
I1
sS'HKDL'
p481
I1
sS'HLDL'
p482
I4
sS'VASI'
p483
I1
sS'MMKQ'
p484
I5
sS'NMSA'
p485
I4
sS'TSEQ'
p486
I1
sS'WMFP'
p487
I4
sS'FIKE'
p488
I4
sS'RAII'
p489
I1
sS'WLPF'
p490
I2
sS'FRVS'
p491
I1
sS'LENT'
p492
I2
sS'KYQK'
p493
I1
sS'QCRM'
p494
I4
sS'DLEW'
p495
I1
sS'QGTA'
p496
I1
sS'FIKT'
p497
I2
sS'HGLW'
p498
I1
sS'PGFL'
p499
I1
sS'GLYQ'
p500
I1
sS'GLYV'
p501
I1
sS'LPVN'
p502
I2
sS'PSRS'
p503
I3
sS'PGFD'
p504
I8
sS'AIRL'
p505
I1
sS'SSIA'
p506
I2
sS'HGLG'
p507
I3
sS'FIPT'
p508
I2
sS'CFRL'
p509
I1
sS'GLYI'
p510
I4
sS'PGFQ'
p511
I1
sS'GLYL'
p512
I2
sS'GLYM'
p513
I1
sS'QIAL'
p514
I1
sS'MRYP'
p515
I1
sS'AAPA'
p516
I4
sS'RCAV'
p517
I2
sS'RFGR'
p518
I1
sS'AAPS'
p519
I3
sS'PQLP'
p520
I1
sS'HKVQ'
p521
I1
sS'KQAP'
p522
I1
sS'MRYL'
p523
I5
sS'VFVY'
p524
I1
sS'RCAA'
p525
I7
sS'DFLR'
p526
I1
sS'INIG'
p527
I1
sS'ILHA'
p528
I8
sS'LIVT'
p529
I3
sS'ILHG'
p530
I3
sS'GPAD'
p531
I2
sS'GPAE'
p532
I1
sS'PERN'
p533
I4
sS'FLQK'
p534
I4
sS'GPAA'
p535
I2
sS'VYKG'
p536
I1
sS'PERQ'
p537
I2
sS'DFLA'
p538
I1
sS'DFLG'
p539
I1
sS'LIVA'
p540
I1
sS'LREF'
p541
I6
sS'NQNA'
p542
I1
sS'HWVL'
p543
I1
sS'VVTF'
p544
I7
sS'TGNL'
p545
I2
sS'EHPI'
p546
I1
sS'PEDQ'
p547
I1
sS'SIGG'
p548
I3
sS'EGLY'
p549
I4
sS'QAVL'
p550
I1
sS'SNVT'
p551
I4
sS'DMIP'
p552
I1
sS'FNKR'
p553
I2
sS'RVAI'
p554
I4
sS'KRPQ'
p555
I3
sS'TQGT'
p556
I1
sS'PEDD'
p557
I2
sS'KRPL'
p558
I1
sS'SIGV'
p559
I1
sS'PEDM'
p560
I1
sS'RDFY'
p561
I2
sS'KRPE'
p562
I1
sS'GPSL'
p563
I4
sS'RDGS'
p564
I1
sS'KEDY'
p565
I4
sS'LYAL'
p566
I2
sS'GDHR'
p567
I8
sS'RQQE'
p568
I1
sS'ANAG'
p569
I1
sS'NYIA'
p570
I2
sS'INFF'
p571
I2
sS'RDGN'
p572
I1
sS'SENQ'
p573
I1
sS'MEYE'
p574
I1
sS'ANAK'
p575
I1
sS'NAGE'
p576
I1
sS'LIDM'
p577
I1
sS'SSNV'
p578
I3
sS'DDRY'
p579
I2
sS'SSNS'
p580
I1
sS'YCAG'
p581
I1
sS'CSLK'
p582
I2
sS'GKPV'
p583
I1
sS'IQFA'
p584
I1
sS'CSLL'
p585
I2
sS'FSSY'
p586
I1
sS'CSLR'
p587
I1
sS'FHGN'
p588
I5
sS'VRNP'
p589
I3
sS'EPGR'
p590
I1
sS'ISFD'
p591
I1
sS'LMII'
p592
I1
sS'RRYG'
p593
I1
sS'KSRM'
p594
I1
sS'GIDV'
p595
I1
sS'TILY'
p596
I1
sS'VRVP'
p597
I7
sS'PTPA'
p598
I2
sS'TLQH'
p599
I2
sS'DSEK'
p600
I2
sS'RYTG'
p601
I5
sS'FDWI'
p602
I7
sS'FSSG'
p603
I1
sS'AWSW'
p604
I1
sS'GSAK'
p605
I1
sS'GSAE'
p606
I1
sS'GSAD'
p607
I1
sS'VRVL'
p608
I3
sS'GSAA'
p609
I5
sS'FDWF'
p610
I8
sS'GDPS'
p611
I1
sS'HCPE'
p612
I1
sS'GFRA'
p613
I1
sS'VILD'
p614
I2
sS'VRDP'
p615
I1
sS'YFID'
p616
I8
sS'AGNI'
p617
I5
sS'VILL'
p618
I1
sS'GFRW'
p619
I1
sS'GFRV'
p620
I1
sS'AGNW'
p621
I1
sS'YSSL'
p622
I1
sS'VILY'
p623
I3
sS'YSSI'
p624
I2
sS'VRDF'
p625
I1
sS'PVIP'
p626
I1
sS'DGDH'
p627
I2
sS'VLPM'
p628
I1
sS'HTDL'
p629
I1
sS'SCRL'
p630
I4
sS'QWSS'
p631
I1
sS'DTDP'
p632
I1
sS'QWSM'
p633
I1
sS'AATL'
p634
I1
sS'NHAI'
p635
I1
sS'ALLM'
p636
I5
sS'FFIN'
p637
I4
sS'VEHR'
p638
I1
sS'VKLC'
p639
I3
sS'RVSY'
p640
I1
sS'MLIY'
p641
I1
sS'RTKD'
p642
I3
sS'ELWL'
p643
I1
sS'GIVL'
p644
I1
sS'DHDS'
p645
I1
sS'FFLD'
p646
I8
sS'RTKR'
p647
I5
sS'ITAS'
p648
I1
sS'GIVV'
p649
I1
sS'VEHE'
p650
I1
sS'RVSE'
p651
I2
sS'FPYG'
p652
I1
sS'FPYF'
p653
I1
sS'SIAG'
p654
I4
sS'EPER'
p655
I2
sS'ECSI'
p656
I1
sS'MGLG'
p657
I1
sS'RMFL'
p658
I1
sS'MDAL'
p659
I1
sS'VNQS'
p660
I2
sS'KYSG'
p661
I1
sS'HPHG'
p662
I1
sS'DSQT'
p663
I1
sS'VDAI'
p664
I1
sS'WERI'
p665
I1
sS'PYCP'
p666
I1
sS'KYSH'
p667
I1
sS'EEMA'
p668
I2
sS'KSPT'
p669
I1
sS'GMTS'
p670
I1
sS'FLIK'
p671
I3
sS'KSPQ'
p672
I1
sS'MLWN'
p673
I1
sS'GMTY'
p674
I7
sS'IQTQ'
p675
I1
sS'VLFL'
p676
I1
sS'HPFS'
p677
I8
sS'LSIP'
p678
I5
sS'REQM'
p679
I2
sS'MLWT'
p680
I1
sS'KSPE'
p681
I5
sS'VNVF'
p682
I1
sS'MLWS'
p683
I1
sS'LDYV'
p684
I5
sS'CGDV'
p685
I2
sS'EKDE'
p686
I1
sS'IQTA'
p687
I2
sS'PKEF'
p688
I1
sS'RRKS'
p689
I2
sS'YGGV'
p690
I1
sS'QNLQ'
p691
I1
sS'LPMR'
p692
I1
sS'ERET'
p693
I7
sS'QNLR'
p694
I4
sS'FTAT'
p695
I1
sS'FQLG'
p696
I4
sS'SLRD'
p697
I1
sS'APFT'
p698
I1
sS'FTAL'
p699
I4
sS'YSAL'
p700
I1
sS'APFL'
p701
I1
sS'RRKG'
p702
I3
sS'GELI'
p703
I1
sS'EYSM'
p704
I1
sS'IGGA'
p705
I3
sS'NKRW'
p706
I3
sS'PISG'
p707
I2
sS'HEQS'
p708
I3
sS'IKAR'
p709
I6
sS'YNSV'
p710
I1
sS'DQSA'
p711
I2
sS'TVVN'
p712
I1
sS'YPHD'
p713
I1
sS'FKAK'
p714
I1
sS'SDGE'
p715
I1
sS'RAPH'
p716
I1
sS'SYRG'
p717
I1
sS'FRWW'
p718
I1
sS'RAPL'
p719
I1
sS'SYRK'
p720
I4
sS'SYRH'
p721
I1
sS'LVLL'
p722
I2
sS'TSDA'
p723
I1
sS'GWER'
p724
I1
sS'NVFM'
p725
I2
sS'AISA'
p726
I1
sS'YSAD'
p727
I2
sS'QSAA'
p728
I2
sS'ADFL'
p729
I1
sS'LMKK'
p730
I4
sS'SGLT'
p731
I1
sS'KGCP'
p732
I1
sS'HLYG'
p733
I4
sS'QSAI'
p734
I2
sS'TAQG'
p735
I1
sS'NQPT'
p736
I1
sS'AKKK'
p737
I1
sS'EVIK'
p738
I2
sS'PGAP'
p739
I2
sS'QHTR'
p740
I2
sS'TIIY'
p741
I4
sS'FPEG'
p742
I1
sS'QGKD'
p743
I6
sS'APHP'
p744
I1
sS'RGSL'
p745
I2
sS'AVTL'
p746
I1
sS'RDNS'
p747
I1
sS'IGQG'
p748
I1
sS'APHY'
p749
I2
sS'TDEL'
p750
I1
sS'DYMF'
p751
I1
sS'QAKD'
p752
I1
sS'GNID'
p753
I1
sS'MLLY'
p754
I1
sS'QAKL'
p755
I7
sS'IYRY'
p756
I7
sS'DPSS'
p757
I1
sS'ALPV'
p758
I3
sS'RVEL'
p759
I6
sS'NIPG'
p760
I1
sS'VSPI'
p761
I4
sS'LGAV'
p762
I2
sS'IYRS'
p763
I2
sS'KIAA'
p764
I1
sS'KGMK'
p765
I1
sS'YKFQ'
p766
I4
sS'DSLI'
p767
I1
sS'IYRN'
p768
I1
sS'YCVG'
p769
I1
sS'NKRC'
p770
I1
sS'TGKP'
p771
I1
sS'RVEP'
p772
I1
sS'GLNH'
p773
I7
sS'CANM'
p774
I2
sS'DLDK'
p775
I3
sS'RKRT'
p776
I5
sS'TQFR'
p777
I1
sS'ILYF'
p778
I1
sS'ILYK'
p779
I4
sS'ILYL'
p780
I8
sS'DRSA'
p781
I1
sS'PLLL'
p782
I2
sS'PLLI'
p783
I6
sS'PLLK'
p784
I1
sS'KEEW'
p785
I1
sS'AEYL'
p786
I2
sS'LRTL'
p787
I1
sS'SEKC'
p788
I1
sS'VNKD'
p789
I1
sS'LRTV'
p790
I1
sS'VVKS'
p791
I1
sS'TDVM'
p792
I2
sS'LRTR'
p793
I1
sS'IDYV'
p794
I2
sS'GFCR'
p795
I1
sS'PVIL'
p796
I3
sS'VPKI'
p797
I2
sS'PVIN'
p798
I1
sS'PVII'
p799
I1
sS'LPFL'
p800
I1
sS'KRAL'
p801
I5
sS'NKRV'
p802
I2
sS'LTQE'
p803
I2
sS'ILLP'
p804
I1
sS'KGCS'
p805
I1
sS'YVRN'
p806
I1
sS'DPIT'
p807
I7
sS'KRAE'
p808
I1
sS'AGSS'
p809
I2
sS'VETV'
p810
I1
sS'VGHC'
p811
I2
sS'SRPT'
p812
I1
sS'KISQ'
p813
I3
sS'AGSL'
p814
I1
sS'GYHV'
p815
I8
sS'TIIM'
p816
I5
sS'SVHR'
p817
I2
sS'FPEQ'
p818
I3
sS'AYRN'
p819
I1
sS'LLYF'
p820
I6
sS'STLF'
p821
I4
sS'IKSH'
p822
I2
sS'VSYS'
p823
I1
sS'HKGT'
p824
I1
sS'GLGG'
p825
I2
sS'VCPS'
p826
I1
sS'RLIL'
p827
I2
sS'IPLL'
p828
I2
sS'TIAS'
p829
I1
sS'FHVL'
p830
I1
sS'LDKG'
p831
I1
sS'LFIL'
p832
I4
sS'KPQD'
p833
I4
sS'LSTM'
p834
I1
sS'YFHA'
p835
I1
sS'MNHT'
p836
I1
sS'TVKV'
p837
I1
sS'YFHG'
p838
I5
sS'VPYF'
p839
I7
sS'LDKT'
p840
I3
sS'TLKG'
p841
I4
sS'DVIG'
p842
I1
sS'PAIQ'
p843
I2
sS'ENIF'
p844
I4
sS'FHVR'
p845
I3
sS'GIKF'
p846
I6
sS'HTEF'
p847
I1
sS'ASVT'
p848
I1
sS'ASVS'
p849
I4
sS'WSSQ'
p850
I1
sS'KLIF'
p851
I5
sS'DAGM'
p852
I5
sS'DGGF'
p853
I1
sS'WSSF'
p854
I1
sS'FYVR'
p855
I1
sS'EGSP'
p856
I1
sS'INVF'
p857
I1
sS'INVE'
p858
I2
sS'VLQN'
p859
I1
sS'VLQI'
p860
I1
sS'YRHK'
p861
I8
sS'VGCA'
p862
I2
sS'RSDL'
p863
I1
sS'DAIC'
p864
I1
sS'WFIP'
p865
I4
sS'FQAL'
p866
I1
sS'AAQS'
p867
I1
sS'RSDV'
p868
I2
sS'WNSF'
p869
I1
sS'DAIV'
p870
I1
sS'ASDA'
p871
I2
sS'GCAN'
p872
I2
sS'YRHV'
p873
I1
sS'ASDE'
p874
I1
sS'VSEC'
p875
I2
sS'FLVD'
p876
I1
sS'PSSL'
p877
I1
sS'FCVL'
p878
I2
sS'MASL'
p879
I1
sS'FLVK'
p880
I4
sS'LKAN'
p881
I1
sS'NHPI'
p882
I1
sS'SSAI'
p883
I1
sS'FCVY'
p884
I2
sS'FYSA'
p885
I1
sS'FNFF'
p886
I1
sS'PSIQ'
p887
I1
sS'ETSE'
p888
I1
sS'KDSG'
p889
I2
sS'FSMV'
p890
I1
sS'RPLG'
p891
I1
sS'LFCV'
p892
I2
sS'PEQP'
p893
I3
sS'NLAL'
p894
I1
sS'DSFT'
p895
I1
sS'HDSS'
p896
I1
sS'WSRL'
p897
I1
sS'LSHG'
p898
I2
sS'VLGF'
p899
I2
sS'PFLI'
p900
I3
sS'QMIR'
p901
I1
sS'CEQP'
p902
I2
sS'PFLC'
p903
I1
sS'VLGL'
p904
I3
sS'VLGS'
p905
I2
sS'PRMV'
p906
I1
sS'REPK'
p907
I2
sS'HDSD'
p908
I1
sS'ADHD'
p909
I1
sS'PFLV'
p910
I5
sS'EKEF'
p911
I4
sS'PPQM'
p912
I1
sS'LIAL'
p913
I2
sS'WWDM'
p914
I1
sS'AVEH'
p915
I1
sS'YQDA'
p916
I1
sS'EPPG'
p917
I1
sS'VAVM'
p918
I4
sS'RLKL'
p919
I1
sS'KVLS'
p920
I9
sS'ATTY'
p921
I1
sS'NALL'
p922
I5
sS'LPNA'
p923
I4
sS'GGAT'
p924
I4
sS'ISIA'
p925
I1
sS'NFFK'
p926
I1
sS'EDDR'
p927
I1
sS'RLKQ'
p928
I3
sS'LPNI'
p929
I1
sS'EDDV'
p930
I2
sS'EDDT'
p931
I1
sS'GVNQ'
p932
I2
sS'CSML'
p933
I1
sS'ATIA'
p934
I2
sS'SLAV'
p935
I1
sS'ISGP'
p936
I2
sS'ILEN'
p937
I1
sS'KDAE'
p938
I1
sS'CQAS'
p939
I1
sS'IQGA'
p940
I2
sS'QHSE'
p941
I2
sS'FYIA'
p942
I2
sS'EEGE'
p943
I2
sS'ISGL'
p944
I5
sS'ILES'
p945
I8
sS'KQKL'
p946
I1
sS'KQKI'
p947
I2
sS'CQAA'
p948
I1
sS'KDAQ'
p949
I1
sS'VIAD'
p950
I1
sS'NRVA'
p951
I1
sS'PTII'
p952
I4
sS'IPTA'
p953
I2
sS'ITVR'
p954
I1
sS'KVRI'
p955
I1
sS'NSSF'
p956
I1
sS'LCLA'
p957
I1
sS'VYEW'
p958
I1
sS'SQAG'
p959
I2
sS'KVRS'
p960
I1
sS'AVAT'
p961
I2
sS'DRNI'
p962
I2
sS'PSST'
p963
I2
sS'CTGL'
p964
I1
sS'ITVL'
p965
I2
sS'RIGP'
p966
I1
sS'GSFF'
p967
I2
sS'MFLI'
p968
I1
sS'QGDN'
p969
I1
sS'FTAK'
p970
I4
sS'PIFF'
p971
I1
sS'AIIS'
p972
I1
sS'GYGK'
p973
I6
sS'DYLQ'
p974
I2
sS'SPIP'
p975
I4
sS'GFYI'
p976
I2
sS'PGVM'
p977
I1
sS'QTDF'
p978
I3
sS'EMGR'
p979
I1
sS'GNMG'
p980
I1
sS'TDFV'
p981
I1
sS'LGDG'
p982
I1
sS'CIYL'
p983
I2
sS'DGLY'
p984
I1
sS'QGDR'
p985
I1
sS'ERRT'
p986
I1
sS'RDRS'
p987
I1
sS'RKSL'
p988
I2
sS'EANA'
p989
I1
sS'LALA'
p990
I5
sS'ALSS'
p991
I1
sS'RVFY'
p992
I1
sS'VEEG'
p993
I1
sS'LALT'
p994
I2
sS'LNTA'
p995
I1
sS'QPTN'
p996
I1
sS'FMMK'
p997
I1
sS'LVNL'
p998
I5
sS'IATI'
p999
I2
sS'GIWH'
p1000
I1
sS'TLDY'
p1001
I1
sS'NVEK'
p1002
I2
sS'VSFP'
p1003
I1
sS'FVVA'
p1004
I6
sS'FVER'
p1005
I2
sS'LTNL'
p1006
I1
sS'GQNL'
p1007
I1
sS'DNKV'
p1008
I2
sS'EVTA'
p1009
I2
sS'PLWI'
p1010
I4
sS'IVTF'
p1011
I3
sS'RGPI'
p1012
I1
sS'SSFI'
p1013
I1
sS'DPTK'
p1014
I1
sS'GGVI'
p1015
I1
sS'IILL'
p1016
I2
sS'EYCV'
p1017
I1
sS'GMGA'
p1018
I1
sS'SAIF'
p1019
I1
sS'IILF'
p1020
I1
sS'IILD'
p1021
I1
sS'CPEA'
p1022
I1
sS'LLFN'
p1023
I4
sS'IILY'
p1024
I5
sS'HPIC'
p1025
I1
sS'SFDY'
p1026
I1
sS'EGSL'
p1027
I2
sS'LLFG'
p1028
I1
sS'LNFV'
p1029
I7
sS'DNIR'
p1030
I1
sS'HPII'
p1031
I3
sS'KPLY'
p1032
I1
sS'AYSP'
p1033
I1
sS'ICLL'
p1034
I1
sS'HENI'
p1035
I4
sS'QRVS'
p1036
I2
sS'GLTN'
p1037
I1
sS'QMIP'
p1038
I4
sS'LILH'
p1039
I11
sS'QRVK'
p1040
I1
sS'YIDS'
p1041
I1
sS'SHSP'
p1042
I2
sS'SHSS'
p1043
I1
sS'AEHR'
p1044
I1
sS'HENV'
p1045
I1
sS'VAGN'
p1046
I1
sS'QILR'
p1047
I1
sS'HVRN'
p1048
I3
sS'IKTK'
p1049
I2
sS'VAGH'
p1050
I1
sS'LILT'
p1051
I2
sS'DKIY'
p1052
I2
sS'ANQM'
p1053
I4
sS'RIVT'
p1054
I2
sS'SYEF'
p1055
I1
sS'NLKA'
p1056
I1
sS'HKFI'
p1057
I1
sS'QILQ'
p1058
I1
sS'YRYF'
p1059
I7
sS'ANQS'
p1060
I1
sS'NLKV'
p1061
I3
sS'VHQR'
p1062
I4
sS'KETQ'
p1063
I1
sS'YRYL'
p1064
I1
sS'ADTG'
p1065
I1
sS'ADTD'
p1066
I1
sS'DLGT'
p1067
I1
sS'MWRE'
p1068
I1
sS'DLGY'
p1069
I7
sS'YKVL'
p1070
I8
sS'CLWG'
p1071
I1
sS'SMGY'
p1072
I1
sS'ISKF'
p1073
I1
sS'MWRL'
p1074
I1
sS'TSGI'
p1075
I1
sS'LQHT'
p1076
I2
sS'YKVQ'
p1077
I2
sS'IFNV'
p1078
I1
sS'LELS'
p1079
I1
sS'SDFL'
p1080
I1
sS'SYSA'
p1081
I2
sS'LDDR'
p1082
I2
sS'YEYC'
p1083
I3
sS'AIPF'
p1084
I7
sS'KTLV'
p1085
I1
sS'ATVV'
p1086
I1
sS'AKLV'
p1087
I2
sS'GVGS'
p1088
I1
sS'AKLI'
p1089
I5
sS'LNMN'
p1090
I1
sS'NPHR'
p1091
I1
sS'AIPV'
p1092
I1
sS'VYPS'
p1093
I1
sS'HGNA'
p1094
I17
sS'SWLV'
p1095
I1
sS'RASY'
p1096
I1
sS'VCIY'
p1097
I2
sS'VAIA'
p1098
I1
sS'SREN'
p1099
I1
sS'SKSL'
p1100
I2
sS'NESV'
p1101
I1
sS'DGTR'
p1102
I2
sS'VAIN'
p1103
I4
sS'VAIH'
p1104
I4
sS'VVLV'
p1105
I1
sS'ASET'
p1106
I1
sS'ASEK'
p1107
I1
sS'NESL'
p1108
I1
sS'DGTH'
p1109
I6
sS'VAIP'
p1110
I1
sS'ASEN'
p1111
I4
sS'RSCV'
p1112
I1
sS'CAQH'
p1113
I3
sS'CHKG'
p1114
I1
sS'ASEE'
p1115
I3
sS'VVLQ'
p1116
I1
sS'PQDQ'
p1117
I7
sS'RGPV'
p1118
I3
sS'SRNV'
p1119
I1
sS'SGRY'
p1120
I2
sS'IRNI'
p1121
I1
sS'LITV'
p1122
I1
sS'YDGT'
p1123
I1
sS'IHGK'
p1124
I2
sS'LRKI'
p1125
I5
sS'PEPP'
p1126
I1
sS'LRKD'
p1127
I1
sS'THLH'
p1128
I2
sS'HWPL'
p1129
I4
sS'GLMW'
p1130
I1
sS'TQEA'
p1131
I1
sS'MAGS'
p1132
I1
sS'LFRQ'
p1133
I1
sS'GDHI'
p1134
I2
sS'HQSR'
p1135
I1
sS'EHRA'
p1136
I1
sS'PNIL'
p1137
I1
sS'PQVH'
p1138
I3
sS'LFRL'
p1139
I2
sS'EHRD'
p1140
I5
sS'ALVL'
p1141
I1
sS'LKVN'
p1142
I3
sS'SIIS'
p1143
I1
sS'KEFY'
p1144
I1
sS'RADV'
p1145
I2
sS'PVFI'
p1146
I1
sS'DCDS'
p1147
I1
sS'QDAE'
p1148
I1
sS'NFIL'
p1149
I1
sS'KEFH'
p1150
I3
sS'LYGG'
p1151
I4
sS'KEFN'
p1152
I1
sS'SGLS'
p1153
I5
sS'QDAS'
p1154
I2
sS'KGVW'
p1155
I1
sS'MTYD'
p1156
I7
sS'VFII'
p1157
I1
sS'SSLQ'
p1158
I1
sS'FNMY'
p1159
I1
sS'GVAT'
p1160
I9
sS'KQLY'
p1161
I5
sS'RGMT'
p1162
I7
sS'VFIF'
p1163
I1
sS'SSLC'
p1164
I1
sS'YPSA'
p1165
I1
sS'ILDS'
p1166
I3
sS'SSLG'
p1167
I8
sS'PEEN'
p1168
I2
sS'IEGI'
p1169
I3
sS'REAQ'
p1170
I1
sS'SSLM'
p1171
I4
sS'YYPD'
p1172
I4
sS'FHEG'
p1173
I1
sS'VCFP'
p1174
I1
sS'YSGM'
p1175
I1
sS'GDVM'
p1176
I2
sS'VTLI'
p1177
I1
sS'NSRG'
p1178
I1
sS'VTLD'
p1179
I1
sS'VTLE'
p1180
I2
sS'TVVP'
p1181
I1
sS'FFYY'
p1182
I2
sS'TVVR'
p1183
I1
sS'DAIS'
p1184
I1
sS'GSGK'
p1185
I1
sS'DDTQ'
p1186
I2
sS'VPTP'
p1187
I1
sS'VPTV'
p1188
I1
sS'PVRQ'
p1189
I1
sS'DDTV'
p1190
I1
sS'SLEE'
p1191
I2
sS'PLEH'
p1192
I2
sS'RNRV'
p1193
I1
sS'SRIV'
p1194
I2
sS'ELLK'
p1195
I1
sS'AALY'
p1196
I1
sS'VPFQ'
p1197
I4
sS'AALR'
p1198
I1
sS'TLLY'
p1199
I1
sS'DPVI'
p1200
I1
sS'AALW'
p1201
I1
sS'DPVV'
p1202
I6
sS'CTHN'
p1203
I1
sS'TLLI'
p1204
I1
sS'AGHS'
p1205
I1
sS'VPFH'
p1206
I7
sS'AALD'
p1207
I5
sS'VINV'
p1208
I1
sS'ASWS'
p1209
I4
sS'LSYS'
p1210
I1
sS'NFIQ'
p1211
I1
sS'MGYH'
p1212
I1
sS'EGTH'
p1213
I1
sS'RHRS'
p1214
I2
sS'EGTP'
p1215
I2
sS'TTDA'
p1216
I1
sS'ENHV'
p1217
I1
sS'VLVD'
p1218
I2
sS'VRFP'
p1219
I1
sS'CGTI'
p1220
I1
sS'QKAE'
p1221
I1
sS'ATVI'
p1222
I2
sS'FYYP'
p1223
I4
sS'RHRA'
p1224
I2
sS'GIPH'
p1225
I5
sS'RIPG'
p1226
I1
sS'LRVN'
p1227
I1
sS'YSIA'
p1228
I2
sS'TRLQ'
p1229
I2
sS'GKLF'
p1230
I1
sS'YIYR'
p1231
I2
sS'GIPE'
p1232
I2
sS'HSLR'
p1233
I1
sS'YIYK'
p1234
I5
sS'RKDK'
p1235
I1
sS'KLRT'
p1236
I1
sS'QWIK'
p1237
I1
sS'PKAR'
p1238
I3
sS'SPFT'
p1239
I8
sS'DSSF'
p1240
I2
sS'PPDA'
p1241
I6
sS'SFGA'
p1242
I1
sS'SFGG'
p1243
I4
sS'LLGV'
p1244
I1
sS'LLGI'
p1245
I1
sS'AAVG'
p1246
I2
sS'IIMA'
p1247
I1
sS'LLGL'
p1248
I2
sS'KVNL'
p1249
I3
sS'SFGR'
p1250
I1
sS'PPDS'
p1251
I1
sS'WGHS'
p1252
I9
sS'DNVK'
p1253
I1
sS'YATI'
p1254
I2
sS'WSFI'
p1255
I1
sS'PFMM'
p1256
I1
sS'SADE'
p1257
I1
sS'SADH'
p1258
I1
sS'VNPQ'
p1259
I2
sS'EKFQ'
p1260
I4
sS'HRDG'
p1261
I1
sS'RTVY'
p1262
I1
sS'AHGN'
p1263
I2
sS'SADR'
p1264
I2
sS'KLFS'
p1265
I1
sS'CPVD'
p1266
I1
sS'EIVP'
p1267
I1
sS'LVLE'
p1268
I2
sS'FGRP'
p1269
I2
sS'VNPE'
p1270
I2
sS'CPVL'
p1271
I1
sS'GGNN'
p1272
I2
sS'CERE'
p1273
I7
sS'DPYE'
p1274
I5
sS'ATAV'
p1275
I1
sS'LPFR'
p1276
I1
sS'RPQD'
p1277
I3
sS'EPSE'
p1278
I1
sS'GENP'
p1279
I1
sS'TVVL'
p1280
I1
sS'SLNG'
p1281
I1
sS'LFLS'
p1282
I1
sS'ERCA'
p1283
I4
sS'EDGL'
p1284
I1
sS'NLYR'
p1285
I2
sS'SPTI'
p1286
I3
sS'PDEN'
p1287
I1
sS'LLIT'
p1288
I1
sS'LESP'
p1289
I8
sS'SPTL'
p1290
I1
sS'WGFC'
p1291
I1
sS'YLME'
p1292
I1
sS'VDFI'
p1293
I1
sS'SPTE'
p1294
I1
sS'VLGA'
p1295
I2
sS'LWGP'
p1296
I1
sS'PSLF'
p1297
I5
sS'IPMP'
p1298
I1
sS'LLIF'
p1299
I4
sS'DNDP'
p1300
I1
sS'SFQS'
p1301
I1
sS'IMVE'
p1302
I4
sS'LWGH'
p1303
I1
sS'EIQI'
p1304
I1
sS'LLIL'
p1305
I8
sS'SDEN'
p1306
I1
sS'VATN'
p1307
I9
sS'LQGS'
p1308
I2
sS'MKKI'
p1309
I4
sS'KKYS'
p1310
I1
sS'QGWF'
p1311
I2
sS'QTQL'
p1312
I1
sS'AIQA'
p1313
I1
sS'RNVY'
p1314
I1
sS'VSIA'
p1315
I3
sS'VSIG'
p1316
I1
sS'KTKV'
p1317
I2
sS'NAIA'
p1318
I2
sS'FKCS'
p1319
I1
sS'KTKI'
p1320
I4
sS'EFKC'
p1321
I1
sS'AKMA'
p1322
I1
sS'QAGL'
p1323
I2
sS'KTKD'
p1324
I4
sS'AIQT'
p1325
I1
sS'QAGI'
p1326
I2
sS'EYGK'
p1327
I1
sS'DEIR'
p1328
I1
sS'GCTD'
p1329
I2
sS'QGEL'
p1330
I1
sS'AICV'
p1331
I1
sS'SLTD'
p1332
I1
sS'DYKV'
p1333
I2
sS'NAAK'
p1334
I1
sS'IGSC'
p1335
I2
sS'PPEH'
p1336
I1
sS'IKFI'
p1337
I1
sS'DIRF'
p1338
I1
sS'TDGS'
p1339
I1
sS'MLVN'
p1340
I5
sS'NAAY'
p1341
I1
sS'ERQH'
p1342
I2
sS'AFYY'
p1343
I2
sS'RKRK'
p1344
I1
sS'FLRE'
p1345
I1
sS'CNFY'
p1346
I1
sS'RKRN'
p1347
I1
sS'PGWE'
p1348
I1
sS'NTEQ'
p1349
I1
sS'KKKF'
p1350
I1
sS'RKRA'
p1351
I1
sS'HRSD'
p1352
I2
sS'LAKE'
p1353
I4
sS'IIHA'
p1354
I2
sS'YIWG'
p1355
I8
sS'RLNL'
p1356
I4
sS'ALRK'
p1357
I1
sS'KICA'
p1358
I3
sS'ATII'
p1359
I2
sS'NIRL'
p1360
I1
sS'PEEF'
p1361
I1
sS'RDFK'
p1362
I5
sS'LTAK'
p1363
I1
sS'ALRD'
p1364
I1
sS'WVAS'
p1365
I1
sS'VAKG'
p1366
I1
sS'FPGG'
p1367
I2
sS'SVNL'
p1368
I3
sS'LFSS'
p1369
I1
sS'HQRV'
p1370
I3
sS'MKEL'
p1371
I1
sS'LFSV'
p1372
I1
sS'GNPI'
p1373
I1
sS'PEAN'
p1374
I1
sS'PEAL'
p1375
I1
sS'LKQC'
p1376
I1
sS'EFYV'
p1377
I1
sS'VLKI'
p1378
I2
sS'VDNF'
p1379
I1
sS'FLFG'
p1380
I3
sS'GPPA'
p1381
I1
sS'PTNE'
p1382
I1
sS'LFSF'
p1383
I4
sS'LKQN'
p1384
I5
sS'YLSS'
p1385
I2
sS'NFVR'
p1386
I7
sS'LPRM'
p1387
I1
sS'LYNI'
p1388
I5
sS'NKFL'
p1389
I5
sS'LYND'
p1390
I1
sS'HRSQ'
p1391
I3
sS'SNSR'
p1392
I1
sS'SGMT'
p1393
I1
sS'NFVE'
p1394
I1
sS'EEKG'
p1395
I1
sS'ALNP'
p1396
I2
sS'IKEG'
p1397
I2
sS'CNPH'
p1398
I1
sS'ISTV'
p1399
I1
sS'SHRL'
p1400
I1
sS'KRCG'
p1401
I1
sS'SHRI'
p1402
I3
sS'VGFP'
p1403
I1
sS'QDVL'
p1404
I4
sS'PIPV'
p1405
I2
sS'KSAI'
p1406
I2
sS'NDPS'
p1407
I1
sS'YVPM'
p1408
I4
sS'PWQH'
p1409
I2
sS'LEAC'
p1410
I1
sS'LWIP'
p1411
I4
sS'SMRK'
p1412
I1
sS'VAFC'
p1413
I2
sS'YCTG'
p1414
I1
sS'PWQD'
p1415
I2
sS'AGQA'
p1416
I1
sS'LEAP'
p1417
I1
sS'KYIS'
p1418
I2
sS'LNDT'
p1419
I1
sS'RALG'
p1420
I5
sS'PDQP'
p1421
I2
sS'GLCF'
p1422
I1
sS'KYIY'
p1423
I7
sS'TNAA'
p1424
I1
sS'GDGY'
p1425
I1
sS'YSMG'
p1426
I1
sS'YQVH'
p1427
I1
sS'CVGL'
p1428
I1
sS'AGIL'
p1429
I5
sS'EQPS'
p1430
I3
sS'QTSQ'
p1431
I1
sS'FHTD'
p1432
I1
sS'FHTE'
p1433
I1
sS'GKAD'
p1434
I2
sS'EQFI'
p1435
I4
sS'TLMD'
p1436
I1
sS'AGIR'
p1437
I2
sS'KPWR'
p1438
I1
sS'GGAN'
p1439
I2
sS'DPWS'
p1440
I2
sS'QYNK'
p1441
I2
sS'VLWS'
p1442
I1
sS'DAEA'
p1443
I1
sS'DTGM'
p1444
I1
sS'WNGP'
p1445
I4
sS'VLLG'
p1446
I3
sS'TVIH'
p1447
I2
sS'DGIR'
p1448
I2
sS'EIAR'
p1449
I1
sS'SASD'
p1450
I2
sS'RHSL'
p1451
I1
sS'HYPH'
p1452
I1
sS'VLWK'
p1453
I1
sS'FIPD'
p1454
I2
sS'KCEQ'
p1455
I1
sS'YRNK'
p1456
I1
sS'FIPF'
p1457
I4
sS'YRNI'
p1458
I1
sS'ENYI'
p1459
I2
sS'TKIF'
p1460
I2
sS'LAME'
p1461
I1
sS'TKII'
p1462
I1
sS'GGAV'
p1463
I6
sS'KLYS'
p1464
I4
sS'NPAG'
p1465
I1
sS'KLYN'
p1466
I5
sS'DVYR'
p1467
I2
sS'FIPS'
p1468
I2
sS'NERL'
p1469
I1
sS'TKIV'
p1470
I1
sS'PIPL'
p1471
I2
sS'DAWM'
p1472
I4
sS'KLYD'
p1473
I1
sS'KLYE'
p1474
I1
sS'KVLE'
p1475
I1
sS'KLYA'
p1476
I2
sS'LFKF'
p1477
I1
sS'EDDP'
p1478
I7
sS'IWGH'
p1479
I8
sS'INFI'
p1480
I1
sS'FSSS'
p1481
I1
sS'LRHS'
p1482
I1
sS'ARSC'
p1483
I1
sS'SGSS'
p1484
I3
sS'DFKV'
p1485
I5
sS'SGSP'
p1486
I1
sS'KDQL'
p1487
I1
sS'KDQM'
p1488
I5
sS'FCTE'
p1489
I1
sS'TTYF'
p1490
I1
sS'FSSN'
p1491
I1
sS'FSSH'
p1492
I1
sS'SGSA'
p1493
I4
sS'FSSK'
p1494
I1
sS'MGLA'
p1495
I1
sS'VLEL'
p1496
I1
sS'PFRR'
p1497
I3
sS'VLEN'
p1498
I1
sS'VLEA'
p1499
I1
sS'SAEH'
p1500
I1
sS'VLEE'
p1501
I1
sS'EQFM'
p1502
I1
sS'CRIC'
p1503
I1
sS'SAES'
p1504
I2
sS'KIVV'
p1505
I1
sS'CRLP'
p1506
I4
sS'ESVT'
p1507
I1
sS'VYGQ'
p1508
I1
sS'EIWS'
p1509
I1
sS'NDTK'
p1510
I1
sS'AFSD'
p1511
I2
sS'CRIS'
p1512
I3
sS'LYLH'
p1513
I8
sS'EKGC'
p1514
I1
sS'TFVE'
p1515
I1
sS'EPRC'
p1516
I3
sS'KDMI'
p1517
I1
sS'RRFV'
p1518
I1
sS'YMFH'
p1519
I1
sS'EPPY'
p1520
I1
sS'ALKE'
p1521
I1
sS'MYGG'
p1522
I1
sS'SLMG'
p1523
I4
sS'NMKH'
p1524
I2
sS'RENH'
p1525
I1
sS'RLII'
p1526
I1
sS'KIVQ'
p1527
I1
sS'EPRT'
p1528
I1
sS'INTE'
p1529
I1
sS'DFYP'
p1530
I4
sS'NGPF'
p1531
I4
sS'GPLE'
p1532
I1
sS'VDRN'
p1533
I1
sS'FSAL'
p1534
I1
sS'SWNG'
p1535
I4
sS'DFYA'
p1536
I1
sS'WDMV'
p1537
I1
sS'SDRH'
p1538
I2
sS'INTP'
p1539
I1
sS'PCQK'
p1540
I1
sS'MRYA'
p1541
I2
sS'PCQE'
p1542
I1
sS'SSMG'
p1543
I1
sS'EWTK'
p1544
I1
sS'PCQA'
p1545
I1
sS'CSKT'
p1546
I1
sS'ITPV'
p1547
I1
sS'LMGL'
p1548
I1
sS'TVWW'
p1549
I1
sS'FCKP'
p1550
I1
sS'VRYT'
p1551
I1
sS'RRTA'
p1552
I1
sS'GIGS'
p1553
I2
sS'PVSW'
p1554
I4
sS'PTKD'
p1555
I1
sS'PASM'
p1556
I1
sS'CTEI'
p1557
I1
sS'SLAK'
p1558
I2
sS'MIRN'
p1559
I1
sS'GEAS'
p1560
I3
sS'PRTD'
p1561
I1
sS'PGPP'
p1562
I1
sS'NMEY'
p1563
I1
sS'PSQA'
p1564
I2
sS'TCLG'
p1565
I1
sS'MALP'
p1566
I2
sS'DASA'
p1567
I2
sS'SLAG'
p1568
I1
sS'REET'
p1569
I1
sS'PGPA'
p1570
I1
sS'QSRI'
p1571
I4
sS'QYRE'
p1572
I1
sS'WSAE'
p1573
I2
sS'GYLL'
p1574
I4
sS'KIDS'
p1575
I1
sS'EALR'
p1576
I1
sS'FLYK'
p1577
I1
sS'RTDE'
p1578
I1
sS'GIGP'
p1579
I3
sS'NLIG'
p1580
I1
sS'GRGD'
p1581
I1
sS'TGLA'
p1582
I1
sS'HSAS'
p1583
I2
sS'EALK'
p1584
I1
sS'EALI'
p1585
I1
sS'IGRG'
p1586
I1
sS'GLDL'
p1587
I4
sS'RISL'
p1588
I3
sS'RTVP'
p1589
I1
sS'IARV'
p1590
I1
sS'PVYI'
p1591
I7
sS'GIQA'
p1592
I5
sS'GTVH'
p1593
I1
sS'LVLF'
p1594
I2
sS'GIQF'
p1595
I1
sS'RISA'
p1596
I4
sS'RNES'
p1597
I1
sS'PVYK'
p1598
I1
sS'FVPF'
p1599
I4
sS'LVLV'
p1600
I1
sS'IARN'
p1601
I1
sS'RTVK'
p1602
I1
sS'LSDG'
p1603
I1
sS'LSDF'
p1604
I1
sS'TFDY'
p1605
I7
sS'DEIV'
p1606
I1
sS'SFFP'
p1607
I4
sS'SFFR'
p1608
I2
sS'PPEA'
p1609
I1
sS'PTIL'
p1610
I1
sS'SPES'
p1611
I1
sS'SPEP'
p1612
I1
sS'HRSL'
p1613
I1
sS'EVVK'
p1614
I1
sS'SPEL'
p1615
I7
sS'KRWG'
p1616
I1
sS'LSDQ'
p1617
I5
sS'SPED'
p1618
I1
sS'SPEE'
p1619
I1
sS'QLWF'
p1620
I1
sS'VLKY'
p1621
I1
sS'NQMI'
p1622
I4
sS'FVLG'
p1623
I1
sS'NIGH'
p1624
I5
sS'QCHK'
p1625
I1
sS'FVLL'
p1626
I1
sS'KGFR'
p1627
I1
sS'LTTD'
p1628
I1
sS'DQPS'
p1629
I2
sS'ADVN'
p1630
I2
sS'AEND'
p1631
I1
sS'IANQ'
p1632
I4
sS'AKNQ'
p1633
I1
sS'NIGV'
p1634
I1
sS'SVEF'
p1635
I2
sS'QDQG'
p1636
I7
sS'SPYC'
p1637
I1
sS'KEVI'
p1638
I2
sS'IKVR'
p1639
I1
sS'FRLF'
p1640
I4
sS'NVLK'
p1641
I1
sS'LQTN'
p1642
I1
sS'NVLA'
p1643
I2
sS'SWML'
p1644
I2
sS'NLIE'
p1645
I1
sS'SPYS'
p1646
I1
sS'FRLR'
p1647
I4
sS'NLIA'
p1648
I1
sS'IKVC'
p1649
I1
sS'PDPW'
p1650
I2
sS'SYGI'
p1651
I1
sS'NLIL'
p1652
I7
sS'KEVV'
p1653
I1
sS'IIVY'
p1654
I1
sS'LQFN'
p1655
I1
sS'VQLY'
p1656
I2
sS'WGGL'
p1657
I1
sS'SFPK'
p1658
I1
sS'LIGK'
p1659
I1
sS'LWFR'
p1660
I3
sS'DNEA'
p1661
I1
sS'YVAI'
p1662
I1
sS'IFLF'
p1663
I2
sS'IKDM'
p1664
I1
sS'VHAN'
p1665
I1
sS'FSTE'
p1666
I1
sS'IFLL'
p1667
I1
sS'IFLN'
p1668
I5
sS'LWFE'
p1669
I1
sS'GMKR'
p1670
I7
sS'AINV'
p1671
I2
sS'QSDL'
p1672
I1
sS'GESE'
p1673
I2
sS'WKNA'
p1674
I6
sS'FHAN'
p1675
I1
sS'GESA'
p1676
I1
sS'FGGA'
p1677
I4
sS'PSVW'
p1678
I2
sS'EDYD'
p1679
I3
sS'AINF'
p1680
I2
sS'GNAG'
p1681
I17
sS'NMWV'
p1682
I1
sS'AINA'
p1683
I2
sS'QEVQ'
p1684
I1
sS'PPVT'
p1685
I2
sS'PYEA'
p1686
I1
sS'PYVV'
p1687
I1
sS'EGDP'
p1688
I1
sS'AWWD'
p1689
I1
sS'HTVP'
p1690
I7
sS'HVFD'
p1691
I7
sS'GVYI'
p1692
I1
sS'SKQW'
p1693
I1
sS'HMRK'
p1694
I6
sS'HARE'
p1695
I1
sS'FISI'
p1696
I1
sS'HVFL'
p1697
I1
sS'STGK'
p1698
I1
sS'SRGF'
p1699
I4
sS'AQGE'
p1700
I1
sS'GNMS'
p1701
I4
sS'STGP'
p1702
I2
sS'HVFV'
p1703
I1
sS'STGS'
p1704
I1
sS'KCTH'
p1705
I1
sS'TIIH'
p1706
I2
sS'AQGK'
p1707
I6
sS'GRYA'
p1708
I2
sS'LIRY'
p1709
I1
sS'ASGI'
p1710
I1
sS'LFNV'
p1711
I2
sS'DGVL'
p1712
I1
sS'LFNL'
p1713
I2
sS'ILTF'
p1714
I2
sS'ASGS'
p1715
I3
sS'DGVR'
p1716
I1
sS'THNF'
p1717
I1
sS'THND'
p1718
I6
sS'QHEQ'
p1719
I3
sS'YLLP'
p1720
I2
sS'KFLS'
p1721
I6
sS'NSVF'
p1722
I1
sS'FPKC'
p1723
I1
sS'SIKQ'
p1724
I1
sS'WRLW'
p1725
I1
sS'CAAD'
p1726
I3
sS'WRLR'
p1727
I1
sS'CAAA'
p1728
I2
sS'SIKD'
p1729
I1
sS'YGIV'
p1730
I1
sS'FLGK'
p1731
I5
sS'FLGI'
p1732
I1
sS'GLCG'
p1733
I1
sS'CAAS'
p1734
I2
sS'FLGN'
p1735
I1
sS'VLST'
p1736
I1
sS'ALIL'
p1737
I9
sS'TGPA'
p1738
I3
sS'QDCQ'
p1739
I1
sS'ANMR'
p1740
I2
sS'LYMD'
p1741
I1
sS'TGPH'
p1742
I2
sS'KGTD'
p1743
I1
sS'NIIP'
p1744
I1
sS'VRAI'
p1745
I1
sS'PVLI'
p1746
I3
sS'PVLF'
p1747
I1
sS'ALRI'
p1748
I1
sS'SAFC'
p1749
I4
sS'AMEH'
p1750
I1
sS'QESS'
p1751
I2
sS'ILFK'
p1752
I1
sS'NQDR'
p1753
I1
sS'ILFG'
p1754
I1
sS'ILFF'
p1755
I1
sS'ILFC'
p1756
I2
sS'LKLV'
p1757
I1
sS'KQNL'
p1758
I5
sS'CMEL'
p1759
I4
sS'VDSS'
p1760
I1
sS'ALTA'
p1761
I1
sS'INTR'
p1762
I1
sS'GNMI'
p1763
I1
sS'GPKP'
p1764
I1
sS'RECS'
p1765
I1
sS'DFVF'
p1766
I1
sS'ILFV'
p1767
I2
sS'IEEG'
p1768
I1
sS'YFCK'
p1769
I3
sS'VVRH'
p1770
I2
sS'RVAV'
p1771
I4
sS'CTDV'
p1772
I2
sS'NSPY'
p1773
I2
sS'ITSS'
p1774
I5
sS'LGGN'
p1775
I2
sS'CWYE'
p1776
I1
sS'PVPP'
p1777
I1
sS'LKGS'
p1778
I2
sS'GKTV'
p1779
I1
sS'DDVT'
p1780
I2
sS'HLHG'
p1781
I2
sS'FEAD'
p1782
I1
sS'NYQV'
p1783
I1
sS'VPRV'
p1784
I2
sS'VIPW'
p1785
I4
sS'ELNS'
p1786
I1
sS'VVPC'
p1787
I1
sS'GFVL'
p1788
I1
sS'YQWI'
p1789
I1
sS'MVEN'
p1790
I4
sS'LRIL'
p1791
I1
sS'PLYI'
p1792
I1
sS'LRIN'
p1793
I1
sS'YDAL'
p1794
I7
sS'MESV'
p1795
I1
sS'EEVL'
p1796
I1
sS'VIPF'
p1797
I1
sS'SEDG'
p1798
I1
sS'LRIP'
p1799
I1
sS'GKFF'
p1800
I1
sS'HSDL'
p1801
I5
sS'LALI'
p1802
I1
sS'VVRA'
p1803
I1
sS'GQGD'
p1804
I1
sS'GFVV'
p1805
I4
sS'TVFN'
p1806
I1
sS'WNFV'
p1807
I1
sS'EQQM'
p1808
I1
sS'EGVG'
p1809
I1
sS'ASYS'
p1810
I1
sS'NTRS'
p1811
I1
sS'DADC'
p1812
I5
sS'ESEG'
p1813
I2
sS'KLVF'
p1814
I2
sS'DGSA'
p1815
I1
sS'ALTQ'
p1816
I2
sS'ASYG'
p1817
I1
sS'AEPV'
p1818
I1
sS'IDSQ'
p1819
I1
sS'KLVK'
p1820
I1
sS'VRHR'
p1821
I4
sS'RNFN'
p1822
I2
sS'IRLA'
p1823
I1
sS'RRGG'
p1824
I1
sS'SQTD'
p1825
I3
sS'KFAN'
p1826
I6
sS'GTAD'
p1827
I2
sS'ERAA'
p1828
I1
sS'NSFI'
p1829
I1
sS'EETM'
p1830
I1
sS'SRGT'
p1831
I1
sS'KIFI'
p1832
I2
sS'GTAS'
p1833
I1
sS'PART'
p1834
I1
sS'PARS'
p1835
I4
sS'ETME'
p1836
I1
sS'GIRA'
p1837
I4
sS'GIRL'
p1838
I2
sS'FISG'
p1839
I6
sS'IIKV'
p1840
I1
sS'LSGE'
p1841
I1
sS'GFDW'
p1842
I8
sS'VNLV'
p1843
I1
sS'VNLR'
p1844
I1
sS'LDPI'
p1845
I7
sS'VNLL'
p1846
I1
sS'DTVV'
p1847
I1
sS'SAHW'
p1848
I4
sS'VNLI'
p1849
I2
sS'VNLK'
p1850
I4
sS'LGSS'
p1851
I1
sS'VNLF'
p1852
I2
sS'PPFM'
p1853
I1
sS'LGSV'
p1854
I2
sS'YLQP'
p1855
I8
sS'PFSV'
p1856
I7
sS'DHVI'
p1857
I4
sS'PFSS'
p1858
I1
sS'EYLK'
p1859
I1
sS'CPTI'
p1860
I1
sS'QSIG'
p1861
I3
sS'GTIA'
p1862
I1
sS'PFSM'
p1863
I1
sS'IRLN'
p1864
I3
sS'SAFP'
p1865
I1
sS'PKIL'
p1866
I2
sS'TNII'
p1867
I1
sS'ILSA'
p1868
I2
sS'RLFY'
p1869
I4
sS'GGLL'
p1870
I2
sS'GGLM'
p1871
I1
sS'KDLE'
p1872
I1
sS'KDLG'
p1873
I1
sS'SLLP'
p1874
I3
sS'GGLD'
p1875
I4
sS'MDSE'
p1876
I1
sS'KELL'
p1877
I1
sS'NAQG'
p1878
I5
sS'SLLI'
p1879
I2
sS'LPIL'
p1880
I1
sS'LPIA'
p1881
I1
sS'ALSA'
p1882
I2
sS'SLLA'
p1883
I1
sS'DTKS'
p1884
I2
sS'PDGT'
p1885
I4
sS'VAVP'
p1886
I2
sS'VFPG'
p1887
I2
sS'IKEV'
p1888
I3
sS'LLKS'
p1889
I1
sS'IIYF'
p1890
I4
sS'PDGE'
p1891
I2
sS'WGDS'
p1892
I8
sS'IDKT'
p1893
I2
sS'HVHG'
p1894
I2
sS'LLKI'
p1895
I1
sS'SVFQ'
p1896
I1
sS'IKEL'
p1897
I1
sS'FINA'
p1898
I1
sS'YPLI'
p1899
I4
sS'VMMK'
p1900
I4
sS'SDCD'
p1901
I1
sS'SFSP'
p1902
I1
sS'YPLL'
p1903
I1
sS'ILIP'
p1904
I2
sS'MEQP'
p1905
I1
sS'HTVN'
p1906
I1
sS'LVNK'
p1907
I1
sS'PESR'
p1908
I1
sS'PIIL'
p1909
I3
sS'FAFV'
p1910
I3
sS'PIIV'
p1911
I1
sS'LGQS'
p1912
I2
sS'QSES'
p1913
I1
sS'TKDS'
p1914
I2
sS'TSRS'
p1915
I1
sS'DQAG'
p1916
I2
sS'QLVF'
p1917
I1
sS'PAEA'
p1918
I2
sS'KFEA'
p1919
I1
sS'KQRI'
p1920
I1
sS'AVPE'
p1921
I2
sS'AIAT'
p1922
I2
sS'RGWG'
p1923
I8
sS'ATCF'
p1924
I1
sS'LMDA'
p1925
I1
sS'QTAL'
p1926
I3
sS'QSSH'
p1927
I1
sS'RYGL'
p1928
I1
sS'EWIP'
p1929
I3
sS'IASV'
p1930
I4
sS'APLD'
p1931
I2
sS'DTQS'
p1932
I2
sS'PGSG'
p1933
I4
sS'HNLL'
p1934
I1
sS'IAAL'
p1935
I1
sS'VFNI'
p1936
I1
sS'VEFT'
p1937
I2
sS'NDLG'
p1938
I1
sS'YSHV'
p1939
I1
sS'VKVL'
p1940
I1
sS'LAIF'
p1941
I5
sS'VFYS'
p1942
I1
sS'SLVL'
p1943
I1
sS'VYGP'
p1944
I2
sS'QRAK'
p1945
I1
sS'IAAP'
p1946
I6
sS'IAAT'
p1947
I1
sS'IHVH'
p1948
I2
sS'MKGN'
p1949
I1
sS'FQSM'
p1950
I1
sS'SILY'
p1951
I1
sS'PADN'
p1952
I2
sS'HRIC'
p1953
I1
sS'FLDP'
p1954
I7
sS'ASGL'
p1955
I1
sS'VEKF'
p1956
I2
sS'VDLK'
p1957
I1
sS'LKSH'
p1958
I1
sS'FQSS'
p1959
I1
sS'LVKV'
p1960
I1
sS'DMLI'
p1961
I1
sS'NKDS'
p1962
I1
sS'DMLL'
p1963
I1
sS'SFPP'
p1964
I1
sS'ISRF'
p1965
I1
sS'SGPH'
p1966
I2
sS'DQMW'
p1967
I5
sS'GYFS'
p1968
I1
sS'WYEE'
p1969
I1
sS'WYED'
p1970
I5
sS'PVMM'
p1971
I4
sS'KIYR'
p1972
I1
sS'WYEA'
p1973
I1
sS'VLAL'
p1974
I1
sS'KRWV'
p1975
I2
sS'GFGD'
p1976
I1
sS'GFGE'
p1977
I2
sS'WYEK'
p1978
I1
sS'QRIG'
p1979
I1
sS'NIFI'
p1980
I4
sS'ETQF'
p1981
I1
sS'KTIE'
p1982
I1
sS'SHPI'
p1983
I2
sS'PENA'
p1984
I2
sS'SVDY'
p1985
I1
sS'HGKA'
p1986
I2
sS'VTFD'
p1987
I7
sS'SHPF'
p1988
I8
sS'VEPG'
p1989
I1
sS'KGGI'
p1990
I1
sS'TGAA'
p1991
I1
sS'IYLL'
p1992
I2
sS'VEPR'
p1993
I1
sS'SHPV'
p1994
I2
sS'NLNT'
p1995
I1
sS'LQSE'
p1996
I1
sS'IIWL'
p1997
I1
sS'NPQV'
p1998
I3
sS'SRTK'
p1999
I4
sS'SMLG'
p2000
I1
sS'VIYR'
p2001
I7
sS'LWKD'
p2002
I1
sS'PWSA'
p2003
I2
sS'SDQL'
p2004
I5
sS'LEGS'
p2005
I2
sS'LWKN'
p2006
I1
sS'IFYP'
p2007
I1
sS'LIQG'
p2008
I2
sS'AGKT'
p2009
I1
sS'GKGT'
p2010
I2
sS'LLFR'
p2011
I1
sS'AESL'
p2012
I1
sS'AVLA'
p2013
I1
sS'DFIL'
p2014
I1
sS'AESI'
p2015
I2
sS'ELAS'
p2016
I4
sS'SEEG'
p2017
I4
sS'CVAA'
p2018
I1
sS'MVDR'
p2019
I1
sS'VISF'
p2020
I1
sS'VPEH'
p2021
I2
sS'AGKG'
p2022
I2
sS'PERL'
p2023
I2
sS'VPEE'
p2024
I1
sS'SEEM'
p2025
I1
sS'PVCL'
p2026
I1
sS'YFTA'
p2027
I4
sS'ENMK'
p2028
I2
sS'NLRL'
p2029
I4
sS'VRIF'
p2030
I1
sS'SHVF'
p2031
I1
sS'ESVE'
p2032
I2
sS'KNAQ'
p2033
I5
sS'KNAR'
p2034
I1
sS'RILI'
p2035
I1
sS'TEEG'
p2036
I1
sS'LVGC'
p2037
I2
sS'WSWA'
p2038
I2
sS'LVKL'
p2039
I3
sS'WSWG'
p2040
I3
sS'NLRY'
p2041
I1
sS'FYAD'
p2042
I1
sS'LHGN'
p2043
I8
sS'WPLV'
p2044
I4
sS'VLNI'
p2045
I1
sS'LHGE'
p2046
I1
sS'ESVN'
p2047
I3
sS'STFL'
p2048
I1
sS'AQDC'
p2049
I1
sS'EGEA'
p2050
I3
sS'STFS'
p2051
I1
sS'GLCR'
p2052
I2
sS'IILS'
p2053
I2
sS'EGEK'
p2054
I4
sS'FIRT'
p2055
I2
sS'YNKR'
p2056
I2
sS'ANLY'
p2057
I2
sS'LHGS'
p2058
I1
sS'TMRY'
p2059
I1
sS'NQSD'
p2060
I1
sS'YLQY'
p2061
I2
sS'DGYF'
p2062
I1
sS'NWIS'
p2063
I1
sS'TAKN'
p2064
I1
sS'INDL'
p2065
I1
sS'ASHR'
p2066
I1
sS'NLFM'
p2067
I2
sS'SAGK'
p2068
I2
sS'SLQE'
p2069
I1
sS'LSTS'
p2070
I1
sS'PRIL'
p2071
I6
sS'SVLP'
p2072
I1
sS'VYIA'
p2073
I1
sS'ESPF'
p2074
I8
sS'PYES'
p2075
I1
sS'FYLR'
p2076
I1
sS'FYLQ'
p2077
I2
sS'PHDS'
p2078
I1
sS'KLCP'
p2079
I6
sS'SAGP'
p2080
I1
sS'TIGV'
p2081
I6
sS'VYIW'
p2082
I7
sS'RFPY'
p2083
I1
sS'VYIR'
p2084
I1
sS'IEHR'
p2085
I1
sS'KDKI'
p2086
I1
sS'SSYS'
p2087
I1
sS'GEKD'
p2088
I1
sS'SLKQ'
p2089
I2
sS'PITS'
p2090
I5
sS'TFTA'
p2091
I2
sS'PITT'
p2092
I1
sS'AHWP'
p2093
I4
sS'AVAL'
p2094
I2
sS'RETP'
p2095
I7
sS'AVAI'
p2096
I6
sS'QLGR'
p2097
I3
sS'TFTS'
p2098
I1
sS'RPTL'
p2099
I1
sS'SLKE'
p2100
I1
sS'KAKE'
p2101
I1
sS'KDGT'
p2102
I4
sS'ILAL'
p2103
I3
sS'FEDA'
p2104
I1
sS'VFDW'
p2105
I7
sS'SIPH'
p2106
I5
sS'ILAF'
p2107
I1
sS'SSKK'
p2108
I1
sS'EQSR'
p2109
I3
sS'NKER'
p2110
I1
sS'CSIK'
p2111
I1
sS'ILAS'
p2112
I1
sS'PAYC'
p2113
I1
sS'ILAV'
p2114
I1
sS'CQEA'
p2115
I1
sS'LDAD'
p2116
I5
sS'KRTE'
p2117
I5
sS'SQCR'
p2118
I3
sS'VPSC'
p2119
I1
sS'PTES'
p2120
I1
sS'YEFR'
p2121
I1
sS'LDAI'
p2122
I1
sS'RRVE'
p2123
I1
sS'GTRG'
p2124
I9
sS'EDVS'
p2125
I1
sS'EDVT'
p2126
I4
sS'RLYV'
p2127
I4
sS'EFTA'
p2128
I2
sS'PTEE'
p2129
I1
sS'STVR'
p2130
I1
sS'QFNK'
p2131
I1
sS'RICA'
p2132
I1
sS'QNER'
p2133
I1
sS'QFRC'
p2134
I4
sS'TCNY'
p2135
I6
sS'PDNK'
p2136
I2
sS'FVFV'
p2137
I1
sS'MIPG'
p2138
I4
sS'MFPL'
p2139
I4
sS'TMES'
p2140
I1
sS'VKEC'
p2141
I1
sS'TMEQ'
p2142
I1
sS'SLYN'
p2143
I1
sS'NMGH'
p2144
I1
sS'TCNF'
p2145
I1
sS'MIPT'
p2146
I1
sS'FNVG'
p2147
I2
sS'SHAR'
p2148
I1
sS'KKFH'
p2149
I1
sS'RNIA'
p2150
I2
sS'RNIN'
p2151
I1
sS'YIRT'
p2152
I1
sS'PGRQ'
p2153
I1
sS'HSCS'
p2154
I1
sS'KIFL'
p2155
I2
sS'TGNM'
p2156
I1
sS'RYFP'
p2157
I8
sS'RNIP'
p2158
I1
sS'SHAI'
p2159
I1
sS'LTDF'
p2160
I1
sS'LTDG'
p2161
I1
sS'GKST'
p2162
I1
sS'VQYR'
p2163
I1
sS'FVRV'
p2164
I7
sS'YSLA'
p2165
I2
sS'VTAG'
p2166
I2
sS'KGTA'
p2167
I2
sS'YMDS'
p2168
I1
sS'RIMM'
p2169
I1
sS'HRQI'
p2170
I1
sS'PPGP'
p2171
I1
sS'SAID'
p2172
I2
sS'LGRR'
p2173
I6
sS'SAIN'
p2174
I2
sS'SAIM'
p2175
I3
sS'TPKE'
p2176
I1
sS'SAII'
p2177
I1
sS'IVPP'
p2178
I1
sS'PMRY'
p2179
I5
sS'WLIA'
p2180
I1
sS'KNKF'
p2181
I5
sS'PPGF'
p2182
I1
sS'PYFI'
p2183
I8
sS'LGRK'
p2184
I6
sS'PRVA'
p2185
I4
sS'VESV'
p2186
I2
sS'EVLS'
p2187
I1
sS'IALA'
p2188
I1
sS'PTLM'
p2189
I1
sS'IALG'
p2190
I1
sS'IALD'
p2191
I2
sS'GLSD'
p2192
I5
sS'SVGS'
p2193
I2
sS'SVGT'
p2194
I5
sS'IALQ'
p2195
I1
sS'IALT'
p2196
I1
sS'ETPP'
p2197
I7
sS'FPND'
p2198
I1
sS'ILFI'
p2199
I4
sS'NILD'
p2200
I1
sS'ALYD'
p2201
I1
sS'HVVP'
p2202
I1
sS'RAML'
p2203
I3
sS'NVNH'
p2204
I1
sS'QDSE'
p2205
I2
sS'HVVT'
p2206
I7
sS'NVNL'
p2207
I2
sS'VGCG'
p2208
I2
sS'CLAG'
p2209
I1
sS'RSQT'
p2210
I3
sS'GDVY'
p2211
I2
sS'GSLV'
p2212
I1
sS'STKS'
p2213
I1
sS'LHVF'
p2214
I7
sS'SRSF'
p2215
I4
sS'KEPK'
p2216
I2
sS'PWRL'
p2217
I1
sS'FPPG'
p2218
I1
sS'TPEE'
p2219
I1
sS'IIFP'
p2220
I1
sS'IIFS'
p2221
I2
sS'SFRD'
p2222
I6
sS'LLLV'
p2223
I1
sS'FPPI'
p2224
I2
sS'FPPV'
p2225
I2
sS'LLLI'
p2226
I6
sS'ADPY'
p2227
I1
sS'LLLL'
p2228
I4
sS'MWVA'
p2229
I1
sS'ESSP'
p2230
I2
sS'LNPQ'
p2231
I2
sS'DLKE'
p2232
I4
sS'IKFA'
p2233
I6
sS'EFHV'
p2234
I3
sS'ELIV'
p2235
I1
sS'DLKK'
p2236
I5
sS'TDLG'
p2237
I1
sS'DYVM'
p2238
I5
sS'AILA'
p2239
I4
sS'DLKQ'
p2240
I1
sS'DLKR'
p2241
I4
sS'TQSA'
p2242
I2
sS'HLVG'
p2243
I2
sS'FRAS'
p2244
I1
sS'DVTI'
p2245
I6
sS'IRYT'
p2246
I1
sS'IVAG'
p2247
I1
sS'HKLR'
p2248
I1
sS'FKAP'
p2249
I1
sS'DATV'
p2250
I1
sS'RDAM'
p2251
I2
sS'GSLF'
p2252
I2
sS'SMGV'
p2253
I1
sS'IFVS'
p2254
I3
sS'SRII'
p2255
I2
sS'STET'
p2256
I1
sS'TPDE'
p2257
I1
sS'RIVK'
p2258
I2
sS'VRAM'
p2259
I3
sS'EEFR'
p2260
I1
sS'ASIN'
p2261
I1
sS'PSLI'
p2262
I2
sS'LFLY'
p2263
I1
sS'MTKT'
p2264
I1
sS'FSPT'
p2265
I1
sS'PDDK'
p2266
I2
sS'PELP'
p2267
I6
sS'FQDM'
p2268
I1
sS'PELR'
p2269
I1
sS'VSRV'
p2270
I1
sS'FQDV'
p2271
I4
sS'PELK'
p2272
I1
sS'ILVD'
p2273
I2
sS'KFNK'
p2274
I1
sS'PSLT'
p2275
I2
sS'YGKK'
p2276
I1
sS'YPKA'
p2277
I3
sS'IASY'
p2278
I1
sS'LKRP'
p2279
I4
sS'RAIL'
p2280
I1
sS'TARG'
p2281
I1
sS'IAKF'
p2282
I1
sS'QAPE'
p2283
I1
sS'YEYS'
p2284
I1
sS'RAIV'
p2285
I1
sS'YGKS'
p2286
I6
sS'GLAD'
p2287
I2
sS'GLAE'
p2288
I2
sS'LRYT'
p2289
I3
sS'ARSF'
p2290
I2
sS'ARSG'
p2291
I7
sS'PLIV'
p2292
I3
sS'LYKV'
p2293
I8
sS'NDEN'
p2294
I7
sS'ARSL'
p2295
I1
sS'LYKY'
p2296
I1
sS'ARSH'
p2297
I1
sS'QDML'
p2298
I1
sS'LRYF'
p2299
I1
sS'LYKF'
p2300
I4
sS'PLID'
p2301
I1
sS'DRTV'
p2302
I1
sS'KRVP'
p2303
I2
sS'PLII'
p2304
I4
sS'MAKT'
p2305
I2
sS'QPLW'
p2306
I4
sS'FCKQ'
p2307
I3
sS'PLIL'
p2308
I1
sS'KSLK'
p2309
I1
sS'KSLN'
p2310
I1
sS'KIKK'
p2311
I1
sS'SIQA'
p2312
I1
sS'EKPW'
p2313
I1
sS'MVYR'
p2314
I1
sS'YCGP'
p2315
I1
sS'RCAI'
p2316
I2
sS'KSLF'
p2317
I2
sS'FSFF'
p2318
I4
sS'GPIF'
p2319
I1
sS'REEA'
p2320
I8
sS'KSLY'
p2321
I1
sS'RHVV'
p2322
I1
sS'SMGL'
p2323
I1
sS'FLYQ'
p2324
I1
sS'KSLW'
p2325
I2
sS'CLRV'
p2326
I1
sS'RLVL'
p2327
I4
sS'EDYN'
p2328
I1
sS'FPQG'
p2329
I1
sS'VPPP'
p2330
I1
sS'SSHA'
p2331
I1
sS'PCRM'
p2332
I1
sS'NMYG'
p2333
I1
sS'LCKS'
p2334
I1
sS'SEPG'
p2335
I1
sS'RNVN'
p2336
I2
sS'LGGF'
p2337
I2
sS'SSHT'
p2338
I1
sS'VPPE'
p2339
I1
sS'SQDE'
p2340
I1
sS'SSHP'
p2341
I4
sS'KVYG'
p2342
I2
sS'PVVP'
p2343
I6
sS'QFMK'
p2344
I1
sS'ATLF'
p2345
I1
sS'CVRV'
p2346
I3
sS'LDPT'
p2347
I1
sS'GFHV'
p2348
I1
sS'KPTS'
p2349
I1
sS'LIPD'
p2350
I2
sS'EVAK'
p2351
I1
sS'EETS'
p2352
I1
sS'AEPH'
p2353
I2
sS'TNLA'
p2354
I1
sS'LDPY'
p2355
I4
sS'EETT'
p2356
I1
sS'GKDQ'
p2357
I6
sS'AEPR'
p2358
I3
sS'LIPP'
p2359
I5
sS'GKDL'
p2360
I1
sS'KPTE'
p2361
I1
sS'FHSF'
p2362
I1
sS'HCVG'
p2363
I2
sS'FHSD'
p2364
I5
sS'YFSA'
p2365
I1
sS'TNLV'
p2366
I8
sS'GKDC'
p2367
I1
sS'AQSK'
p2368
I1
sS'NNGK'
p2369
I1
sS'ESGY'
p2370
I2
sS'SFYN'
p2371
I1
sS'EGHS'
p2372
I2
sS'WQCQ'
p2373
I5
sS'TKDN'
p2374
I1
sS'KELN'
p2375
I1
sS'SCVA'
p2376
I1
sS'ESGM'
p2377
I1
sS'QTVE'
p2378
I3
sS'RENV'
p2379
I1
sS'PHSA'
p2380
I2
sS'PHSC'
p2381
I1
sS'KGKF'
p2382
I1
sS'TRSS'
p2383
I1
sS'ENLP'
p2384
I1
sS'TADH'
p2385
I2
sS'VTFH'
p2386
I3
sS'PAPL'
p2387
I1
sS'QTVF'
p2388
I1
sS'RILR'
p2389
I6
sS'LCER'
p2390
I7
sS'GTGA'
p2391
I1
sS'TLTD'
p2392
I1
sS'RDQS'
p2393
I2
sS'FVSI'
p2394
I3
sS'HSPE'
p2395
I2
sS'RSLG'
p2396
I5
sS'ATSR'
p2397
I1
sS'HGTA'
p2398
I2
sS'LVKI'
p2399
I1
sS'GTGV'
p2400
I9
sS'VKFL'
p2401
I1
sS'MGAG'
p2402
I2
sS'MGAF'
p2403
I1
sS'LSAK'
p2404
I2
sS'RMLW'
p2405
I1
sS'VVPF'
p2406
I7
sS'IADF'
p2407
I1
sS'ADAT'
p2408
I1
sS'DENV'
p2409
I6
sS'DENM'
p2410
I2
sS'DENL'
p2411
I1
sS'DYVR'
p2412
I2
sS'PYEG'
p2413
I3
sS'YYLQ'
p2414
I6
sS'SWLP'
p2415
I4
sS'GATA'
p2416
I4
sS'ADAG'
p2417
I3
sS'TVRD'
p2418
I2
sS'TRRI'
p2419
I2
sS'FDYR'
p2420
I12
sS'VVPL'
p2421
I1
sS'FPMR'
p2422
I4
sS'PHEN'
p2423
I5
sS'ESQE'
p2424
I1
sS'GQSV'
p2425
I1
sS'GQSI'
p2426
I4
sS'PFQL'
p2427
I4
sS'ENQN'
p2428
I1
sS'GQSL'
p2429
I3
sS'IISR'
p2430
I1
sS'TKDG'
p2431
I4
sS'ESLQ'
p2432
I1
sS'QFAN'
p2433
I1
sS'AMIN'
p2434
I1
sS'AMIK'
p2435
I1
sS'NHTC'
p2436
I7
sS'PPVM'
p2437
I4
sS'NGKL'
p2438
I1
sS'SSVQ'
p2439
I1
sS'EWYE'
p2440
I2
sS'AERW'
p2441
I1
sS'RGGL'
p2442
I1
sS'IPEV'
p2443
I1
sS'RGGD'
p2444
I8
sS'GANI'
p2445
I2
sS'GKFE'
p2446
I1
sS'RVKE'
p2447
I1
sS'LEWY'
p2448
I1
sS'MLAF'
p2449
I3
sS'TETR'
p2450
I1
sS'DSYL'
p2451
I1
sS'VGTP'
p2452
I5
sS'SVTI'
p2453
I1
sS'RVKM'
p2454
I1
sS'IFIR'
p2455
I2
sS'IFIS'
p2456
I1
sS'IFIP'
p2457
I2
sS'LGGA'
p2458
I5
sS'TAKD'
p2459
I4
sS'HPPN'
p2460
I1
sS'IFIK'
p2461
I2
sS'LLML'
p2462
I5
sS'SVTV'
p2463
I1
sS'GFPP'
p2464
I1
sS'GMNH'
p2465
I1
sS'PDAL'
p2466
I6
sS'SDAG'
p2467
I2
sS'YERI'
p2468
I1
sS'FGDS'
p2469
I1
sS'MIGK'
p2470
I1
sS'SDAL'
p2471
I1
sS'AIMV'
p2472
I4
sS'IPHM'
p2473
I5
sS'QGSF'
p2474
I2
sS'AKGF'
p2475
I1
sS'LSAL'
p2476
I2
sS'AFCV'
p2477
I2
sS'QGSR'
p2478
I1
sS'QLPA'
p2479
I1
sS'NAEK'
p2480
I1
sS'EYKT'
p2481
I1
sS'QLPN'
p2482
I1
sS'DGTV'
p2483
I1
sS'MPTG'
p2484
I5
sS'ILSH'
p2485
I2
sS'KQTP'
p2486
I1
sS'GEDA'
p2487
I1
sS'KQTS'
p2488
I1
sS'GEDD'
p2489
I1
sS'EKLY'
p2490
I4
sS'FIQT'
p2491
I2
sS'PTAF'
p2492
I2
sS'NTFL'
p2493
I5
sS'LAGP'
p2494
I1
sS'RYAN'
p2495
I2
sS'ALQM'
p2496
I1
sS'ARNA'
p2497
I1
sS'EACL'
p2498
I1
sS'LAGI'
p2499
I1
sS'LAGK'
p2500
I2
sS'YISC'
p2501
I2
sS'LVYP'
p2502
I1
sS'RVLK'
p2503
I3
sS'SRVA'
p2504
I3
sS'FGRA'
p2505
I1
sS'VAIR'
p2506
I1
sS'SINY'
p2507
I1
sS'EQMV'
p2508
I2
sS'GNTE'
p2509
I1
sS'FGRS'
p2510
I5
sS'FGRR'
p2511
I1
sS'QGAP'
p2512
I2
sS'HGWF'
p2513
I2
sS'EHID'
p2514
I2
sS'FRCA'
p2515
I4
sS'VVAV'
p2516
I2
sS'RKGS'
p2517
I1
sS'AKSH'
p2518
I7
sS'VVAA'
p2519
I2
sS'VVAF'
p2520
I2
sS'HEGI'
p2521
I1
sS'GPDP'
p2522
I2
sS'VPAA'
p2523
I1
sS'YIAS'
p2524
I2
sS'VERW'
p2525
I2
sS'DRGT'
p2526
I1
sS'HGED'
p2527
I1
sS'NDTW'
p2528
I5
sS'RINT'
p2529
I1
sS'ENQP'
p2530
I2
sS'ICAQ'
p2531
I3
sS'KIIF'
p2532
I1
sS'ICAL'
p2533
I1
sS'IVVY'
p2534
I1
sS'SVGF'
p2535
I1
sS'DADT'
p2536
I1
sS'YIAI'
p2537
I7
sS'NLVL'
p2538
I1
sS'KIIL'
p2539
I1
sS'NDTC'
p2540
I1
sS'QIEE'
p2541
I1
sS'TESL'
p2542
I1
sS'SLIQ'
p2543
I2
sS'VPAG'
p2544
I1
sS'RQLH'
p2545
I1
sS'QDRI'
p2546
I1
sS'TVFP'
p2547
I1
sS'HMAS'
p2548
I4
sS'DCQA'
p2549
I1
sS'NLLL'
p2550
I1
sS'LGIW'
p2551
I1
sS'LGIP'
p2552
I1
sS'ASYA'
p2553
I2
sS'RSPE'
p2554
I2
sS'NLLC'
p2555
I1
sS'HMAA'
p2556
I1
sS'TNMW'
p2557
I1
sS'LFMF'
p2558
I2
sS'PLDP'
p2559
I1
sS'PLDR'
p2560
I1
sS'SQTA'
p2561
I1
sS'VPCR'
p2562
I1
sS'FNLG'
p2563
I1
sS'AGES'
p2564
I1
sS'FNLA'
p2565
I1
sS'SEGS'
p2566
I1
sS'LRLA'
p2567
I2
sS'YKGE'
p2568
I1
sS'PVAL'
p2569
I3
sS'NYPL'
p2570
I1
sS'GKEM'
p2571
I1
sS'ILVR'
p2572
I1
sS'SEGE'
p2573
I3
sS'SEGD'
p2574
I1
sS'LRLT'
p2575
I2
sS'LRLR'
p2576
I2
sS'LRLP'
p2577
I1
sS'PLDK'
p2578
I1
sS'KEMG'
p2579
I1
sS'TVET'
p2580
I1
sS'AAIM'
p2581
I1
sS'EGIR'
p2582
I2
sS'PHTV'
p2583
I1
sS'EGIP'
p2584
I1
sS'TKGH'
p2585
I1
sS'GTAE'
p2586
I2
sS'AAIE'
p2587
I1
sS'EGIG'
p2588
I3
sS'AFPQ'
p2589
I1
sS'KEMQ'
p2590
I1
sS'ESIT'
p2591
I2
sS'EGIN'
p2592
I1
sS'ENSH'
p2593
I3
sS'TVEH'
p2594
I1
sS'HTCN'
p2595
I7
sS'EEGL'
p2596
I5
sS'EEGI'
p2597
I1
sS'HVEN'
p2598
I1
sS'KPEL'
p2599
I1
sS'LHAE'
p2600
I8
sS'NAHR'
p2601
I1
sS'NVYS'
p2602
I1
sS'KCSI'
p2603
I1
sS'PDLD'
p2604
I2
sS'AHRI'
p2605
I1
sS'YNIA'
p2606
I5
sS'DCCW'
p2607
I1
sS'VTGN'
p2608
I3
sS'NLVR'
p2609
I9
sS'KECV'
p2610
I2
sS'KFIQ'
p2611
I1
sS'KFIY'
p2612
I1
sS'CAVA'
p2613
I2
sS'IVTV'
p2614
I2
sS'AIAL'
p2615
I3
sS'KGSI'
p2616
I2
sS'VMEG'
p2617
I4
sS'QKTL'
p2618
I1
sS'ILQE'
p2619
I2
sS'IGCT'
p2620
I2
sS'CRMP'
p2621
I5
sS'TIEH'
p2622
I1
sS'ESRP'
p2623
I1
sS'DVSR'
p2624
I1
sS'ENAH'
p2625
I1
sS'TRSD'
p2626
I1
sS'PTGI'
p2627
I5
sS'LSVP'
p2628
I1
sS'IPVL'
p2629
I2
sS'AAGS'
p2630
I2
sS'HRAA'
p2631
I1
sS'LSVD'
p2632
I1
sS'FYNS'
p2633
I1
sS'VQFV'
p2634
I4
sS'ISYE'
p2635
I1
sS'HRAD'
p2636
I2
sS'LSVC'
p2637
I1
sS'INAE'
p2638
I1
sS'RYAD'
p2639
I2
sS'VNKR'
p2640
I2
sS'HISC'
p2641
I6
sS'EAGL'
p2642
I1
sS'YPTL'
p2643
I1
sS'EKCE'
p2644
I1
sS'RGFV'
p2645
I4
sS'ATCA'
p2646
I1
sS'LREN'
p2647
I1
sS'KQCH'
p2648
I1
sS'GPVF'
p2649
I3
sS'NARG'
p2650
I1
sS'VKVR'
p2651
I1
sS'RGFG'
p2652
I5
sS'AAYS'
p2653
I1
sS'VQFL'
p2654
I1
sS'RWLI'
p2655
I1
sS'LKIL'
p2656
I2
sS'RWLL'
p2657
I3
sS'AVIG'
p2658
I1
sS'QMVL'
p2659
I1
sS'YADA'
p2660
I1
sS'LKID'
p2661
I1
sS'PHYL'
p2662
I2
sS'SKGT'
p2663
I2
sS'LKIY'
p2664
I1
sS'IQAK'
p2665
I7
sS'RTLY'
p2666
I1
sS'QEVM'
p2667
I3
sS'TKDV'
p2668
I1
sS'LKIP'
p2669
I1
sS'GPHH'
p2670
I2
sS'IHLA'
p2671
I4
sS'YADQ'
p2672
I2
sS'GPHL'
p2673
I2
sS'IVQC'
p2674
I1
sS'SQES'
p2675
I2
sS'FLAE'
p2676
I1
sS'VIGR'
p2677
I1
sS'SQEV'
p2678
I1
sS'LYVA'
p2679
I1
sS'VIGQ'
p2680
I1
sS'RLWG'
p2681
I1
sS'RPDL'
p2682
I2
sS'VLIL'
p2683
I3
sS'GTPP'
p2684
I1
sS'GTPS'
p2685
I9
sS'RPDI'
p2686
I2
sS'CQGY'
p2687
I5
sS'PLVS'
p2688
I4
sS'PAAA'
p2689
I2
sS'SQEG'
p2690
I2
sS'QHHQ'
p2691
I1
sS'PAAD'
p2692
I1
sS'LYVP'
p2693
I4
sS'TQEV'
p2694
I1
sS'GKKL'
p2695
I4
sS'AVIL'
p2696
I2
sS'PAAL'
p2697
I1
sS'RGTP'
p2698
I1
sS'LPVY'
p2699
I1
sS'GHKV'
p2700
I1
sS'LPVR'
p2701
I1
sS'LPVS'
p2702
I4
sS'ATLT'
p2703
I1
sS'TSSN'
p2704
I3
sS'YVRH'
p2705
I2
sS'EKMS'
p2706
I1
sS'AVMG'
p2707
I4
sS'LPVL'
p2708
I1
sS'EWLP'
p2709
I1
sS'DKII'
p2710
I1
sS'SLWF'
p2711
I2
sS'ATLD'
p2712
I1
sS'ISQC'
p2713
I3
sS'ELSP'
p2714
I5
sS'LCVL'
p2715
I2
sS'HSEK'
p2716
I2
sS'NLAV'
p2717
I1
sS'QSVC'
p2718
I1
sS'TALS'
p2719
I2
sS'RRLC'
p2720
I8
sS'RNKE'
p2721
I1
sS'YLRV'
p2722
I1
sS'RRLI'
p2723
I1
sS'TALE'
p2724
I5
sS'LAFL'
p2725
I4
sS'SHGL'
p2726
I4
sS'QSVS'
p2727
I1
sS'LVFL'
p2728
I3
sS'APAP'
p2729
I1
sS'APAR'
p2730
I3
sS'KIYG'
p2731
I2
sS'FNVL'
p2732
I1
sS'LCDR'
p2733
I1
sS'RNYQ'
p2734
I1
sS'ERNF'
p2735
I2
sS'SLIL'
p2736
I1
sS'PYGG'
p2737
I1
sS'MSVV'
p2738
I1
sS'LPRV'
p2739
I2
sS'IYGP'
p2740
I2
sS'AVGH'
p2741
I2
sS'HSSE'
p2742
I1
sS'ERNV'
p2743
I2
sS'FHLY'
p2744
I4
sS'RTRD'
p2745
I1
sS'HKYI'
p2746
I7
sS'FFKA'
p2747
I1
sS'LGTP'
p2748
I1
sS'PMPT'
p2749
I5
sS'SAKK'
p2750
I1
sS'VGIG'
p2751
I2
sS'DNSS'
p2752
I1
sS'DNSP'
p2753
I2
sS'PPIS'
p2754
I2
sS'PHHI'
p2755
I2
sS'NPQN'
p2756
I2
sS'LGTG'
p2757
I9
sS'DNSA'
p2758
I1
sS'EYLQ'
p2759
I1
sS'EGQS'
p2760
I1
sS'EARS'
p2761
I1
sS'NAVA'
p2762
I2
sS'ESWL'
p2763
I1
sS'ETRG'
p2764
I1
sS'VKYI'
p2765
I2
sS'WTFV'
p2766
I1
sS'HEHH'
p2767
I1
sS'HGDV'
p2768
I2
sS'KRFG'
p2769
I1
sS'LMTL'
p2770
I4
sS'HHHM'
p2771
I1
sS'YPCQ'
p2772
I3
sS'YKNK'
p2773
I5
sS'SAAT'
p2774
I1
sS'KERV'
p2775
I1
sS'LWLR'
p2776
I1
sS'FIER'
p2777
I1
sS'LWLP'
p2778
I1
sS'LQPE'
p2779
I8
sS'VMGH'
p2780
I4
sS'LLPR'
p2781
I3
sS'IYKS'
p2782
I6
sS'NLMK'
p2783
I4
sS'RMPS'
p2784
I5
sS'YPCE'
p2785
I1
sS'LHPE'
p2786
I1
sS'IFFI'
p2787
I1
sS'FIEG'
p2788
I3
sS'VGSP'
p2789
I2
sS'IPPV'
p2790
I4
sS'VGSR'
p2791
I1
sS'FMKE'
p2792
I1
sS'LGFL'
p2793
I1
sS'LTFN'
p2794
I1
sS'IVLL'
p2795
I1
sS'YIPM'
p2796
I1
sS'TPGA'
p2797
I2
sS'ICPA'
p2798
I1
sS'LTFH'
p2799
I1
sS'VWLR'
p2800
I1
sS'LGFY'
p2801
I2
sS'IPPF'
p2802
I1
sS'RVLR'
p2803
I1
sS'VGSC'
p2804
I2
sS'YLHG'
p2805
I9
sS'LQDA'
p2806
I2
sS'LGFS'
p2807
I1
sS'QFVP'
p2808
I4
sS'VGSL'
p2809
I1
sS'SVWW'
p2810
I2
sS'YVMT'
p2811
I5
sS'ADRN'
p2812
I2
sS'PQNM'
p2813
I2
sS'LLND'
p2814
I1
sS'PVNK'
p2815
I2
sS'KVVL'
p2816
I1
sS'APSR'
p2817
I3
sS'TFNM'
p2818
I1
sS'LLNL'
p2819
I1
sS'VSLL'
p2820
I1
sS'EFNM'
p2821
I1
sS'DLMT'
p2822
I4
sS'QGLN'
p2823
I7
sS'GHYP'
p2824
I1
sS'LNSN'
p2825
I1
sS'KQLP'
p2826
I1
sS'ANIL'
p2827
I2
sS'TKTS'
p2828
I1
sS'CCWY'
p2829
I1
sS'WHTV'
p2830
I7
sS'FYPT'
p2831
I1
sS'WHTI'
p2832
I2
sS'IPFR'
p2833
I2
sS'GRPE'
p2834
I2
sS'NLCL'
p2835
I1
sS'EEDV'
p2836
I5
sS'ELPR'
p2837
I6
sS'AGTR'
p2838
I8
sS'IEGV'
p2839
I1
sS'KFHS'
p2840
I1
sS'HTRG'
p2841
I1
sS'YGGI'
p2842
I3
sS'KHLD'
p2843
I4
sS'YGGF'
p2844
I1
sS'IWLL'
p2845
I2
sS'FSVI'
p2846
I7
sS'RAEP'
p2847
I1
sS'SIAA'
p2848
I2
sS'FSVL'
p2849
I1
sS'INAF'
p2850
I2
sS'SIAN'
p2851
I2
sS'CAWS'
p2852
I1
sS'FLIF'
p2853
I1
sS'ILPG'
p2854
I2
sS'YGGS'
p2855
I1
sS'VIHV'
p2856
I2
sS'CAER'
p2857
I1
sS'ERLL'
p2858
I1
sS'WQHS'
p2859
I2
sS'YEAA'
p2860
I1
sS'FQTV'
p2861
I3
sS'PPPQ'
p2862
I1
sS'YEAL'
p2863
I1
sS'RAKE'
p2864
I1
sS'GRKL'
p2865
I5
sS'RIKE'
p2866
I2
sS'GRKI'
p2867
I1
sS'YRSP'
p2868
I2
sS'FGQS'
p2869
I2
sS'FQTM'
p2870
I1
sS'GNWI'
p2871
I1
sS'GLGA'
p2872
I1
sS'ALEY'
p2873
I1
sS'GLGF'
p2874
I1
sS'PTAR'
p2875
I1
sS'LYIW'
p2876
I1
sS'TGTG'
p2877
I1
sS'ALEQ'
p2878
I5
sS'LYIP'
p2879
I1
sS'ALES'
p2880
I1
sS'QEAE'
p2881
I1
sS'PLKK'
p2882
I1
sS'AKTS'
p2883
I3
sS'ALEH'
p2884
I3
sS'YSGE'
p2885
I2
sS'YDSF'
p2886
I1
sS'LYID'
p2887
I1
sS'VRSG'
p2888
I1
sS'LYIA'
p2889
I3
sS'FSDR'
p2890
I2
sS'FQHN'
p2891
I1
sS'RCGG'
p2892
I1
sS'GPGP'
p2893
I1
sS'VLAA'
p2894
I2
sS'WCYK'
p2895
I5
sS'REGI'
p2896
I2
sS'KANV'
p2897
I1
sS'NHIS'
p2898
I1
sS'LILE'
p2899
I9
sS'VIFP'
p2900
I1
sS'FYPL'
p2901
I1
sS'LILA'
p2902
I1
sS'RPED'
p2903
I1
sS'IITV'
p2904
I2
sS'TLDP'
p2905
I2
sS'LILL'
p2906
I3
sS'TLDS'
p2907
I1
sS'LILI'
p2908
I3
sS'RLTG'
p2909
I2
sS'PLWC'
p2910
I5
sS'RPEN'
p2911
I2
sS'CVLG'
p2912
I4
sS'SERG'
p2913
I7
sS'LILV'
p2914
I3
sS'VTVL'
p2915
I2
sS'SSFY'
p2916
I1
sS'SSFT'
p2917
I1
sS'ISLL'
p2918
I3
sS'PVTL'
p2919
I2
sS'RSGI'
p2920
I1
sS'LDDT'
p2921
I3
sS'VTVE'
p2922
I1
sS'GVGP'
p2923
I1
sS'SSFS'
p2924
I1
sS'SNHC'
p2925
I1
sS'SNHA'
p2926
I1
sS'NDIN'
p2927
I1
sS'PLER'
p2928
I2
sS'CSVD'
p2929
I1
sS'FNME'
p2930
I1
sS'MVIF'
p2931
I1
sS'GSGY'
p2932
I4
sS'PLEY'
p2933
I1
sS'LRMF'
p2934
I1
sS'MSRV'
p2935
I2
sS'VVLF'
p2936
I1
sS'SNHP'
p2937
I1
sS'VVLA'
p2938
I1
sS'PLEA'
p2939
I1
sS'LDRE'
p2940
I1
sS'GCGD'
p2941
I2
sS'SGTR'
p2942
I1
sS'PVFF'
p2943
I3
sS'NDIR'
p2944
I1
sS'RFAS'
p2945
I1
sS'VNLM'
p2946
I4
sS'QEAQ'
p2947
I1
sS'NLQG'
p2948
I1
sS'SETC'
p2949
I1
sS'PTVF'
p2950
I1
sS'NVTI'
p2951
I4
sS'TVYS'
p2952
I1
sS'YFQV'
p2953
I1
sS'EPHS'
p2954
I2
sS'KLRI'
p2955
I1
sS'GTRL'
p2956
I2
sS'MFHT'
p2957
I1
sS'PTVW'
p2958
I1
sS'VRLN'
p2959
I1
sS'ESAD'
p2960
I1
sS'LCGS'
p2961
I1
sS'RGED'
p2962
I1
sS'DDTK'
p2963
I1
sS'GELF'
p2964
I1
sS'LCGT'
p2965
I1
sS'PAVL'
p2966
I1
sS'GVIL'
p2967
I1
sS'RIFY'
p2968
I1
sS'VLAM'
p2969
I1
sS'DYDQ'
p2970
I3
sS'RFVD'
p2971
I1
sS'TLVY'
p2972
I1
sS'LMWR'
p2973
I1
sS'EDMT'
p2974
I1
sS'YPDD'
p2975
I2
sS'RRCR'
p2976
I1
sS'PAVW'
p2977
I2
sS'LPER'
p2978
I4
sS'SALI'
p2979
I1
sS'HRLP'
p2980
I5
sS'SALN'
p2981
I3
sS'MLQS'
p2982
I1
sS'ERDF'
p2983
I2
sS'EASE'
p2984
I4
sS'QSLG'
p2985
I2
sS'SALE'
p2986
I1
sS'VLLY'
p2987
I4
sS'VLLF'
p2988
I1
sS'TPVC'
p2989
I1
sS'GAVH'
p2990
I2
sS'ADQA'
p2991
I2
sS'VLLN'
p2992
I1
sS'HRLK'
p2993
I1
sS'VLLL'
p2994
I1
sS'GAVA'
p2995
I6
sS'QVHQ'
p2996
I4
sS'TVPL'
p2997
I1
sS'AADA'
p2998
I3
sS'PHGM'
p2999
I1
sS'PSRT'
p3000
I4
sS'DHRV'
p3001
I8
sS'GILF'
p3002
I1
sS'TRPD'
p3003
I4
sS'TVPA'
p3004
I5
sS'GSID'
p3005
I2
sS'DVNP'
p3006
I4
sS'GILY'
p3007
I4
sS'AADT'
p3008
I1
sS'CRLK'
p3009
I3
sS'TVPT'
p3010
I1
sS'LQEE'
p3011
I1
sS'GSII'
p3012
I1
sS'TVPS'
p3013
I1
sS'PDSL'
p3014
I1
sS'TFSS'
p3015
I1
sS'QKIF'
p3016
I2
sS'NFFY'
p3017
I2
sS'QEEW'
p3018
I1
sS'REIS'
p3019
I1
sS'VYDG'
p3020
I1
sS'FLSS'
p3021
I1
sS'SSTK'
p3022
I1
sS'MKHI'
p3023
I2
sS'LEQF'
p3024
I5
sS'SSTG'
p3025
I2
sS'SEKL'
p3026
I4
sS'IPSS'
p3027
I2
sS'IPSV'
p3028
I2
sS'SVVP'
p3029
I1
sS'LGYR'
p3030
I8
sS'WALC'
p3031
I2
sS'EAAL'
p3032
I1
sS'YPLD'
p3033
I1
sS'KGEL'
p3034
I1
sS'LTGP'
p3035
I1
sS'IVKS'
p3036
I2
sS'LTGT'
p3037
I1
sS'YLKF'
p3038
I1
sS'MWYE'
p3039
I5
sS'LGYH'
p3040
I7
sS'CPLL'
p3041
I5
sS'LHGT'
p3042
I2
sS'QQEI'
p3043
I1
sS'NMRY'
p3044
I2
sS'LQEV'
p3045
I2
sS'PKQK'
p3046
I2
sS'LEEE'
p3047
I2
sS'YKYQ'
p3048
I1
sS'MKQL'
p3049
I5
sS'VQCR'
p3050
I1
sS'QGMN'
p3051
I1
sS'QSIC'
p3052
I1
sS'AFAS'
p3053
I1
sS'FSGR'
p3054
I2
sS'NAGT'
p3055
I8
sS'EKSR'
p3056
I1
sS'GGFR'
p3057
I2
sS'ALWK'
p3058
I1
sS'VNHI'
p3059
I1
sS'AVLW'
p3060
I1
sS'LGLI'
p3061
I1
sS'LDLM'
p3062
I4
sS'DNPV'
p3063
I7
sS'AVLN'
p3064
I1
sS'ADCR'
p3065
I3
sS'ADCS'
p3066
I2
sS'DELW'
p3067
I1
sS'AFSG'
p3068
I2
sS'NAGN'
p3069
I10
sS'AVLD'
p3070
I4
sS'TFAS'
p3071
I2
sS'GGFH'
p3072
I1
sS'SEPE'
p3073
I4
sS'RTAS'
p3074
I1
sS'LAEY'
p3075
I2
sS'LVGS'
p3076
I1
sS'HLGR'
p3077
I2
sS'QTME'
p3078
I1
sS'IDRN'
p3079
I1
sS'LGIY'
p3080
I1
sS'WVGL'
p3081
I2
sS'LAEN'
p3082
I1
sS'FFVL'
p3083
I1
sS'ETCE'
p3084
I1
sS'KSKG'
p3085
I2
sS'RNLR'
p3086
I1
sS'KMVI'
p3087
I1
sS'HLGK'
p3088
I2
sS'NSHR'
p3089
I3
sS'MIKF'
p3090
I1
sS'DKTK'
p3091
I5
sS'SYLM'
p3092
I1
sS'VGPS'
p3093
I1
sS'CAFI'
p3094
I1
sS'TSNV'
p3095
I1
sS'AEAT'
p3096
I1
sS'NILA'
p3097
I1
sS'ENTF'
p3098
I6
sS'KTSN'
p3099
I1
sS'NSAI'
p3100
I1
sS'VVCI'
p3101
I2
sS'IWSS'
p3102
I1
sS'KTSS'
p3103
I3
sS'KRKG'
p3104
I1
sS'SEGT'
p3105
I2
sS'NILS'
p3106
I1
sS'NILP'
p3107
I2
sS'ALDA'
p3108
I9
sS'QAAA'
p3109
I1
sS'SHTR'
p3110
I1
sS'WIKA'
p3111
I6
sS'LSYR'
p3112
I5
sS'RILQ'
p3113
I1
sS'PGIQ'
p3114
I5
sS'GYPL'
p3115
I4
sS'FHPP'
p3116
I1
sS'TGEN'
p3117
I1
sS'KGNI'
p3118
I1
sS'WIKQ'
p3119
I1
sS'DREC'
p3120
I1
sS'DREG'
p3121
I2
sS'WIKV'
p3122
I1
sS'IPEH'
p3123
I1
sS'FRQQ'
p3124
I1
sS'HHIG'
p3125
I2
sS'LGKK'
p3126
I3
sS'KGKD'
p3127
I1
sS'FPHS'
p3128
I1
sS'LGKS'
p3129
I5
sS'DCSL'
p3130
I2
sS'ASCN'
p3131
I1
sS'HNFY'
p3132
I1
sS'FIDL'
p3133
I8
sS'DPSE'
p3134
I1
sS'TEQQ'
p3135
I1
sS'KESG'
p3136
I2
sS'IIST'
p3137
I1
sS'QCQG'
p3138
I5
sS'VLKG'
p3139
I1
sS'ILSD'
p3140
I1
sS'LDSY'
p3141
I1
sS'WREA'
p3142
I1
sS'LYFP'
p3143
I5
sS'PVGS'
p3144
I1
sS'LDST'
p3145
I4
sS'VFVA'
p3146
I1
sS'NFNV'
p3147
I2
sS'SEAV'
p3148
I4
sS'HESF'
p3149
I1
sS'PCEA'
p3150
I1
sS'AEWY'
p3151
I1
sS'EYER'
p3152
I1
sS'GVRL'
p3153
I1
sS'LRRL'
p3154
I1
sS'SEAG'
p3155
I1
sS'LRRI'
p3156
I1
sS'DRYS'
p3157
I2
sS'LYFH'
p3158
I2
sS'AAWW'
p3159
I1
sS'RLYI'
p3160
I1
sS'YFPE'
p3161
I3
sS'YFPD'
p3162
I2
sS'YFPG'
p3163
I7
sS'IGKF'
p3164
I1
sS'YFPH'
p3165
I1
sS'LESW'
p3166
I1
sS'NNFI'
p3167
I1
sS'VPAV'
p3168
I3
sS'NPII'
p3169
I1
sS'DAFS'
p3170
I4
sS'TKAR'
p3171
I1
sS'EEWL'
p3172
I1
sS'HVIP'
p3173
I4
sS'HVIS'
p3174
I1
sS'IFSH'
p3175
I3
sS'VMLG'
p3176
I1
sS'EEEW'
p3177
I2
sS'QMVD'
p3178
I1
sS'DFLS'
p3179
I1
sS'FRCE'
p3180
I1
sS'IYFN'
p3181
I1
sS'IYFH'
p3182
I4
sS'QMVN'
p3183
I1
sS'IPTV'
p3184
I1
sS'SVSP'
p3185
I4
sS'PAGA'
p3186
I1
sS'NLPF'
p3187
I1
sS'DVSI'
p3188
I1
sS'EENQ'
p3189
I2
sS'ELSV'
p3190
I1
sS'CLLP'
p3191
I1
sS'CLLS'
p3192
I1
sS'DAQG'
p3193
I1
sS'DAQD'
p3194
I1
sS'SSGT'
p3195
I1
sS'VSWL'
p3196
I4
sS'TVES'
p3197
I2
sS'VSWN'
p3198
I4
sS'VYSS'
p3199
I1
sS'MTLQ'
p3200
I2
sS'LKYS'
p3201
I1
sS'MTLK'
p3202
I4
sS'ASLA'
p3203
I2
sS'FKFQ'
p3204
I1
sS'IWML'
p3205
I1
sS'FLNL'
p3206
I1
sS'RHGD'
p3207
I2
sS'PSAF'
p3208
I1
sS'PSAG'
p3209
I1
sS'HAED'
p3210
I8
sS'FLNF'
p3211
I7
sS'RHGL'
p3212
I1
sS'MGRR'
p3213
I1
sS'LKFN'
p3214
I1
sS'MNVF'
p3215
I1
sS'LSPS'
p3216
I4
sS'HAII'
p3217
I2
sS'LLDE'
p3218
I2
sS'KQWS'
p3219
I1
sS'SVSF'
p3220
I1
sS'FYPC'
p3221
I4
sS'EEWI'
p3222
I3
sS'LYSL'
p3223
I2
sS'HSLG'
p3224
I9
sS'LSPA'
p3225
I1
sS'ALNM'
p3226
I1
sS'FYPK'
p3227
I3
sS'AAEP'
p3228
I2
sS'ASPE'
p3229
I1
sS'NGHK'
p3230
I1
sS'HSLE'
p3231
I2
sS'WWLL'
p3232
I1
sS'PFTN'
p3233
I9
sS'KDGV'
p3234
I2
sS'GGIV'
p3235
I1
sS'GGII'
p3236
I2
sS'KDGI'
p3237
I2
sS'AMLA'
p3238
I3
sS'CEYK'
p3239
I1
sS'PPYV'
p3240
I1
sS'MFDY'
p3241
I4
sS'PVTG'
p3242
I2
sS'GGID'
p3243
I1
sS'LKKP'
p3244
I5
sS'VDYR'
p3245
I6
sS'KKIC'
p3246
I4
sS'EKSW'
p3247
I2
sS'LKKY'
p3248
I1
sS'NHVE'
p3249
I1
sS'GPFK'
p3250
I4
sS'REFL'
p3251
I6
sS'RSLT'
p3252
I1
sS'EKSF'
p3253
I1
sS'SESP'
p3254
I1
sS'SSGI'
p3255
I5
sS'PRYE'
p3256
I4
sS'LIKL'
p3257
I3
sS'QETV'
p3258
I1
sS'TLEH'
p3259
I2
sS'DDKI'
p3260
I2
sS'PAGM'
p3261
I1
sS'SESG'
p3262
I1
sS'VIIK'
p3263
I1
sS'LDES'
p3264
I2
sS'YFNF'
p3265
I1
sS'RSLR'
p3266
I1
sS'SSGS'
p3267
I4
sS'PLPV'
p3268
I1
sS'DQLW'
p3269
I1
sS'AFRT'
p3270
I2
sS'NAFY'
p3271
I2
sS'GPTP'
p3272
I2
sS'KSWM'
p3273
I2
sS'IERW'
p3274
I1
sS'IRAI'
p3275
I2
sS'DQLI'
p3276
I5
sS'KVFL'
p3277
I1
sS'QHMR'
p3278
I5
sS'ATNA'
p3279
I1
sS'SDLD'
p3280
I1
sS'ATNL'
p3281
I8
sS'LCPA'
p3282
I1
sS'LVDY'
p3283
I5
sS'LCPG'
p3284
I5
sS'VKIC'
p3285
I1
sS'MAAT'
p3286
I1
sS'GDRE'
p3287
I2
sS'NVYI'
p3288
I1
sS'LVDL'
p3289
I1
sS'ISAN'
p3290
I1
sS'IGHR'
p3291
I5
sS'ISAL'
p3292
I1
sS'CVYL'
p3293
I2
sS'RLCE'
p3294
I7
sS'RLCD'
p3295
I1
sS'SLGG'
p3296
I7
sS'RIIT'
p3297
I2
sS'CVYE'
p3298
I1
sS'LCFR'
p3299
I1
sS'GTDA'
p3300
I1
sS'RGDR'
p3301
I1
sS'IELR'
p3302
I1
sS'VALE'
p3303
I3
sS'SLGT'
p3304
I9
sS'FTNI'
p3305
I8
sS'KVTL'
p3306
I1
sS'FTNM'
p3307
I1
sS'LGVY'
p3308
I1
sS'MLPV'
p3309
I1
sS'TRGG'
p3310
I8
sS'LAVI'
p3311
I1
sS'LAVG'
p3312
I1
sS'PRCA'
p3313
I3
sS'LNGH'
p3314
I1
sS'EAPF'
p3315
I1
sS'RTEP'
p3316
I5
sS'TRGS'
p3317
I2
sS'LLGQ'
p3318
I2
sS'TRGT'
p3319
I1
sS'KNQD'
p3320
I1
sS'LAVT'
p3321
I1
sS'LGVG'
p3322
I1
sS'MKRF'
p3323
I1
sS'GLWS'
p3324
I1
sS'DYRG'
p3325
I18
sS'EFLG'
p3326
I6
sS'MKRA'
p3327
I5
sS'KILQ'
p3328
I2
sS'AIHL'
p3329
I4
sS'KKPE'
p3330
I1
sS'NVFP'
p3331
I2
sS'LVRF'
p3332
I1
sS'AKDA'
p3333
I1
sS'KILL'
p3334
I2
sS'TGDN'
p3335
I4
sS'GLWF'
p3336
I1
sS'RYLP'
p3337
I6
sS'LVRR'
p3338
I8
sS'EHHH'
p3339
I1
sS'GLWL'
p3340
I1
sS'KILF'
p3341
I5
sS'KKPQ'
p3342
I4
sS'GSST'
p3343
I1
sS'STSY'
p3344
I1
sS'TEPV'
p3345
I5
sS'YLDS'
p3346
I2
sS'IYIA'
p3347
I1
sS'FLCS'
p3348
I1
sS'GTLD'
p3349
I2
sS'IPDG'
p3350
I4
sS'SPSR'
p3351
I4
sS'SVCA'
p3352
I1
sS'ICDQ'
p3353
I1
sS'LQNE'
p3354
I1
sS'KGHY'
p3355
I1
sS'FRRF'
p3356
I1
sS'DCRL'
p3357
I3
sS'PDNE'
p3358
I1
sS'CNYY'
p3359
I6
sS'FRRI'
p3360
I2
sS'RQIL'
p3361
I1
sS'SPSA'
p3362
I1
sS'GQAV'
p3363
I1
sS'ECVR'
p3364
I3
sS'GSRE'
p3365
I1
sS'RVNL'
p3366
I1
sS'LNLV'
p3367
I1
sS'GPLP'
p3368
I1
sS'GMAS'
p3369
I1
sS'LCSV'
p3370
I1
sS'TPAE'
p3371
I2
sS'QASE'
p3372
I1
sS'SVQF'
p3373
I1
sS'AEAE'
p3374
I2
sS'TPAS'
p3375
I1
sS'AYCG'
p3376
I1
sS'LNLI'
p3377
I5
sS'LADY'
p3378
I2
sS'TLMI'
p3379
I1
sS'PKPL'
p3380
I1
sS'TFLS'
p3381
I6
sS'MMAL'
p3382
I1
sS'IMAG'
p3383
I1
sS'ADEK'
p3384
I1
sS'PILL'
p3385
I1
sS'FGAA'
p3386
I1
sS'ELRT'
p3387
I1
sS'SENA'
p3388
I1
sS'ELRQ'
p3389
I1
sS'TEFK'
p3390
I1
sS'VAAV'
p3391
I1
sS'VAAW'
p3392
I1
sS'LPFH'
p3393
I1
sS'FRDF'
p3394
I5
sS'LHLS'
p3395
I1
sS'FRDY'
p3396
I1
sS'IRFA'
p3397
I1
sS'ERLV'
p3398
I2
sS'AQFR'
p3399
I1
sS'VAAI'
p3400
I2
sS'FIYK'
p3401
I1
sS'HRDN'
p3402
I1
sS'QMWY'
p3403
I5
sS'TKVF'
p3404
I1
sS'YLVP'
p3405
I2
sS'QRLV'
p3406
I2
sS'ISAI'
p3407
I3
sS'YRGF'
p3408
I5
sS'AQAK'
p3409
I1
sS'EMQF'
p3410
I1
sS'SRML'
p3411
I1
sS'GNNV'
p3412
I2
sS'ASMG'
p3413
I1
sS'CAIA'
p3414
I2
sS'YRGW'
p3415
I8
sS'YRGY'
p3416
I6
sS'FLDA'
p3417
I1
sS'NDDN'
p3418
I1
sS'TSIK'
p3419
I1
sS'DLAA'
p3420
I1
sS'LWNF'
p3421
I1
sS'CQKA'
p3422
I1
sS'EFRR'
p3423
I1
sS'AIVL'
p3424
I2
sS'YEGQ'
p3425
I3
sS'FASY'
p3426
I2
sS'ADHV'
p3427
I4
sS'CAGL'
p3428
I1
sS'SENS'
p3429
I3
sS'EFRC'
p3430
I1
sS'AKVL'
p3431
I1
sS'WFED'
p3432
I1
sS'ALGR'
p3433
I5
sS'ALGS'
p3434
I1
sS'TAVL'
p3435
I1
sS'SGDN'
p3436
I7
sS'SITF'
p3437
I2
sS'DRHG'
p3438
I2
sS'TWQC'
p3439
I5
sS'PNAL'
p3440
I5
sS'NTPA'
p3441
I1
sS'ALGF'
p3442
I1
sS'VMTR'
p3443
I5
sS'SLGY'
p3444
I8
sS'GRQH'
p3445
I1
sS'GENY'
p3446
I2
sS'TVHA'
p3447
I1
sS'VLDY'
p3448
I4
sS'ILLR'
p3449
I3
sS'KSHP'
p3450
I7
sS'FRRV'
p3451
I1
sS'HRDR'
p3452
I1
sS'KAPF'
p3453
I1
sS'ILLL'
p3454
I3
sS'LPVG'
p3455
I1
sS'KLPV'
p3456
I2
sS'DGNP'
p3457
I1
sS'LDLK'
p3458
I4
sS'ILLC'
p3459
I2
sS'PEVA'
p3460
I1
sS'KSHA'
p3461
I1
sS'LYSI'
p3462
I2
sS'RLRR'
p3463
I2
sS'HRDQ'
p3464
I2
sS'QNAG'
p3465
I1
sS'SSDL'
p3466
I1
sS'LYLD'
p3467
I2
sS'SWAL'
p3468
I2
sS'CKSP'
p3469
I1
sS'ILYD'
p3470
I1
sS'TGSP'
p3471
I1
sS'VLDS'
p3472
I1
sS'LMGA'
p3473
I2
sS'LFFV'
p3474
I1
sS'MAST'
p3475
I4
sS'LSKQ'
p3476
I1
sS'TYFC'
p3477
I3
sS'RLRM'
p3478
I1
sS'YDIW'
p3479
I1
sS'GFLY'
p3480
I1
sS'ILRE'
p3481
I6
sS'ILRD'
p3482
I1
sS'IIVV'
p3483
I2
sS'HERC'
p3484
I4
sS'GFLR'
p3485
I1
sS'HERA'
p3486
I1
sS'GLKI'
p3487
I1
sS'PLGR'
p3488
I1
sS'PEHQ'
p3489
I2
sS'RNPQ'
p3490
I3
sS'GVWL'
p3491
I1
sS'PEHR'
p3492
I2
sS'GKPT'
p3493
I1
sS'GVWH'
p3494
I8
sS'SWSW'
p3495
I4
sS'HERR'
p3496
I1
sS'LYEI'
p3497
I1
sS'DPGG'
p3498
I1
sS'LYEL'
p3499
I5
sS'AATS'
p3500
I1
sS'IRTK'
p3501
I3
sS'LRAF'
p3502
I1
sS'AATT'
p3503
I1
sS'PVDA'
p3504
I1
sS'RFCT'
p3505
I1
sS'AATY'
p3506
I2
sS'EGLT'
p3507
I1
sS'VPNA'
p3508
I1
sS'NVVL'
p3509
I1
sS'ALHV'
p3510
I7
sS'NVVR'
p3511
I2
sS'AATC'
p3512
I2
sS'EGLL'
p3513
I2
sS'WLVN'
p3514
I1
sS'SCRG'
p3515
I1
sS'ENAV'
p3516
I2
sS'LDAW'
p3517
I4
sS'PTPK'
p3518
I1
sS'ENPA'
p3519
I1
sS'KEHV'
p3520
I1
sS'YDQW'
p3521
I3
sS'EVMV'
p3522
I3
sS'VRQL'
p3523
I1
sS'SLFI'
p3524
I7
sS'VHGN'
p3525
I2
sS'RGKD'
p3526
I1
sS'SSRL'
p3527
I5
sS'NKVY'
p3528
I2
sS'FHKD'
p3529
I1
sS'LPGG'
p3530
I2
sS'LPGF'
p3531
I1
sS'EPKR'
p3532
I2
sS'KDNI'
p3533
I1
sS'EPKQ'
p3534
I2
sS'CRGE'
p3535
I1
sS'YSAF'
p3536
I4
sS'GTKG'
p3537
I1
sS'SLFR'
p3538
I2
sS'RYSA'
p3539
I2
sS'SDLP'
p3540
I1
sS'TRDK'
p3541
I1
sS'PTLL'
p3542
I2
sS'EPGV'
p3543
I1
sS'PFKT'
p3544
I3
sS'RKLY'
p3545
I5
sS'VRRL'
p3546
I8
sS'NMIG'
p3547
I1
sS'SAND'
p3548
I1
sS'EAQF'
p3549
I1
sS'EAQA'
p3550
I1
sS'NQWN'
p3551
I1
sS'TIPS'
p3552
I2
sS'TPPD'
p3553
I7
sS'TPPE'
p3554
I1
sS'PFKA'
p3555
I1
sS'GINI'
p3556
I1
sS'VYLV'
p3557
I2
sS'SVDS'
p3558
I1
sS'HAHG'
p3559
I2
sS'MEKH'
p3560
I1
sS'QFIK'
p3561
I4
sS'DVLL'
p3562
I4
sS'GWFI'
p3563
I4
sS'MEKS'
p3564
I3
sS'TVNF'
p3565
I1
sS'MEKP'
p3566
I1
sS'TLFS'
p3567
I5
sS'QFIP'
p3568
I4
sS'TVNL'
p3569
I1
sS'VYLH'
p3570
I1
sS'NFQA'
p3571
I1
sS'KSFQ'
p3572
I1
sS'LSSA'
p3573
I1
sS'HTRR'
p3574
I2
sS'LSSL'
p3575
I11
sS'LSSM'
p3576
I1
sS'ISGS'
p3577
I1
sS'RWGG'
p3578
I1
sS'QKHL'
p3579
I4
sS'LERD'
p3580
I2
sS'LSSS'
p3581
I1
sS'LSSP'
p3582
I1
sS'GAFR'
p3583
I2
sS'FINT'
p3584
I1
sS'YLML'
p3585
I1
sS'GSSD'
p3586
I1
sS'CRRG'
p3587
I1
sS'EVQF'
p3588
I1
sS'FFPM'
p3589
I4
sS'GSSH'
p3590
I1
sS'WLRL'
p3591
I2
sS'GSSS'
p3592
I4
sS'VELY'
p3593
I6
sS'SFIE'
p3594
I3
sS'ICSK'
p3595
I1
sS'VATV'
p3596
I2
sS'LLAL'
p3597
I4
sS'KMAL'
p3598
I1
sS'SPLL'
p3599
I1
sS'PICS'
p3600
I1
sS'RSAA'
p3601
I1
sS'TDAI'
p3602
I1
sS'YNQW'
p3603
I1
sS'IKKL'
p3604
I1
sS'TDAD'
p3605
I1
sS'FINV'
p3606
I2
sS'DLPI'
p3607
I1
sS'WLLA'
p3608
I3
sS'DSKG'
p3609
I1
sS'KSTG'
p3610
I1
sS'WLLG'
p3611
I2
sS'GAPH'
p3612
I4
sS'WGPL'
p3613
I1
sS'ILDV'
p3614
I1
sS'WLLR'
p3615
I1
sS'GAPT'
p3616
I1
sS'AFGR'
p3617
I2
sS'GGDH'
p3618
I8
sS'RGYG'
p3619
I6
sS'EKHW'
p3620
I1
sS'HLAS'
p3621
I4
sS'HSFP'
p3622
I1
sS'NSNH'
p3623
I1
sS'GEHI'
p3624
I2
sS'LVRY'
p3625
I1
sS'EDAL'
p3626
I6
sS'LALP'
p3627
I1
sS'VMVR'
p3628
I3
sS'EDAK'
p3629
I1
sS'TAIL'
p3630
I3
sS'VKHI'
p3631
I3
sS'SLTP'
p3632
I2
sS'HSFG'
p3633
I5
sS'GYFQ'
p3634
I1
sS'TCEQ'
p3635
I1
sS'FVYD'
p3636
I1
sS'LGAF'
p3637
I1
sS'FKVQ'
p3638
I5
sS'NPQR'
p3639
I2
sS'MKRP'
p3640
I1
sS'DQWN'
p3641
I2
sS'AKDG'
p3642
I4
sS'YGPT'
p3643
I2
sS'QGYF'
p3644
I5
sS'YEDA'
p3645
I5
sS'FIFS'
p3646
I1
sS'LLSV'
p3647
I1
sS'DQWS'
p3648
I1
sS'DKVT'
p3649
I1
sS'LDSE'
p3650
I2
sS'YGPD'
p3651
I2
sS'ETTQ'
p3652
I1
sS'MIIS'
p3653
I1
sS'LQGW'
p3654
I2
sS'FAND'
p3655
I7
sS'EHER'
p3656
I6
sS'EHES'
p3657
I1
sS'PSQE'
p3658
I2
sS'ARVF'
p3659
I1
sS'DRIS'
p3660
I1
sS'HGSA'
p3661
I1
sS'SPAE'
p3662
I1
sS'SGEK'
p3663
I1
sS'TQLV'
p3664
I1
sS'NIND'
p3665
I1
sS'YPTA'
p3666
I1
sS'DRNL'
p3667
I1
sS'LLIH'
p3668
I2
sS'EHEH'
p3669
I1
sS'DMVD'
p3670
I1
sS'AKES'
p3671
I1
sS'IAIP'
p3672
I7
sS'HNDT'
p3673
I6
sS'AKEP'
p3674
I2
sS'TAGQ'
p3675
I2
sS'AEKF'
p3676
I1
sS'AKET'
p3677
I1
sS'ERWL'
p3678
I4
sS'QEVT'
p3679
I2
sS'APTI'
p3680
I1
sS'IDAF'
p3681
I4
sS'FTSK'
p3682
I1
sS'AIIL'
p3683
I3
sS'FTSI'
p3684
I1
sS'AKEC'
p3685
I1
sS'EHKL'
p3686
I1
sS'LLRY'
p3687
I3
sS'GLVG'
p3688
I1
sS'QSKS'
p3689
I1
sS'WFRL'
p3690
I3
sS'HLSS'
p3691
I2
sS'AGNM'
p3692
I5
sS'LVSW'
p3693
I4
sS'HLST'
p3694
I1
sS'AKEM'
p3695
I1
sS'RSSV'
p3696
I1
sS'NVKY'
p3697
I2
sS'IPGW'
p3698
I1
sS'IPGT'
p3699
I1
sS'IPGS'
p3700
I4
sS'RVAA'
p3701
I1
sS'HGLV'
p3702
I1
sS'VALD'
p3703
I2
sS'IDSE'
p3704
I1
sS'WTKA'
p3705
I1
sS'GYRH'
p3706
I8
sS'IPGF'
p3707
I1
sS'NVKH'
p3708
I3
sS'VFFI'
p3709
I3
sS'YPDN'
p3710
I2
sS'VWWK'
p3711
I5
sS'LQMI'
p3712
I1
sS'RQHM'
p3713
I3
sS'NVKF'
p3714
I1
sS'LFII'
p3715
I2
sS'FLLG'
p3716
I1
sS'NMTL'
p3717
I2
sS'CFCK'
p3718
I1
sS'AGKP'
p3719
I1
sS'VFPY'
p3720
I1
sS'TNIR'
p3721
I8
sS'LYDS'
p3722
I1
sS'SVCF'
p3723
I1
sS'LYDL'
p3724
I1
sS'SGKE'
p3725
I1
sS'CDSK'
p3726
I1
sS'LYDI'
p3727
I1
sS'MVNF'
p3728
I1
sS'MELA'
p3729
I4
sS'PEGT'
p3730
I1
sS'LFIS'
p3731
I5
sS'RSHP'
p3732
I1
sS'TEKF'
p3733
I1
sS'ANDI'
p3734
I1
sS'RYPT'
p3735
I1
sS'IIPG'
p3736
I1
sS'ANDE'
p3737
I6
sS'ANDD'
p3738
I1
sS'MVDF'
p3739
I1
sS'SECL'
p3740
I1
sS'AGAP'
p3741
I1
sS'SECV'
p3742
I1
sS'MQFR'
p3743
I1
sS'IRKI'
p3744
I1
sS'SCSM'
p3745
I1
sS'SCSL'
p3746
I2
sS'ANVV'
p3747
I1
sS'LWSR'
p3748
I1
sS'ALFL'
p3749
I1
sS'VGLA'
p3750
I1
sS'YLQF'
p3751
I1
sS'YRKI'
p3752
I4
sS'QTPE'
p3753
I1
sS'KFFS'
p3754
I3
sS'YVVQ'
p3755
I1
sS'SPSE'
p3756
I4
sS'YPVI'
p3757
I1
sS'LWSC'
p3758
I1
sS'IREE'
p3759
I8
sS'LWSF'
p3760
I1
sS'NNLI'
p3761
I1
sS'LLRA'
p3762
I1
sS'YDLA'
p3763
I1
sS'NNVL'
p3764
I2
sS'AESV'
p3765
I2
sS'PSCR'
p3766
I1
sS'SIDR'
p3767
I1
sS'RAFA'
p3768
I1
sS'KTKE'
p3769
I1
sS'SRLR'
p3770
I1
sS'PGGL'
p3771
I4
sS'SIDM'
p3772
I1
sS'ASNH'
p3773
I2
sS'PDGD'
p3774
I2
sS'RWWL'
p3775
I1
sS'SRLY'
p3776
I5
sS'VCLW'
p3777
I1
sS'KARG'
p3778
I3
sS'QQME'
p3779
I1
sS'YREQ'
p3780
I2
sS'FLSI'
p3781
I5
sS'ATAI'
p3782
I3
sS'DVME'
p3783
I4
sS'SCAE'
p3784
I1
sS'GSLS'
p3785
I1
sS'TIAN'
p3786
I2
sS'CKPT'
p3787
I1
sS'PAES'
p3788
I1
sS'PAEP'
p3789
I1
sS'YSPT'
p3790
I2
sS'IPRY'
p3791
I4
sS'GSLD'
p3792
I2
sS'QFLR'
p3793
I1
sS'MEHR'
p3794
I1
sS'VVQY'
p3795
I1
sS'MEHP'
p3796
I1
sS'RYEY'
p3797
I4
sS'ESYS'
p3798
I2
sS'GAGQ'
p3799
I2
sS'ASRG'
p3800
I4
sS'KFQD'
p3801
I5
sS'CGSA'
p3802
I1
sS'RCRR'
p3803
I1
sS'KDEI'
p3804
I1
sS'YANL'
p3805
I2
sS'QKLR'
p3806
I1
sS'KFQT'
p3807
I4
sS'GSRN'
p3808
I1
sS'FGES'
p3809
I2
sS'FLRT'
p3810
I1
sS'ESLE'
p3811
I2
sS'DAMI'
p3812
I2
sS'RHKY'
p3813
I7
sS'RHKF'
p3814
I1
sS'LKEH'
p3815
I1
sS'KHWV'
p3816
I1
sS'GTPD'
p3817
I1
sS'LKED'
p3818
I4
sS'LKEE'
p3819
I1
sS'NHTH'
p3820
I1
sS'FLRA'
p3821
I1
sS'SGYL'
p3822
I4
sS'LIIL'
p3823
I2
sS'SEQP'
p3824
I1
sS'LIIF'
p3825
I2
sS'VIKS'
p3826
I2
sS'LFGL'
p3827
I1
sS'VVYG'
p3828
I1
sS'LYRD'
p3829
I2
sS'SSEE'
p3830
I1
sS'FCRV'
p3831
I1
sS'VRNY'
p3832
I1
sS'GFQH'
p3833
I1
sS'LFGR'
p3834
I5
sS'LFGQ'
p3835
I2
sS'LIIW'
p3836
I1
sS'SGYP'
p3837
I4
sS'AVHR'
p3838
I2
sS'CPSI'
p3839
I1
sS'YCPT'
p3840
I1
sS'INVV'
p3841
I2
sS'CRVS'
p3842
I1
sS'IMMA'
p3843
I1
sS'IHAH'
p3844
I2
sS'WMLW'
p3845
I2
sS'GNLI'
p3846
I2
sS'PQMV'
p3847
I1
sS'FIIS'
p3848
I1
sS'EYLM'
p3849
I1
sS'IISY'
p3850
I2
sS'IRAV'
p3851
I2
sS'LPRI'
p3852
I6
sS'MPSL'
p3853
I5
sS'TDPG'
p3854
I1
sS'NLRV'
p3855
I1
sS'RRHG'
p3856
I1
sS'SLSS'
p3857
I1
sS'QLHL'
p3858
I1
sS'APEE'
p3859
I1
sS'RTLM'
p3860
I1
sS'LCRI'
p3861
I4
sS'QTNI'
p3862
I1
sS'ESFG'
p3863
I1
sS'RLAI'
p3864
I5
sS'VFLF'
p3865
I1
sS'SSSG'
p3866
I4
sS'ISCP'
p3867
I6
sS'ISCS'
p3868
I2
sS'VFLN'
p3869
I3
sS'SSSH'
p3870
I1
sS'TLYS'
p3871
I1
sS'SLEG'
p3872
I2
sS'RLAG'
p3873
I2
sS'SSSL'
p3874
I1
sS'SSSS'
p3875
I4
sS'SSSR'
p3876
I5
sS'VFLP'
p3877
I1
sS'GYFT'
p3878
I4
sS'FVAG'
p3879
I1
sS'RLAS'
p3880
I1
sS'KICP'
p3881
I1
sS'GDSE'
p3882
I1
sS'CYKN'
p3883
I5
sS'RVSL'
p3884
I1
sS'PFHS'
p3885
I5
sS'GIYI'
p3886
I1
sS'PFHT'
p3887
I1
sS'GDST'
p3888
I1
sS'PFHK'
p3889
I1
sS'GDSV'
p3890
I7
sS'PFHL'
p3891
I4
sS'TTQG'
p3892
I1
sS'EATL'
p3893
I1
sS'EAVL'
p3894
I4
sS'WISK'
p3895
I1
sS'PHLV'
p3896
I2
sS'PFHE'
p3897
I1
sS'DIWM'
p3898
I1
sS'AIFN'
p3899
I1
sS'LVPR'
p3900
I2
sS'ETVV'
p3901
I1
sS'ARGP'
p3902
I4
sS'GNIG'
p3903
I5
sS'ERVK'
p3904
I1
sS'QALE'
p3905
I1
sS'TAFG'
p3906
I2
sS'QSLQ'
p3907
I1
sS'FVDN'
p3908
I1
sS'ARGK'
p3909
I1
sS'IGVW'
p3910
I8
sS'TSSG'
p3911
I5
sS'AKFF'
p3912
I1
sS'AIFP'
p3913
I5
sS'EMAK'
p3914
I2
sS'ETVN'
p3915
I1
sS'NIRE'
p3916
I8
sS'IPFS'
p3917
I1
sS'HHLS'
p3918
I2
sS'STFA'
p3919
I2
sS'KICD'
p3920
I1
sS'LPVF'
p3921
I1
sS'GMWR'
p3922
I1
sS'NTEK'
p3923
I1
sS'FRTV'
p3924
I1
sS'RGTL'
p3925
I2
sS'DTWQ'
p3926
I5
sS'LGLY'
p3927
I4
sS'WMLP'
p3928
I1
sS'FRTL'
p3929
I1
sS'GFGK'
p3930
I2
sS'SPQL'
p3931
I1
sS'IPFH'
p3932
I4
sS'KGNL'
p3933
I1
sS'IPFL'
p3934
I7
sS'ICFP'
p3935
I1
sS'VYSA'
p3936
I1
sS'QSVG'
p3937
I1
sS'RVPY'
p3938
I7
sS'GGFV'
p3939
I1
sS'DHID'
p3940
I2
sS'GSPS'
p3941
I5
sS'CPAI'
p3942
I2
sS'DSTG'
p3943
I1
sS'DSTF'
p3944
I4
sS'RVPN'
p3945
I1
sS'EADP'
p3946
I1
sS'RVPK'
p3947
I2
sS'PKRL'
p3948
I2
sS'GGSI'
p3949
I1
sS'QLYK'
p3950
I2
sS'AFCM'
p3951
I4
sS'YEWT'
p3952
I1
sS'TSYP'
p3953
I1
sS'AVWW'
p3954
I2
sS'GGSG'
p3955
I1
sS'QLYE'
p3956
I5
sS'DKGC'
p3957
I1
sS'SDLG'
p3958
I5
sS'IKLC'
p3959
I3
sS'VWHT'
p3960
I8
sS'AGMW'
p3961
I1
sS'LRQI'
p3962
I1
sS'GCSL'
p3963
I1
sS'GLLN'
p3964
I1
sS'SDLK'
p3965
I1
sS'IFPP'
p3966
I1
sS'AEDD'
p3967
I8
sS'RDKV'
p3968
I1
sS'YLPL'
p3969
I5
sS'ALAK'
p3970
I2
sS'YLPG'
p3971
I1
sS'NLGV'
p3972
I1
sS'MDAQ'
p3973
I1
sS'AGPA'
p3974
I1
sS'ALAR'
p3975
I2
sS'ALAS'
p3976
I8
sS'IFPE'
p3977
I1
sS'IFPD'
p3978
I4
sS'AGPG'
p3979
I1
sS'DPLH'
p3980
I1
sS'NVFI'
p3981
I1
sS'LHGW'
p3982
I2
sS'IFPN'
p3983
I1
sS'KTVV'
p3984
I1
sS'TCAF'
p3985
I1
sS'YREI'
p3986
I1
sS'GRAP'
p3987
I1
sS'RAAA'
p3988
I1
sS'CEAS'
p3989
I1
sS'SYAT'
p3990
I2
sS'YEKS'
p3991
I1
sS'NPVY'
p3992
I7
sS'RAAS'
p3993
I1
sS'YNDY'
p3994
I1
sS'FASG'
p3995
I1
sS'FASD'
p3996
I1
sS'SHGM'
p3997
I1
sS'LEHE'
p3998
I5
sS'LEHD'
p3999
I2
sS'SKKQ'
p4000
I1
sS'TKVV'
p4001
I1
sS'GHSL'
p4002
I11
sS'TSKS'
p4003
I1
sS'SMKG'
p4004
I1
sS'VPLK'
p4005
I1
sS'YGQS'
p4006
I1
sS'LEEK'
p4007
I1
sS'ENVY'
p4008
I1
sS'GHSF'
p4009
I5
sS'YHVV'
p4010
I7
sS'YHVI'
p4011
I1
sS'FILS'
p4012
I2
sS'FIIV'
p4013
I2
sS'AFLQ'
p4014
I4
sS'YEEV'
p4015
I1
sS'TATL'
p4016
I1
sS'CFPP'
p4017
I2
sS'AWMF'
p4018
I4
sS'DRNR'
p4019
I1
sS'SYSS'
p4020
I2
sS'NIAS'
p4021
I2
sS'EHDF'
p4022
I2
sS'KRLI'
p4023
I2
sS'DINT'
p4024
I1
sS'KIPH'
p4025
I1
sS'YESQ'
p4026
I1
sS'KRLA'
p4027
I5
sS'FCME'
p4028
I4
sS'NIAA'
p4029
I5
sS'GLLD'
p4030
I3
sS'KARS'
p4031
I7
sS'DALG'
p4032
I1
sS'DALF'
p4033
I1
sS'DALA'
p4034
I4
sS'WNNL'
p4035
I1
sS'FLSY'
p4036
I6
sS'VKSL'
p4037
I2
sS'GLLF'
p4038
I4
sS'DALI'
p4039
I6
sS'DALH'
p4040
I7
sS'HTHN'
p4041
I1
sS'WNNF'
p4042
I1
sS'ASAG'
p4043
I2
sS'FLSK'
p4044
I1
sS'VCAW'
p4045
I1
sS'DALS'
p4046
I1
sS'DALR'
p4047
I1
sS'FLSG'
p4048
I1
sS'GRSL'
p4049
I5
sS'LDVI'
p4050
I1
sS'MTSD'
p4051
I1
sS'FHLG'
p4052
I4
sS'LYQW'
p4053
I1
sS'FSHG'
p4054
I3
sS'LFHP'
p4055
I1
sS'SWGF'
p4056
I1
sS'RLPV'
p4057
I4
sS'KDVE'
p4058
I1
sS'VLFG'
p4059
I3
sS'GDNA'
p4060
I1
sS'LIHG'
p4061
I2
sS'SWGL'
p4062
I2
sS'RLPN'
p4063
I4
sS'LYQD'
p4064
I1
sS'HQRA'
p4065
I1
sS'LMEH'
p4066
I1
sS'RLPI'
p4067
I1
sS'DVEP'
p4068
I1
sS'PNNG'
p4069
I1
sS'RLPA'
p4070
I1
sS'VFQS'
p4071
I1
sS'SGMA'
p4072
I1
sS'LFVV'
p4073
I2
sS'EHVF'
p4074
I1
sS'KKQL'
p4075
I1
sS'GLIL'
p4076
I1
sS'LLVD'
p4077
I1
sS'IWHT'
p4078
I1
sS'PQRL'
p4079
I2
sS'CDRG'
p4080
I1
sS'FNIL'
p4081
I1
sS'GDNS'
p4082
I3
sS'ELFH'
p4083
I1
sS'RDYK'
p4084
I2
sS'GDNP'
p4085
I7
sS'HVLS'
p4086
I1
sS'NFIE'
p4087
I1
sS'SCPV'
p4088
I1
sS'ENVQ'
p4089
I1
sS'ENVP'
p4090
I1
sS'QDEI'
p4091
I1
sS'VPLE'
p4092
I1
sS'ENVK'
p4093
I5
sS'SCPL'
p4094
I5
sS'DSGY'
p4095
I2
sS'ENVN'
p4096
I1
sS'GDND'
p4097
I1
sS'RSGD'
p4098
I7
sS'SCNP'
p4099
I1
sS'NVPT'
p4100
I1
s.